 soundstretch_x64

 Timestamp is 5e32a048 (Thu Jan 30 09:22:16 2020)

 Preferred load address is 0000000140000000

 Start         Length     Name                   Class
 0001:00000000 00000070H .text$di                CODE
 0001:00000070 00037270H .text$mn                CODE
 0001:000372e0 00000020H .text$mn$00             CODE
 0001:00037300 00000d30H .text$x                 CODE
 0001:00038030 000000fcH .text$yd                CODE
 0002:00000000 00000280H .idata$5                DATA
 0002:00000280 00000010H .00cfg                  DATA
 0002:00000290 00000008H .CRT$XCA                DATA
 0002:00000298 00000008H .CRT$XCAA               DATA
 0002:000002a0 00000018H .CRT$XCC                DATA
 0002:000002b8 00000010H .CRT$XCL                DATA
 0002:000002c8 00000008H .CRT$XCZ                DATA
 0002:000002d0 00000008H .CRT$XIA                DATA
 0002:000002d8 00000008H .CRT$XIAA               DATA
 0002:000002e0 00000008H .CRT$XIAC               DATA
 0002:000002e8 00000028H .CRT$XIC                DATA
 0002:00000310 00000008H .CRT$XIZ                DATA
 0002:00000318 00000008H .CRT$XPA                DATA
 0002:00000320 00000010H .CRT$XPX                DATA
 0002:00000330 00000008H .CRT$XPXA               DATA
 0002:00000338 00000008H .CRT$XPZ                DATA
 0002:00000340 00000008H .CRT$XTA                DATA
 0002:00000348 00000008H .CRT$XTZ                DATA
 0002:00000350 00000000H .gfids$y                DATA
 0002:00000350 00011ec0H .rdata                  DATA
 0002:00012210 00001a14H .rdata$r                DATA
 0002:00013c24 00000344H .rdata$zzzdbg           DATA
 0002:00013f68 00000008H .rtc$IAA                DATA
 0002:00013f70 00000008H .rtc$IZZ                DATA
 0002:00013f78 00000008H .rtc$TAA                DATA
 0002:00013f80 00000010H .rtc$TZZ                DATA
 0002:00013f90 00003458H .xdata                  DATA
 0002:000173e8 000003ccH .xdata$x                DATA
 0002:000177b4 00000000H .edata                  DATA
 0002:000177b4 00000014H .idata$2                DATA
 0002:000177c8 00000018H .idata$3                DATA
 0002:000177e0 00000280H .idata$4                DATA
 0002:00017a60 000005c6H .idata$6                DATA
 0003:00000000 00000b20H .data                   DATA
 0003:00000b20 00000a00H .data$r                 DATA
 0003:00001520 00001838H .bss                    DATA
 0004:00000000 00002ebcH .pdata                  DATA
 0005:00000000 000111a4H _RDATA                  DATA
 0006:00000000 00000060H .rsrc$01                DATA
 0006:00000060 00000180H .rsrc$02                DATA

  Address         Publics by Value              Rva+Base               Lib:Object

 0000:00000000       __guard_fids_count         0000000000000000     <absolute>
 0000:00000000       __guard_longjmp_count      0000000000000000     <absolute>
 0000:00000000       __hybrid_code_map          0000000000000000     <absolute>
 0000:00000000       __guard_iat_count          0000000000000000     <absolute>
 0000:00000000       __guard_longjmp_table      0000000000000000     <absolute>
 0000:00000000       __volatile_metadata        0000000000000000     <absolute>
 0000:00000000       __guard_iat_table          0000000000000000     <absolute>
 0000:00000000       __hybrid_code_map_count    0000000000000000     <absolute>
 0000:00000000       __enclave_config           0000000000000000     <absolute>
 0000:00000000       ___safe_se_handler_count   0000000000000000     <absolute>
 0000:00000000       __AbsoluteZero             0000000000000000     <absolute>
 0000:00000000       ___safe_se_handler_table   0000000000000000     <absolute>
 0000:00000000       __guard_fids_table         0000000000000000     <absolute>
 0000:00000000       __hybrid_auxiliary_iat     0000000000000000     <absolute>
 0000:00000000       __dynamic_value_reloc_table 0000000000000000     <absolute>
 0000:00000100       __guard_flags              0000000000000100     <absolute>
 0000:00000000       __ImageBase                0000000140000000     <linker-defined>
 0001:00000770       __local_stdio_printf_options 0000000140001770 f i main.obj
 0001:00000780       fprintf                    0000000140001780 f i main.obj
 0001:000007d0       main                       00000001400017d0 f   main.obj
 0001:00000920       ??$_Reallocate_grow_by@V<lambda_65e615be2a453ca0576c979606f46740>@@PEBD_K@?$basic_string@DU?$char_traits@D@std@@V?$allocator@D@2@@std@@AEAAAEAV01@_KV<lambda_65e615be2a453ca0576c979606f46740>@@PEBD_K@Z 0000000140001920 f i RunParameters.obj
 0001:00000aa0       ??0?$basic_string@DU?$char_traits@D@std@@V?$allocator@D@2@@std@@QEAA@QEBD@Z 0000000140001aa0 f i RunParameters.obj
 0001:00000ae0       ??0RunParameters@@QEAA@HQEBQEBD@Z 0000000140001ae0 f   RunParameters.obj
 0001:00000d10       ??0bad_alloc@std@@QEAA@AEBV01@@Z 0000000140001d10 f i RunParameters.obj
 0001:00000d50       ??0bad_array_new_length@std@@QEAA@AEBV01@@Z 0000000140001d50 f i RunParameters.obj
 0001:00000d90       ??0bad_array_new_length@std@@QEAA@XZ 0000000140001d90 f i RunParameters.obj
 0001:00000dc0       ??0exception@std@@QEAA@AEBV01@@Z 0000000140001dc0 f i RunParameters.obj
 0001:00000e00       ??0runtime_error@std@@QEAA@AEBV01@@Z 0000000140001e00 f i RunParameters.obj
 0001:00000e40       ??0runtime_error@std@@QEAA@PEBD@Z 0000000140001e40 f i RunParameters.obj
 0001:00000e90       ??1?$basic_string@DU?$char_traits@D@std@@V?$allocator@D@2@@std@@QEAA@XZ 0000000140001e90 f i RunParameters.obj
 0001:00000ef0       ??1bad_array_new_length@std@@UEAA@XZ 0000000140001ef0 f i RunParameters.obj
 0001:00000ef0       ??1bad_cast@std@@UEAA@XZ   0000000140001ef0 f i WavFile.obj
 0001:00000ef0       ??1bad_exception@std@@UEAA@XZ 0000000140001ef0 f i libvcruntime:frame.obj
 0001:00000ef0       ??1runtime_error@std@@UEAA@XZ 0000000140001ef0 f i RunParameters.obj
 0001:00000ef0       ??1failure@ios_base@std@@UEAA@XZ 0000000140001ef0 f i WavFile.obj
 0001:00000ef0       ??1length_error@std@@UEAA@XZ 0000000140001ef0 f i libcpmt:xthrow.obj
 0001:00000ef0       ??1out_of_range@std@@UEAA@XZ 0000000140001ef0 f i libcpmt:xthrow.obj
 0001:00000ef0       ??1bad_alloc@std@@UEAA@XZ  0000000140001ef0 f i libcpmt:xthrow.obj
 0001:00000f10       ??Y?$basic_string@DU?$char_traits@D@std@@V?$allocator@D@2@@std@@QEAAAEAV01@AEBV01@@Z 0000000140001f10 f i RunParameters.obj
 0001:00000f30       ??Y?$basic_string@DU?$char_traits@D@std@@V?$allocator@D@2@@std@@QEAAAEAV01@QEBD@Z 0000000140001f30 f i RunParameters.obj
 0001:00000f50       ??_Gexception@std@@UEAAPEAXI@Z 0000000140001f50 f i RunParameters.obj
 0001:00000f50       ??_Eexception@std@@UEAAPEAXI@Z 0000000140001f50 f i RunParameters.obj
 0001:00000f50       ??_Gbad_cast@std@@UEAAPEAXI@Z 0000000140001f50 f i WavFile.obj
 0001:00000f50       ??_Gruntime_error@std@@UEAAPEAXI@Z 0000000140001f50 f i RunParameters.obj
 0001:00000f50       ??_Gbad_array_new_length@std@@UEAAPEAXI@Z 0000000140001f50 f i RunParameters.obj
 0001:00000f50       ??_Glogic_error@std@@UEAAPEAXI@Z 0000000140001f50 f i libcpmt:xthrow.obj
 0001:00000f50       ??_Eout_of_range@std@@UEAAPEAXI@Z 0000000140001f50 f i libcpmt:xthrow.obj
 0001:00000f50       ??_Gout_of_range@std@@UEAAPEAXI@Z 0000000140001f50 f i libcpmt:xthrow.obj
 0001:00000f50       ??_Ebad_exception@std@@UEAAPEAXI@Z 0000000140001f50 f i libvcruntime:frame.obj
 0001:00000f50       ??_Ebad_alloc@std@@UEAAPEAXI@Z 0000000140001f50 f i RunParameters.obj
 0001:00000f50       ??_Eruntime_error@std@@UEAAPEAXI@Z 0000000140001f50 f i RunParameters.obj
 0001:00000f50       ??_Gbad_alloc@std@@UEAAPEAXI@Z 0000000140001f50 f i RunParameters.obj
 0001:00000f50       ??_Glength_error@std@@UEAAPEAXI@Z 0000000140001f50 f i libcpmt:xthrow.obj
 0001:00000f50       ??_Elogic_error@std@@UEAAPEAXI@Z 0000000140001f50 f i libcpmt:xthrow.obj
 0001:00000f50       ??_Ebad_cast@std@@UEAAPEAXI@Z 0000000140001f50 f i WavFile.obj
 0001:00000f50       ??_Ebad_array_new_length@std@@UEAAPEAXI@Z 0000000140001f50 f i RunParameters.obj
 0001:00000f50       ??_Elength_error@std@@UEAAPEAXI@Z 0000000140001f50 f i libcpmt:xthrow.obj
 0001:00000f50       ??_Gbad_exception@std@@UEAAPEAXI@Z 0000000140001f50 f i libvcruntime:frame.obj
 0001:00000fa0       ?_Throw_bad_array_new_length@std@@YAXXZ 0000000140001fa0 f i RunParameters.obj
 0001:00000fa0       ?__scrt_throw_std_bad_array_new_length@@YAXXZ 0000000140001fa0 f i LIBCMT:throw_bad_alloc.obj
 0001:00000fc0       ?_Xlen@?$basic_string@DU?$char_traits@D@std@@V?$allocator@D@2@@std@@CAXXZ 0000000140001fc0 f i RunParameters.obj
 0001:00000fe0       ?_Xran@?$_String_val@U?$_Simple_types@D@std@@@std@@SAXXZ 0000000140001fe0 f i RunParameters.obj
 0001:00001000       ?append@?$basic_string@DU?$char_traits@D@std@@V?$allocator@D@2@@std@@QEAAAEAV12@QEBD_K@Z 0000000140002000 f i RunParameters.obj
 0001:00001090       ?assign@?$basic_string@DU?$char_traits@D@std@@V?$allocator@D@2@@std@@QEAAAEAV12@QEBD_K@Z 0000000140002090 f i RunParameters.obj
 0001:000011f0       ?c_str@?$basic_string@DU?$char_traits@D@std@@V?$allocator@D@2@@std@@QEBAPEBDXZ 00000001400021f0 f i RunParameters.obj
 0001:00001200       ?parseSwitchParam@RunParameters@@AEAAXAEBV?$basic_string@DU?$char_traits@D@std@@V?$allocator@D@2@@std@@@Z 0000000140002200 f   RunParameters.obj
 0001:00001350       ?parseSwitchValue@RunParameters@@AEBAMAEBV?$basic_string@DU?$char_traits@D@std@@V?$allocator@D@2@@std@@@Z 0000000140002350 f   RunParameters.obj
 0001:00001560       ?throwIllegalParamExp@RunParameters@@AEBAXAEBV?$basic_string@DU?$char_traits@D@std@@V?$allocator@D@2@@std@@@Z 0000000140002560 f   RunParameters.obj
 0001:000015f0       ?throwLicense@RunParameters@@AEBAXXZ 00000001400025f0 f   RunParameters.obj
 0001:00001620       ?what@exception@std@@UEBAPEBDXZ 0000000140002620 f i RunParameters.obj
 0001:00001640       ??$?6U?$char_traits@D@std@@@std@@YAAEAV?$basic_ostream@DU?$char_traits@D@std@@@0@AEAV10@PEBD@Z 0000000140002640 f i WavFile.obj
 0001:000018c0       ??$_Immortalize_impl@V_Iostream_error_category@std@@@std@@YAHPEAX0PEAPEAX@Z 00000001400028c0 f i WavFile.obj
 0001:000018e0       ??$_Maklocstr@D@std@@YAPEADPEBDPEADAEBU_Cvtvec@@@Z 00000001400028e0 f i WavFile.obj
 0001:00001950       ??$_Reallocate_grow_by@V<lambda_b986da8d428e4af07c64af60eec09b61>@@_K_KD@?$basic_string@DU?$char_traits@D@std@@V?$allocator@D@2@@std@@AEAAAEAV01@_KV<lambda_b986da8d428e4af07c64af60eec09b61>@@_K2D@Z 0000000140002950 f i WavFile.obj
 0001:00001b00       ??$_Reallocate_grow_by@V<lambda_e1befb086ad3257e3f042a63030725f7>@@_KD@?$basic_string@DU?$char_traits@D@std@@V?$allocator@D@2@@std@@AEAAAEAV01@_KV<lambda_e1befb086ad3257e3f042a63030725f7>@@_KD@Z 0000000140002b00 f i WavFile.obj
 0001:00001c80       ??$use_facet@V?$ctype@D@std@@@std@@YAAEBV?$ctype@D@0@AEBVlocale@0@@Z 0000000140002c80 f i WavFile.obj
 0001:00001d90       ??$use_facet@V?$numpunct@D@std@@@std@@YAAEBV?$numpunct@D@0@AEBVlocale@0@@Z 0000000140002d90 f i WavFile.obj
 0001:00001ea0       ??0?$basic_istream@DU?$char_traits@D@std@@@std@@QEAA@PEAV?$basic_streambuf@DU?$char_traits@D@std@@@1@_N@Z 0000000140002ea0 f i WavFile.obj
 0001:00002060       ??0?$basic_string@DU?$char_traits@D@std@@V?$allocator@D@2@@std@@QEAA@_KD@Z 0000000140003060 f i WavFile.obj
 0001:00002170       ??0?$basic_stringstream@DU?$char_traits@D@std@@V?$allocator@D@2@@std@@QEAA@H@Z 0000000140003170 f i WavFile.obj
 0001:00002300       ??0WavInFile@@QEAA@PEAU_iobuf@@@Z 0000000140003300 f   WavFile.obj
 0001:00002390       ??0WavInFile@@QEAA@PEBD@Z  0000000140003390 f   WavFile.obj
 0001:00002460       ??0WavOutFile@@QEAA@PEAU_iobuf@@HHH@Z 0000000140003460 f   WavFile.obj
 0001:00002570       ??0WavOutFile@@QEAA@PEBDHHH@Z 0000000140003570 f   WavFile.obj
 0001:000026c0       ??0_System_error@std@@IEAA@Verror_code@1@AEBV?$basic_string@DU?$char_traits@D@std@@V?$allocator@D@2@@1@@Z 00000001400036c0 f i WavFile.obj
 0001:00002970       ??0_System_error@std@@QEAA@AEBV01@@Z 0000000140003970 f i WavFile.obj
 0001:000029c0       ??0bad_cast@std@@QEAA@AEBV01@@Z 00000001400039c0 f i WavFile.obj
 0001:00002a00       ??0bad_cast@std@@QEAA@XZ   0000000140003a00 f i WavFile.obj
 0001:00002a30       ??0failure@ios_base@std@@QEAA@AEBV012@@Z 0000000140003a30 f i WavFile.obj
 0001:00002a90       ??0failure@ios_base@std@@QEAA@PEBDAEBVerror_code@2@@Z 0000000140003a90 f i WavFile.obj
 0001:00002b70       ??0sentry@?$basic_ostream@DU?$char_traits@D@std@@@std@@QEAA@AEAV12@@Z 0000000140003b70 f i WavFile.obj
 0001:00002ce0       ??0system_error@std@@QEAA@AEBV01@@Z 0000000140003ce0 f i WavFile.obj
 0001:00002d40       ??1?$_Tidy_guard@V?$numpunct@D@std@@@std@@QEAA@XZ 0000000140003d40 f i WavFile.obj
 0001:00002d80       ??1?$_Yarn@D@std@@QEAA@XZ  0000000140003d80 f i WavFile.obj
 0001:00002d80       ??1?$_Yarn@_W@std@@QEAA@XZ 0000000140003d80 f i WavFile.obj
 0001:00002db0       ??1?$basic_ios@DU?$char_traits@D@std@@@std@@UEAA@XZ 0000000140003db0 f i WavFile.obj
 0001:00002dd0       ??1?$basic_iostream@DU?$char_traits@D@std@@@std@@UEAA@XZ 0000000140003dd0 f i WavFile.obj
 0001:00002e50       ??1?$basic_istream@DU?$char_traits@D@std@@@std@@UEAA@XZ 0000000140003e50 f i WavFile.obj
 0001:00002e80       ??1?$basic_stringbuf@DU?$char_traits@D@std@@V?$allocator@D@2@@std@@UEAA@XZ 0000000140003e80 f i WavFile.obj
 0001:00002f80       ??1?$unique_ptr@V_Facet_base@std@@U?$default_delete@V_Facet_base@std@@@2@@std@@QEAA@XZ 0000000140003f80 f i WavFile.obj
 0001:00002fa0       ??1WavFileBase@@MEAA@XZ    0000000140003fa0 f   WavFile.obj
 0001:00002fd0       ??1_Locinfo@std@@QEAA@XZ   0000000140003fd0 f i WavFile.obj
 0001:00003070       ??1_Sentry_base@?$basic_ostream@DU?$char_traits@D@std@@@std@@QEAA@XZ 0000000140004070 f i WavFile.obj
 0001:000030a0       ??1facet@locale@std@@MEAA@XZ 00000001400040a0 f i WavFile.obj
 0001:000030b0       ??1locale@std@@QEAA@XZ     00000001400040b0 f i WavFile.obj
 0001:000030e0       ??1sentry@?$basic_ostream@DU?$char_traits@D@std@@@std@@QEAA@XZ 00000001400040e0 f i WavFile.obj
 0001:00003120       ??6?$basic_ostream@DU?$char_traits@D@std@@@std@@QEAAAEAV01@H@Z 0000000140004120 f i WavFile.obj
 0001:000033e0       ??_D?$basic_stringstream@DU?$char_traits@D@std@@V?$allocator@D@2@@std@@QEAAXXZ 00000001400043e0 f i WavFile.obj
 0001:000034dc       ??_E?$basic_iostream@DU?$char_traits@D@std@@@std@@$4PPPPPPPM@A@EAAPEAXI@Z 00000001400044dc f i WavFile.obj
 0001:000034e8       ??_E?$basic_istream@DU?$char_traits@D@std@@@std@@$4PPPPPPPM@A@EAAPEAXI@Z 00000001400044e8 f i WavFile.obj
 0001:000034f4       ??_E?$basic_ostream@DU?$char_traits@D@std@@@std@@$4PPPPPPPM@A@EAAPEAXI@Z 00000001400044f4 f i WavFile.obj
 0001:00003500       ??_E?$basic_stringstream@DU?$char_traits@D@std@@V?$allocator@D@2@@std@@$4PPPPPPPM@A@EAAPEAXI@Z 0000000140004500 f i WavFile.obj
 0001:00003510       ??_G?$basic_ios@DU?$char_traits@D@std@@@std@@UEAAPEAXI@Z 0000000140004510 f i WavFile.obj
 0001:00003510       ??_E?$basic_ios@DU?$char_traits@D@std@@@std@@UEAAPEAXI@Z 0000000140004510 f i WavFile.obj
 0001:00003550       ??_E?$basic_iostream@DU?$char_traits@D@std@@@std@@UEAAPEAXI@Z 0000000140004550 f i WavFile.obj
 0001:00003550       ??_G?$basic_iostream@DU?$char_traits@D@std@@@std@@UEAAPEAXI@Z 0000000140004550 f i WavFile.obj
 0001:00003600       ??_G?$basic_istream@DU?$char_traits@D@std@@@std@@UEAAPEAXI@Z 0000000140004600 f i WavFile.obj
 0001:00003600       ??_E?$basic_istream@DU?$char_traits@D@std@@@std@@UEAAPEAXI@Z 0000000140004600 f i WavFile.obj
 0001:00003670       ??_G?$basic_ostream@DU?$char_traits@D@std@@@std@@UEAAPEAXI@Z 0000000140004670 f i WavFile.obj
 0001:00003670       ??_E?$basic_ostream@DU?$char_traits@D@std@@@std@@UEAAPEAXI@Z 0000000140004670 f i WavFile.obj
 0001:000036e0       ??_G?$basic_streambuf@DU?$char_traits@D@std@@@std@@UEAAPEAXI@Z 00000001400046e0 f i WavFile.obj
 0001:000036e0       ??_E?$basic_streambuf@DU?$char_traits@D@std@@@std@@UEAAPEAXI@Z 00000001400046e0 f i WavFile.obj
 0001:00003760       ??_E?$basic_stringbuf@DU?$char_traits@D@std@@V?$allocator@D@2@@std@@UEAAPEAXI@Z 0000000140004760 f i WavFile.obj
 0001:00003760       ??_G?$basic_stringbuf@DU?$char_traits@D@std@@V?$allocator@D@2@@std@@UEAAPEAXI@Z 0000000140004760 f i WavFile.obj
 0001:000037a0       ??_G?$basic_stringstream@DU?$char_traits@D@std@@V?$allocator@D@2@@std@@UEAAPEAXI@Z 00000001400047a0 f i WavFile.obj
 0001:000037a0       ??_E?$basic_stringstream@DU?$char_traits@D@std@@V?$allocator@D@2@@std@@UEAAPEAXI@Z 00000001400047a0 f i WavFile.obj
 0001:000037e0       ??_E?$ctype@D@std@@MEAAPEAXI@Z 00000001400047e0 f i WavFile.obj
 0001:000037e0       ??_G?$ctype@D@std@@MEAAPEAXI@Z 00000001400047e0 f i WavFile.obj
 0001:00003850       ??_G?$num_put@DV?$ostreambuf_iterator@DU?$char_traits@D@std@@@std@@@std@@MEAAPEAXI@Z 0000000140004850 f i WavFile.obj
 0001:00003850       ??_E?$num_put@DV?$ostreambuf_iterator@DU?$char_traits@D@std@@@std@@@std@@MEAAPEAXI@Z 0000000140004850 f i WavFile.obj
 0001:00003880       ??_E?$numpunct@D@std@@MEAAPEAXI@Z 0000000140004880 f i WavFile.obj
 0001:00003880       ??_G?$numpunct@D@std@@MEAAPEAXI@Z 0000000140004880 f i WavFile.obj
 0001:000038e0       ??_EWavFileBase@@MEAAPEAXI@Z 00000001400048e0 f i WavFile.obj
 0001:000038e0       ??_GWavFileBase@@MEAAPEAXI@Z 00000001400048e0 f i WavFile.obj
 0001:00003930       ??_GWavInFile@@UEAAPEAXI@Z 0000000140004930 f i WavFile.obj
 0001:00003930       ??_EWavInFile@@UEAAPEAXI@Z 0000000140004930 f i WavFile.obj
 0001:000039a0       ??_GWavOutFile@@UEAAPEAXI@Z 00000001400049a0 f i WavFile.obj
 0001:000039a0       ??_EWavOutFile@@UEAAPEAXI@Z 00000001400049a0 f i WavFile.obj
 0001:00003a30       ??_G_Facet_base@std@@UEAAPEAXI@Z 0000000140004a30 f i WavFile.obj
 0001:00003a30       ??_E_Facet_base@std@@UEAAPEAXI@Z 0000000140004a30 f i WavFile.obj
 0001:00003a60       ??_E_Iostream_error_category@std@@UEAAPEAXI@Z 0000000140004a60 f i WavFile.obj
 0001:00003a60       ??_G_Iostream_error_category@std@@UEAAPEAXI@Z 0000000140004a60 f i WavFile.obj
 0001:00003a90       ??_G_System_error@std@@UEAAPEAXI@Z 0000000140004a90 f i WavFile.obj
 0001:00003a90       ??_Gfailure@ios_base@std@@UEAAPEAXI@Z 0000000140004a90 f i WavFile.obj
 0001:00003a90       ??_Efailure@ios_base@std@@UEAAPEAXI@Z 0000000140004a90 f i WavFile.obj
 0001:00003a90       ??_Esystem_error@std@@UEAAPEAXI@Z 0000000140004a90 f i WavFile.obj
 0001:00003a90       ??_Gsystem_error@std@@UEAAPEAXI@Z 0000000140004a90 f i WavFile.obj
 0001:00003a90       ??_E_System_error@std@@UEAAPEAXI@Z 0000000140004a90 f i WavFile.obj
 0001:00003ae0       ??_Gios_base@std@@UEAAPEAXI@Z 0000000140004ae0 f i WavFile.obj
 0001:00003ae0       ??_Eios_base@std@@UEAAPEAXI@Z 0000000140004ae0 f i WavFile.obj
 0001:00003b20       ?_Decref@facet@locale@std@@UEAAPEAV_Facet_base@3@XZ 0000000140004b20 f i WavFile.obj
 0001:00003b30       ?_Fput@?$num_put@DV?$ostreambuf_iterator@DU?$char_traits@D@std@@@std@@@std@@AEBA?AV?$ostreambuf_iterator@DU?$char_traits@D@std@@@2@V32@AEAVios_base@2@DPEBD_K@Z 0000000140004b30 f i WavFile.obj
 0001:00004210       ?_Getcat@?$ctype@D@std@@SA_KPEAPEBVfacet@locale@2@PEBV42@@Z 0000000140005210 f i WavFile.obj
 0001:000043d0       ?_Getcat@?$num_put@DV?$ostreambuf_iterator@DU?$char_traits@D@std@@@std@@@std@@SA_KPEAPEBVfacet@locale@2@PEBV42@@Z 00000001400053d0 f i WavFile.obj
 0001:00004570       ?_Getcat@?$numpunct@D@std@@SA_KPEAPEBVfacet@locale@2@PEBV42@@Z 0000000140005570 f i WavFile.obj
 0001:00004790       ?_Gnavail@?$basic_streambuf@DU?$char_traits@D@std@@@std@@IEBA_JXZ 0000000140005790 f i WavFile.obj
 0001:000047b0       ?_Incref@facet@locale@std@@UEAAXXZ 00000001400057b0 f i WavFile.obj
 0001:000047c0       ?_Iput@?$num_put@DV?$ostreambuf_iterator@DU?$char_traits@D@std@@@std@@@std@@AEBA?AV?$ostreambuf_iterator@DU?$char_traits@D@std@@@2@V32@AEAVios_base@2@DPEAD_K@Z 00000001400057c0 f i WavFile.obj
 0001:00004e30       ?_Lock@?$basic_streambuf@DU?$char_traits@D@std@@@std@@UEAAXXZ 0000000140005e30 f i WavFile.obj
 0001:00004e30       ?_Unlock@?$basic_streambuf@DU?$char_traits@D@std@@@std@@UEAAXXZ 0000000140005e30 f i WavFile.obj
 0001:00004e30       _initialize_denormal_control 0000000140005e30 f i LIBCMT:denormal_control.obj
 0001:00004e30       ?imbue@?$basic_streambuf@DU?$char_traits@D@std@@@std@@MEAAXAEBVlocale@2@@Z 0000000140005e30 f i WavFile.obj
 0001:00004e30       ?clearCrossCorrState@TDStretch@soundtouch@@MEAAXXZ 0000000140005e30 f i SoundTouch_x64:TDStretch.obj
 0001:00004e30       _initialize_invalid_parameter_handler 0000000140005e30 f i LIBCMT:invalid_parameter_handler.obj
 0001:00004e30       _guard_check_icall_nop     0000000140005e30 f i LIBCMT:guard_support.obj
 0001:00004e40       ?_Osfx@?$basic_ostream@DU?$char_traits@D@std@@@std@@QEAAXXZ 0000000140005e40 f i WavFile.obj
 0001:00004ef0       ?_Pnavail@?$basic_streambuf@DU?$char_traits@D@std@@@std@@IEBA_JXZ 0000000140005ef0 f i WavFile.obj
 0001:00004f10       ?_Rep@?$num_put@DV?$ostreambuf_iterator@DU?$char_traits@D@std@@@std@@@std@@AEBA?AV?$ostreambuf_iterator@DU?$char_traits@D@std@@@2@V32@D_K@Z 0000000140005f10 f i WavFile.obj
 0001:00004fc0       ?_Throw_bad_cast@std@@YAXXZ 0000000140005fc0 f i WavFile.obj
 0001:00004fe0       ?allocate@?$allocator@D@std@@QEAAPEAD_K@Z 0000000140005fe0 f i WavFile.obj
 0001:00005040       ?clear@ios_base@std@@QEAAXH@Z 0000000140006040 f i WavFile.obj
 0001:000050c0       ?deallocate@?$allocator@D@std@@QEAAXQEAD_K@Z 00000001400060c0 f i WavFile.obj
 0001:00005100       ?default_error_condition@error_category@std@@UEBA?AVerror_condition@2@H@Z 0000000140006100 f i WavFile.obj
 0001:00005110       ?do_decimal_point@?$numpunct@D@std@@MEBADXZ 0000000140006110 f i WavFile.obj
 0001:00005120       ?do_falsename@?$numpunct@D@std@@MEBA?AV?$basic_string@DU?$char_traits@D@std@@V?$allocator@D@2@@2@XZ 0000000140006120 f i WavFile.obj
 0001:00005170       ?do_grouping@?$numpunct@D@std@@MEBA?AV?$basic_string@DU?$char_traits@D@std@@V?$allocator@D@2@@2@XZ 0000000140006170 f i WavFile.obj
 0001:000051c0       ?do_widen@?$ctype@D@std@@MEBADD@Z 00000001400061c0 f i WavFile.obj
 0001:000051c0       ?do_narrow@?$ctype@D@std@@MEBADDD@Z 00000001400061c0 f i WavFile.obj
 0001:000051d0       ?do_narrow@?$ctype@D@std@@MEBAPEBDPEBD0DPEAD@Z 00000001400061d0 f i WavFile.obj
 0001:000051f0       ?do_put@?$num_put@DV?$ostreambuf_iterator@DU?$char_traits@D@std@@@std@@@std@@MEBA?AV?$ostreambuf_iterator@DU?$char_traits@D@std@@@2@V32@AEAVios_base@2@DJ@Z 00000001400061f0 f i WavFile.obj
 0001:00005310       ?do_put@?$num_put@DV?$ostreambuf_iterator@DU?$char_traits@D@std@@@std@@@std@@MEBA?AV?$ostreambuf_iterator@DU?$char_traits@D@std@@@2@V32@AEAVios_base@2@DK@Z 0000000140006310 f i WavFile.obj
 0001:00005430       ?do_put@?$num_put@DV?$ostreambuf_iterator@DU?$char_traits@D@std@@@std@@@std@@MEBA?AV?$ostreambuf_iterator@DU?$char_traits@D@std@@@2@V32@AEAVios_base@2@DN@Z 0000000140006430 f i WavFile.obj
 0001:000056e0       ?do_put@?$num_put@DV?$ostreambuf_iterator@DU?$char_traits@D@std@@@std@@@std@@MEBA?AV?$ostreambuf_iterator@DU?$char_traits@D@std@@@2@V32@AEAVios_base@2@DO@Z 00000001400066e0 f i WavFile.obj
 0001:000059a0       ?do_put@?$num_put@DV?$ostreambuf_iterator@DU?$char_traits@D@std@@@std@@@std@@MEBA?AV?$ostreambuf_iterator@DU?$char_traits@D@std@@@2@V32@AEAVios_base@2@DPEBX@Z 00000001400069a0 f i WavFile.obj
 0001:00005a40       ?do_put@?$num_put@DV?$ostreambuf_iterator@DU?$char_traits@D@std@@@std@@@std@@MEBA?AV?$ostreambuf_iterator@DU?$char_traits@D@std@@@2@V32@AEAVios_base@2@D_J@Z 0000000140006a40 f i WavFile.obj
 0001:00005b60       ?do_put@?$num_put@DV?$ostreambuf_iterator@DU?$char_traits@D@std@@@std@@@std@@MEBA?AV?$ostreambuf_iterator@DU?$char_traits@D@std@@@2@V32@AEAVios_base@2@D_K@Z 0000000140006b60 f i WavFile.obj
 0001:00005c80       ?do_put@?$num_put@DV?$ostreambuf_iterator@DU?$char_traits@D@std@@@std@@@std@@MEBA?AV?$ostreambuf_iterator@DU?$char_traits@D@std@@@2@V32@AEAVios_base@2@D_N@Z 0000000140006c80 f i WavFile.obj
 0001:00005f20       ?do_thousands_sep@?$numpunct@D@std@@MEBADXZ 0000000140006f20 f i WavFile.obj
 0001:00005f30       ?do_tolower@?$ctype@D@std@@MEBADD@Z 0000000140006f30 f i WavFile.obj
 0001:00005f40       ?do_tolower@?$ctype@D@std@@MEBAPEBDPEADPEBD@Z 0000000140006f40 f i WavFile.obj
 0001:00005f90       ?do_toupper@?$ctype@D@std@@MEBADD@Z 0000000140006f90 f i WavFile.obj
 0001:00005fa0       ?do_toupper@?$ctype@D@std@@MEBAPEBDPEADPEBD@Z 0000000140006fa0 f i WavFile.obj
 0001:00005ff0       ?do_truename@?$numpunct@D@std@@MEBA?AV?$basic_string@DU?$char_traits@D@std@@V?$allocator@D@2@@2@XZ 0000000140006ff0 f i WavFile.obj
 0001:00006040       ?do_widen@?$ctype@D@std@@MEBAPEBDPEBD0PEAD@Z 0000000140007040 f i WavFile.obj
 0001:00006060       ?eof@WavInFile@@QEBAHXZ    0000000140007060 f   WavFile.obj
 0001:00006090       ?equivalent@error_category@std@@UEBA_NAEBVerror_code@2@H@Z 0000000140007090 f i WavFile.obj
 0001:000060b0       ?equivalent@error_category@std@@UEBA_NHAEBVerror_condition@2@@Z 00000001400070b0 f i WavFile.obj
 0001:000060f0       ?getNumBits@WavInFile@@QEBAIXZ 00000001400070f0 f   WavFile.obj
 0001:00006100       ?getNumChannels@WavInFile@@QEBAIXZ 0000000140007100 f   WavFile.obj
 0001:00006110       ?getSampleRate@WavInFile@@QEBAIXZ 0000000140007110 f   WavFile.obj
 0001:00006120       ?init@WavInFile@@AEAAXXZ   0000000140007120 f   WavFile.obj
 0001:000061c0       ?make_error_code@std@@YA?AVerror_code@1@W4io_errc@1@@Z 00000001400071c0 f i WavFile.obj
 0001:00006220       ?message@_Iostream_error_category@std@@UEBA?AV?$basic_string@DU?$char_traits@D@std@@V?$allocator@D@2@@2@H@Z 0000000140007220 f i WavFile.obj
 0001:000062a0       ?name@_Iostream_error_category@std@@UEBAPEBDXZ 00000001400072a0 f i WavFile.obj
 0001:000062b0       ?underflow@?$basic_streambuf@DU?$char_traits@D@std@@@std@@MEAAHXZ 00000001400072b0 f i WavFile.obj
 0001:000062b0       ?overflow@?$basic_streambuf@DU?$char_traits@D@std@@@std@@MEAAHH@Z 00000001400072b0 f i WavFile.obj
 0001:000062b0       ?pbackfail@?$basic_streambuf@DU?$char_traits@D@std@@@std@@MEAAHH@Z 00000001400072b0 f i WavFile.obj
 0001:000062c0       ?overflow@?$basic_stringbuf@DU?$char_traits@D@std@@V?$allocator@D@2@@std@@MEAAHH@Z 00000001400072c0 f i WavFile.obj
 0001:00006480       ?pbackfail@?$basic_stringbuf@DU?$char_traits@D@std@@V?$allocator@D@2@@std@@MEAAHH@Z 0000000140007480 f i WavFile.obj
 0001:000064e0       ?read@WavInFile@@QEAAHPEAMH@Z 00000001400074e0 f   WavFile.obj
 0001:00006d50       ?readHeaderBlock@WavInFile@@AEAAHXZ 0000000140007d50 f   WavFile.obj
 0001:00006fb0       ?readWavHeaders@WavInFile@@AEAAHXZ 0000000140007fb0 f   WavFile.obj
 0001:000070a0       ?rewind@WavInFile@@QEAAXXZ 00000001400080a0 f   WavFile.obj
 0001:000070d0       ?seekoff@?$basic_streambuf@DU?$char_traits@D@std@@@std@@MEAA?AV?$fpos@U_Mbstatet@@@2@_JHH@Z 00000001400080d0 f i WavFile.obj
 0001:000070d0       ?seekpos@?$basic_streambuf@DU?$char_traits@D@std@@@std@@MEAA?AV?$fpos@U_Mbstatet@@@2@V32@H@Z 00000001400080d0 f i WavFile.obj
 0001:000070f0       ?seekoff@?$basic_stringbuf@DU?$char_traits@D@std@@V?$allocator@D@2@@std@@MEAA?AV?$fpos@U_Mbstatet@@@2@_JHH@Z 00000001400080f0 f i WavFile.obj
 0001:00007250       ?seekpos@?$basic_stringbuf@DU?$char_traits@D@std@@V?$allocator@D@2@@std@@MEAA?AV?$fpos@U_Mbstatet@@@2@V32@H@Z 0000000140008250 f i WavFile.obj
 0001:00007340       ?setbuf@?$basic_streambuf@DU?$char_traits@D@std@@@std@@MEAAPEAV12@PEAD_J@Z 0000000140008340 f i WavFile.obj
 0001:00007340       ?_Getal@?$vector@UBEAT@soundtouch@@V?$allocator@UBEAT@soundtouch@@@std@@@std@@AEAAAEAV?$allocator@UBEAT@soundtouch@@@2@XZ 0000000140008340 f i SoundTouch_x64:BPMDetect.obj
 0001:00007350       _get_startup_commit_mode   0000000140008350 f i LIBCMT:commit_mode.obj
 0001:00007350       __scrt_stub_for_initialize_mta 0000000140008350 f i LIBCMT:utility_desktop.obj
 0001:00007350       __scrt_exe_initialize_mta  0000000140008350 f i LIBCMT:utility_desktop.obj
 0001:00007350       _get_startup_thread_locale_mode 0000000140008350 f i LIBCMT:thread_locale.obj
 0001:00007350       _matherr                   0000000140008350 f i LIBCMT:matherr.obj
 0001:00007350       ?transposeMulti@InterpolateShannon@soundtouch@@MEAAHPEAMPEBMAEAH@Z 0000000140008350 f i SoundTouch_x64:InterpolateShannon.obj
 0001:00007350       __scrt_initialize_winrt    0000000140008350 f i LIBCMT:utility_desktop.obj
 0001:00007350       ?sync@?$basic_streambuf@DU?$char_traits@D@std@@@std@@MEAAHXZ 0000000140008350 f i WavFile.obj
 0001:00007350       ?showmanyc@?$basic_streambuf@DU?$char_traits@D@std@@@std@@MEAA_JXZ 0000000140008350 f i WavFile.obj
 0001:00007350       _get_startup_new_mode      0000000140008350 f i LIBCMT:new_mode.obj
 0001:00007360       ?str@?$basic_stringstream@DU?$char_traits@D@std@@V?$allocator@D@2@@std@@QEBA?AV?$basic_string@DU?$char_traits@D@std@@V?$allocator@D@2@@2@XZ 0000000140008360 f i WavFile.obj
 0001:00007400       ?uflow@?$basic_streambuf@DU?$char_traits@D@std@@@std@@MEAAHXZ 0000000140008400 f i WavFile.obj
 0001:00007440       ?underflow@?$basic_stringbuf@DU?$char_traits@D@std@@V?$allocator@D@2@@std@@MEAAHXZ 0000000140008440 f i WavFile.obj
 0001:000074b0       ?write@WavOutFile@@QEAAXPEBMH@Z 00000001400084b0 f   WavFile.obj
 0001:00007d20       ?writeHeader@WavOutFile@@AEAAXXZ 0000000140008d20 f   WavFile.obj
 0001:00007de0       ?xsgetn@?$basic_streambuf@DU?$char_traits@D@std@@@std@@MEAA_JPEAD_J@Z 0000000140008de0 f i WavFile.obj
 0001:00007e90       ?xsputn@?$basic_streambuf@DU?$char_traits@D@std@@@std@@MEAA_JPEBD_J@Z 0000000140008e90 f i WavFile.obj
 0001:00007f50       sprintf_s                  0000000140008f50 f i WavFile.obj
 0001:00007fb0       ??0SoundTouch@soundtouch@@QEAA@XZ 0000000140008fb0 f   SoundTouch_x64:SoundTouch.obj
 0001:00008050       ??1FIFOSamplePipe@soundtouch@@UEAA@XZ 0000000140009050 f i SoundTouch_x64:SoundTouch.obj
 0001:00008050       ??1FIFOProcessor@soundtouch@@MEAA@XZ 0000000140009050 f i SoundTouch_x64:SoundTouch.obj
 0001:00008060       ??1SoundTouch@soundtouch@@UEAA@XZ 0000000140009060 f   SoundTouch_x64:SoundTouch.obj
 0001:000080b0       ??_EFIFOSamplePipe@soundtouch@@UEAAPEAXI@Z 00000001400090b0 f i SoundTouch_x64:SoundTouch.obj
 0001:000080b0       ??_GFIFOSamplePipe@soundtouch@@UEAAPEAXI@Z 00000001400090b0 f i SoundTouch_x64:SoundTouch.obj
 0001:000080e0       ??_GSoundTouch@soundtouch@@UEAAPEAXI@Z 00000001400090e0 f i SoundTouch_x64:SoundTouch.obj
 0001:000080e0       ??_ESoundTouch@soundtouch@@UEAAPEAXI@Z 00000001400090e0 f i SoundTouch_x64:SoundTouch.obj
 0001:00008150       ?adjustAmountOfSamples@FIFOProcessor@soundtouch@@UEAAII@Z 0000000140009150 f i SoundTouch_x64:SoundTouch.obj
 0001:00008160       ?calcEffectiveRateAndTempo@SoundTouch@soundtouch@@AEAAXXZ 0000000140009160 f   SoundTouch_x64:SoundTouch.obj
 0001:00008260       ?clear@SoundTouch@soundtouch@@UEAAXXZ 0000000140009260 f   SoundTouch_x64:SoundTouch.obj
 0001:00008290       ?flush@SoundTouch@soundtouch@@QEAAXXZ 0000000140009290 f   SoundTouch_x64:SoundTouch.obj
 0001:00008370       ?getVersionString@SoundTouch@soundtouch@@SAPEBDXZ 0000000140009370 f   SoundTouch_x64:SoundTouch.obj
 0001:00008380       ?isEmpty@FIFOProcessor@soundtouch@@UEBAHXZ 0000000140009380 f i SoundTouch_x64:SoundTouch.obj
 0001:00008390       ?moveSamples@FIFOSamplePipe@soundtouch@@QEAAXAEAV12@@Z 0000000140009390 f i SoundTouch_x64:SoundTouch.obj
 0001:000083f0       ?numSamples@FIFOProcessor@soundtouch@@UEBAIXZ 00000001400093f0 f i SoundTouch_x64:SoundTouch.obj
 0001:00008400       ?numUnprocessedSamples@SoundTouch@soundtouch@@UEBAIXZ 0000000140009400 f   SoundTouch_x64:SoundTouch.obj
 0001:00008420       ?ptrBegin@FIFOProcessor@soundtouch@@MEAAPEAMXZ 0000000140009420 f i SoundTouch_x64:SoundTouch.obj
 0001:00008430       ?putSamples@SoundTouch@soundtouch@@UEAAXPEBMI@Z 0000000140009430 f   SoundTouch_x64:SoundTouch.obj
 0001:00008500       ?receiveSamples@FIFOProcessor@soundtouch@@UEAAII@Z 0000000140009500 f i SoundTouch_x64:SoundTouch.obj
 0001:00008510       ?receiveSamples@FIFOProcessor@soundtouch@@UEAAIPEAMI@Z 0000000140009510 f i SoundTouch_x64:SoundTouch.obj
 0001:00008520       ?receiveSamples@SoundTouch@soundtouch@@UEAAII@Z 0000000140009520 f   SoundTouch_x64:SoundTouch.obj
 0001:00008540       ?receiveSamples@SoundTouch@soundtouch@@UEAAIPEAMI@Z 0000000140009540 f   SoundTouch_x64:SoundTouch.obj
 0001:00008560       ?setChannels@SoundTouch@soundtouch@@QEAAXI@Z 0000000140009560 f   SoundTouch_x64:SoundTouch.obj
 0001:000085c0       ?setPitchSemiTones@SoundTouch@soundtouch@@QEAAXN@Z 00000001400095c0 f   SoundTouch_x64:SoundTouch.obj
 0001:000085f0       ?setRateChange@SoundTouch@soundtouch@@QEAAXN@Z 00000001400095f0 f   SoundTouch_x64:SoundTouch.obj
 0001:00008610       ?setSampleRate@SoundTouch@soundtouch@@QEAAXI@Z 0000000140009610 f   SoundTouch_x64:SoundTouch.obj
 0001:00008640       ?setSetting@SoundTouch@soundtouch@@QEAA_NHH@Z 0000000140009640 f   SoundTouch_x64:SoundTouch.obj
 0001:00008760       ?setTempoChange@SoundTouch@soundtouch@@QEAAXN@Z 0000000140009760 f   SoundTouch_x64:SoundTouch.obj
 0001:00008780       ??$_Emplace_reallocate@AEBUBEAT@soundtouch@@@?$vector@UBEAT@soundtouch@@V?$allocator@UBEAT@soundtouch@@@std@@@std@@QEAAPEAUBEAT@soundtouch@@QEAU23@AEBU23@@Z 0000000140009780 f i SoundTouch_x64:BPMDetect.obj
 0001:00008880       ??0BPMDetect@soundtouch@@QEAA@HH@Z 0000000140009880 f   SoundTouch_x64:BPMDetect.obj
 0001:00008aa0       ??1?$vector@UBEAT@soundtouch@@V?$allocator@UBEAT@soundtouch@@@std@@@std@@QEAA@XZ 0000000140009aa0 f i SoundTouch_x64:BPMDetect.obj
 0001:00008b00       ??1BPMDetect@soundtouch@@UEAA@XZ 0000000140009b00 f   SoundTouch_x64:BPMDetect.obj
 0001:00008bb0       ??_EBPMDetect@soundtouch@@UEAAPEAXI@Z 0000000140009bb0 f i SoundTouch_x64:BPMDetect.obj
 0001:00008bb0       ??_GBPMDetect@soundtouch@@UEAAPEAXI@Z 0000000140009bb0 f i SoundTouch_x64:BPMDetect.obj
 0001:00008c80       ?MAFilter@@YAXPEAMPEBMHHH@Z 0000000140009c80 f   SoundTouch_x64:BPMDetect.obj
 0001:00008e30       ?_Change_array@?$vector@UBEAT@soundtouch@@V?$allocator@UBEAT@soundtouch@@@std@@@std@@AEAAXQEAUBEAT@soundtouch@@_K1@Z 0000000140009e30 f i SoundTouch_x64:BPMDetect.obj
 0001:00008ec0       ?_Reallocate_exactly@?$vector@UBEAT@soundtouch@@V?$allocator@UBEAT@soundtouch@@@std@@@std@@AEAAX_K@Z 0000000140009ec0 f i SoundTouch_x64:BPMDetect.obj
 0001:00008f30       ?_Xlength@?$vector@UBEAT@soundtouch@@V?$allocator@UBEAT@soundtouch@@@std@@@std@@CAXXZ 0000000140009f30 f i SoundTouch_x64:BPMDetect.obj
 0001:00008f50       ?allocate@?$allocator@UBEAT@soundtouch@@@std@@QEAAPEAUBEAT@soundtouch@@_K@Z 0000000140009f50 f i SoundTouch_x64:BPMDetect.obj
 0001:00008fc0       ?deallocate@?$allocator@UBEAT@soundtouch@@@std@@QEAAXQEAUBEAT@soundtouch@@_K@Z 0000000140009fc0 f i SoundTouch_x64:BPMDetect.obj
 0001:00009010       ?getBpm@BPMDetect@soundtouch@@QEAAMXZ 000000014000a010 f   SoundTouch_x64:BPMDetect.obj
 0001:00009110       ?hamming@@YAXPEAMH@Z       000000014000a110 f   SoundTouch_x64:BPMDetect.obj
 0001:00009290       ?inputSamples@BPMDetect@soundtouch@@QEAAXPEBMH@Z 000000014000a290 f   SoundTouch_x64:BPMDetect.obj
 0001:00009480       ?removeBias@BPMDetect@soundtouch@@IEAAXXZ 000000014000a480 f   SoundTouch_x64:BPMDetect.obj
 0001:00009780       ?updateBeatPos@BPMDetect@soundtouch@@IEAAXH@Z 000000014000a780 f   SoundTouch_x64:BPMDetect.obj
 0001:00009d90       ?updateXCorr@BPMDetect@soundtouch@@IEAAXH@Z 000000014000ad90 f   SoundTouch_x64:BPMDetect.obj
 0001:0000a1a0       ??0AAFilter@soundtouch@@QEAA@I@Z 000000014000b1a0 f   SoundTouch_x64:AAFilter.obj
 0001:0000a1e0       ??1AAFilter@soundtouch@@QEAA@XZ 000000014000b1e0 f   SoundTouch_x64:AAFilter.obj
 0001:0000a200       ?calculateCoeffs@AAFilter@soundtouch@@IEAAXXZ 000000014000b200 f   SoundTouch_x64:AAFilter.obj
 0001:0000a450       ?evaluate@AAFilter@soundtouch@@QEBAIAEAVFIFOSampleBuffer@2@0@Z 000000014000b450 f   SoundTouch_x64:AAFilter.obj
 0001:0000a4f0       ?setCutoffFreq@AAFilter@soundtouch@@QEAAXN@Z 000000014000b4f0 f   SoundTouch_x64:AAFilter.obj
 0001:0000a500       ?setLength@AAFilter@soundtouch@@QEAAXI@Z 000000014000b500 f   SoundTouch_x64:AAFilter.obj
 0001:0000a510       ??0RateTransposer@soundtouch@@QEAA@XZ 000000014000b510 f   SoundTouch_x64:RateTransposer.obj
 0001:0000a620       ??0TransposerBase@soundtouch@@QEAA@XZ 000000014000b620 f   SoundTouch_x64:RateTransposer.obj
 0001:0000a650       ??1TransposerBase@soundtouch@@UEAA@XZ 000000014000b650 f   SoundTouch_x64:RateTransposer.obj
 0001:0000a660       ??_ERateTransposer@soundtouch@@UEAAPEAXI@Z 000000014000b660 f i SoundTouch_x64:RateTransposer.obj
 0001:0000a660       ??_GRateTransposer@soundtouch@@UEAAPEAXI@Z 000000014000b660 f i SoundTouch_x64:RateTransposer.obj
 0001:0000a700       ??_GTransposerBase@soundtouch@@UEAAPEAXI@Z 000000014000b700 f i SoundTouch_x64:RateTransposer.obj
 0001:0000a700       ??_ETransposerBase@soundtouch@@UEAAPEAXI@Z 000000014000b700 f i SoundTouch_x64:RateTransposer.obj
 0001:0000a730       ?clear@RateTransposer@soundtouch@@UEAAXXZ 000000014000b730 f   SoundTouch_x64:RateTransposer.obj
 0001:0000a760       ?enableAAFilter@RateTransposer@soundtouch@@QEAAX_N@Z 000000014000b760 f   SoundTouch_x64:RateTransposer.obj
 0001:0000a770       ?getAAFilter@RateTransposer@soundtouch@@QEAAPEAVAAFilter@2@XZ 000000014000b770 f   SoundTouch_x64:RateTransposer.obj
 0001:0000a780       ?isEmpty@RateTransposer@soundtouch@@UEBAHXZ 000000014000b780 f   SoundTouch_x64:RateTransposer.obj
 0001:0000a7b0       ?putSamples@RateTransposer@soundtouch@@UEAAXPEBMI@Z 000000014000b7b0 f   SoundTouch_x64:RateTransposer.obj
 0001:0000a870       ?setChannels@RateTransposer@soundtouch@@QEAAXH@Z 000000014000b870 f   SoundTouch_x64:RateTransposer.obj
 0001:0000a8f0       ?setChannels@TransposerBase@soundtouch@@UEAAXH@Z 000000014000b8f0 f   SoundTouch_x64:RateTransposer.obj
 0001:0000a900       ?setRate@RateTransposer@soundtouch@@UEAAXN@Z 000000014000b900 f   SoundTouch_x64:RateTransposer.obj
 0001:0000a950       ?setRate@TransposerBase@soundtouch@@UEAAXN@Z 000000014000b950 f   SoundTouch_x64:RateTransposer.obj
 0001:0000a960       ?transpose@TransposerBase@soundtouch@@UEAAHAEAVFIFOSampleBuffer@2@0@Z 000000014000b960 f   SoundTouch_x64:RateTransposer.obj
 0001:0000aa10       ??0TDStretch@soundtouch@@QEAA@XZ 000000014000ba10 f   SoundTouch_x64:TDStretch.obj
 0001:0000ac10       ??_GTDStretch@soundtouch@@UEAAPEAXI@Z 000000014000bc10 f i SoundTouch_x64:TDStretch.obj
 0001:0000ac10       ??_ETDStretch@soundtouch@@UEAAPEAXI@Z 000000014000bc10 f i SoundTouch_x64:TDStretch.obj
 0001:0000ac10       ??_GTDStretchSSE@soundtouch@@UEAAPEAXI@Z 000000014000bc10 f i SoundTouch_x64:TDStretch.obj
 0001:0000ac10       ??_ETDStretchSSE@soundtouch@@UEAAPEAXI@Z 000000014000bc10 f i SoundTouch_x64:TDStretch.obj
 0001:0000ac80       ?calcCrossCorr@TDStretch@soundtouch@@MEAANPEBM0AEAN@Z 000000014000bc80 f   SoundTouch_x64:TDStretch.obj
 0001:0000ad90       ?calcCrossCorrAccumulate@TDStretch@soundtouch@@MEAANPEBM0AEAN@Z 000000014000bd90 f   SoundTouch_x64:TDStretch.obj
 0001:0000aed0       ?calcSeqParameters@TDStretch@soundtouch@@IEAAXXZ 000000014000bed0 f   SoundTouch_x64:TDStretch.obj
 0001:0000afb0       ?clear@TDStretch@soundtouch@@UEAAXXZ 000000014000bfb0 f   SoundTouch_x64:TDStretch.obj
 0001:0000b000       ?clearInput@TDStretch@soundtouch@@QEAAXXZ 000000014000c000 f   SoundTouch_x64:TDStretch.obj
 0001:0000b040       ?enableQuickSeek@TDStretch@soundtouch@@QEAAX_N@Z 000000014000c040 f   SoundTouch_x64:TDStretch.obj
 0001:0000b050       ?getParameters@TDStretch@soundtouch@@QEBAXPEAH000@Z 000000014000c050 f   SoundTouch_x64:TDStretch.obj
 0001:0000b090       ?newInstance@TDStretch@soundtouch@@SAPEAV12@XZ 000000014000c090 f   SoundTouch_x64:TDStretch.obj
 0001:0000b100       ?overlapMono@TDStretch@soundtouch@@MEBAXPEAMPEBM@Z 000000014000c100 f   SoundTouch_x64:TDStretch.obj
 0001:0000b180       ?overlapMulti@TDStretch@soundtouch@@MEBAXPEAMPEBM@Z 000000014000c180 f   SoundTouch_x64:TDStretch.obj
 0001:0000b220       ?overlapStereo@TDStretch@soundtouch@@MEBAXPEAMPEBM@Z 000000014000c220 f   SoundTouch_x64:TDStretch.obj
 0001:0000b2d0       ?processSamples@TDStretch@soundtouch@@IEAAXXZ 000000014000c2d0 f   SoundTouch_x64:TDStretch.obj
 0001:0000b4d0       ?putSamples@TDStretch@soundtouch@@UEAAXPEBMI@Z 000000014000c4d0 f   SoundTouch_x64:TDStretch.obj
 0001:0000b500       ?seekBestOverlapPosition@TDStretch@soundtouch@@MEAAHPEBM@Z 000000014000c500 f   SoundTouch_x64:TDStretch.obj
 0001:0000b520       ?seekBestOverlapPositionFull@TDStretch@soundtouch@@MEAAHPEBM@Z 000000014000c520 f   SoundTouch_x64:TDStretch.obj
 0001:0000b660       ?seekBestOverlapPositionQuick@TDStretch@soundtouch@@MEAAHPEBM@Z 000000014000c660 f   SoundTouch_x64:TDStretch.obj
 0001:0000b8f0       ?setChannels@TDStretch@soundtouch@@QEAAXH@Z 000000014000c8f0 f   SoundTouch_x64:TDStretch.obj
 0001:0000ba60       ?setParameters@TDStretch@soundtouch@@QEAAXHHHH@Z 000000014000ca60 f   SoundTouch_x64:TDStretch.obj
 0001:0000bbb0       ?setTempo@TDStretch@soundtouch@@QEAAXN@Z 000000014000cbb0 f   SoundTouch_x64:TDStretch.obj
 0001:0000bc10       ??0FIFOSampleBuffer@soundtouch@@QEAA@H@Z 000000014000cc10 f   SoundTouch_x64:FIFOSampleBuffer.obj
 0001:0000bd10       ??1FIFOSampleBuffer@soundtouch@@UEAA@XZ 000000014000cd10 f   SoundTouch_x64:FIFOSampleBuffer.obj
 0001:0000bd50       ??_GFIFOSampleBuffer@soundtouch@@UEAAPEAXI@Z 000000014000cd50 f i SoundTouch_x64:FIFOSampleBuffer.obj
 0001:0000bd50       ??_EFIFOSampleBuffer@soundtouch@@UEAAPEAXI@Z 000000014000cd50 f i SoundTouch_x64:FIFOSampleBuffer.obj
 0001:0000bdb0       ?adjustAmountOfSamples@FIFOSampleBuffer@soundtouch@@UEAAII@Z 000000014000cdb0 f   SoundTouch_x64:FIFOSampleBuffer.obj
 0001:0000bdc0       ?clear@FIFOSampleBuffer@soundtouch@@UEAAXXZ 000000014000cdc0 f   SoundTouch_x64:FIFOSampleBuffer.obj
 0001:0000bdd0       ?ensureCapacity@FIFOSampleBuffer@soundtouch@@AEAAXI@Z 000000014000cdd0 f   SoundTouch_x64:FIFOSampleBuffer.obj
 0001:0000bf10       ?isEmpty@FIFOSampleBuffer@soundtouch@@UEBAHXZ 000000014000cf10 f   SoundTouch_x64:FIFOSampleBuffer.obj
 0001:0000bf20       ?numSamples@FIFOSampleBuffer@soundtouch@@UEBAIXZ 000000014000cf20 f   SoundTouch_x64:FIFOSampleBuffer.obj
 0001:0000bf30       ?ptrBegin@FIFOSampleBuffer@soundtouch@@UEAAPEAMXZ 000000014000cf30 f   SoundTouch_x64:FIFOSampleBuffer.obj
 0001:0000bf40       ?ptrEnd@FIFOSampleBuffer@soundtouch@@QEAAPEAMI@Z 000000014000cf40 f   SoundTouch_x64:FIFOSampleBuffer.obj
 0001:0000bf70       ?putSamples@FIFOSampleBuffer@soundtouch@@UEAAXI@Z 000000014000cf70 f   SoundTouch_x64:FIFOSampleBuffer.obj
 0001:0000bfa0       ?putSamples@FIFOSampleBuffer@soundtouch@@UEAAXPEBMI@Z 000000014000cfa0 f   SoundTouch_x64:FIFOSampleBuffer.obj
 0001:0000c000       ?receiveSamples@FIFOSampleBuffer@soundtouch@@UEAAII@Z 000000014000d000 f   SoundTouch_x64:FIFOSampleBuffer.obj
 0001:0000c020       ?receiveSamples@FIFOSampleBuffer@soundtouch@@UEAAIPEAMI@Z 000000014000d020 f   SoundTouch_x64:FIFOSampleBuffer.obj
 0001:0000c090       ?setChannels@FIFOSampleBuffer@soundtouch@@QEAAXH@Z 000000014000d090 f   SoundTouch_x64:FIFOSampleBuffer.obj
 0001:0000c0e0       ??0PeakFinder@soundtouch@@QEAA@XZ 000000014000d0e0 f   SoundTouch_x64:PeakFinder.obj
 0001:0000c0f0       ?calcMassCenter@PeakFinder@soundtouch@@IEBANPEBMHH@Z 000000014000d0f0 f   SoundTouch_x64:PeakFinder.obj
 0001:0000c2d0       ?detectPeak@PeakFinder@soundtouch@@QEAANPEBMHH@Z 000000014000d2d0 f   SoundTouch_x64:PeakFinder.obj
 0001:0000c600       ?findGround@PeakFinder@soundtouch@@IEBAHPEBMHH@Z 000000014000d600 f   SoundTouch_x64:PeakFinder.obj
 0001:0000c6b0       ?getPeakCenter@PeakFinder@soundtouch@@IEBANPEBMH@Z 000000014000d6b0 f   SoundTouch_x64:PeakFinder.obj
 0001:0000c7d0       ??0FIRFilter@soundtouch@@QEAA@XZ 000000014000d7d0 f   SoundTouch_x64:FIRFilter.obj
 0001:0000c7f0       ??1FIRFilter@soundtouch@@UEAA@XZ 000000014000d7f0 f   SoundTouch_x64:FIRFilter.obj
 0001:0000c810       ??_GFIRFilter@soundtouch@@UEAAPEAXI@Z 000000014000d810 f i SoundTouch_x64:FIRFilter.obj
 0001:0000c810       ??_EFIRFilter@soundtouch@@UEAAPEAXI@Z 000000014000d810 f i SoundTouch_x64:FIRFilter.obj
 0001:0000c860       ?evaluate@FIRFilter@soundtouch@@QEAAIPEAMPEBMII@Z 000000014000d860 f   SoundTouch_x64:FIRFilter.obj
 0001:0000c890       ?evaluateFilterMono@FIRFilter@soundtouch@@MEBAIPEAMPEBMI@Z 000000014000d890 f   SoundTouch_x64:FIRFilter.obj
 0001:0000c9a0       ?evaluateFilterMulti@FIRFilter@soundtouch@@MEAAIPEAMPEBMII@Z 000000014000d9a0 f   SoundTouch_x64:FIRFilter.obj
 0001:0000cd80       ?evaluateFilterStereo@FIRFilter@soundtouch@@MEBAIPEAMPEBMI@Z 000000014000dd80 f   SoundTouch_x64:FIRFilter.obj
 0001:0000cf30       ?newInstance@FIRFilter@soundtouch@@SAPEAV12@XZ 000000014000df30 f   SoundTouch_x64:FIRFilter.obj
 0001:0000cfa0       ?setCoefficients@FIRFilter@soundtouch@@UEAAXPEBMII@Z 000000014000dfa0 f   SoundTouch_x64:FIRFilter.obj
 0001:0000d060       ??0InterpolateLinearFloat@soundtouch@@QEAA@XZ 000000014000e060 f   SoundTouch_x64:InterpolateLinear.obj
 0001:0000d0a0       ??_EInterpolateShannon@soundtouch@@UEAAPEAXI@Z 000000014000e0a0 f i SoundTouch_x64:InterpolateShannon.obj
 0001:0000d0a0       ??_GInterpolateLinearFloat@soundtouch@@UEAAPEAXI@Z 000000014000e0a0 f i SoundTouch_x64:InterpolateLinear.obj
 0001:0000d0a0       ??_GInterpolateShannon@soundtouch@@UEAAPEAXI@Z 000000014000e0a0 f i SoundTouch_x64:InterpolateShannon.obj
 0001:0000d0a0       ??_EInterpolateCubic@soundtouch@@UEAAPEAXI@Z 000000014000e0a0 f i SoundTouch_x64:InterpolateCubic.obj
 0001:0000d0a0       ??_EInterpolateLinearFloat@soundtouch@@UEAAPEAXI@Z 000000014000e0a0 f i SoundTouch_x64:InterpolateLinear.obj
 0001:0000d0a0       ??_GInterpolateCubic@soundtouch@@UEAAPEAXI@Z 000000014000e0a0 f i SoundTouch_x64:InterpolateCubic.obj
 0001:0000d0e0       ?resetRegisters@InterpolateShannon@soundtouch@@MEAAXXZ 000000014000e0e0 f   SoundTouch_x64:InterpolateShannon.obj
 0001:0000d0e0       ?resetRegisters@InterpolateLinearFloat@soundtouch@@MEAAXXZ 000000014000e0e0 f   SoundTouch_x64:InterpolateLinear.obj
 0001:0000d0e0       ?resetRegisters@InterpolateCubic@soundtouch@@MEAAXXZ 000000014000e0e0 f   SoundTouch_x64:InterpolateCubic.obj
 0001:0000d0f0       ?transposeMono@InterpolateLinearFloat@soundtouch@@MEAAHPEAMPEBMAEAH@Z 000000014000e0f0 f   SoundTouch_x64:InterpolateLinear.obj
 0001:0000d1a0       ?transposeMulti@InterpolateLinearFloat@soundtouch@@MEAAHPEAMPEBMAEAH@Z 000000014000e1a0 f   SoundTouch_x64:InterpolateLinear.obj
 0001:0000d2a0       ?transposeStereo@InterpolateLinearFloat@soundtouch@@MEAAHPEAMPEBMAEAH@Z 000000014000e2a0 f   SoundTouch_x64:InterpolateLinear.obj
 0001:0000d390       ??0InterpolateCubic@soundtouch@@QEAA@XZ 000000014000e390 f   SoundTouch_x64:InterpolateCubic.obj
 0001:0000d3c0       ?transposeMono@InterpolateCubic@soundtouch@@MEAAHPEAMPEBMAEAH@Z 000000014000e3c0 f   SoundTouch_x64:InterpolateCubic.obj
 0001:0000d530       ?transposeMulti@InterpolateCubic@soundtouch@@MEAAHPEAMPEBMAEAH@Z 000000014000e530 f   SoundTouch_x64:InterpolateCubic.obj
 0001:0000d720       ?transposeStereo@InterpolateCubic@soundtouch@@MEAAHPEAMPEBMAEAH@Z 000000014000e720 f   SoundTouch_x64:InterpolateCubic.obj
 0001:0000d8c0       ??0InterpolateShannon@soundtouch@@QEAA@XZ 000000014000e8c0 f   SoundTouch_x64:InterpolateShannon.obj
 0001:0000d8f0       ?transposeMono@InterpolateShannon@soundtouch@@MEAAHPEAMPEBMAEAH@Z 000000014000e8f0 f   SoundTouch_x64:InterpolateShannon.obj
 0001:0000dc40       ?transposeStereo@InterpolateShannon@soundtouch@@MEAAHPEAMPEBMAEAH@Z 000000014000ec40 f   SoundTouch_x64:InterpolateShannon.obj
 0001:0000e020       ?detectCPUextensions@@YAIXZ 000000014000f020 f   SoundTouch_x64:cpu_detect_x86.obj
 0001:0000e030       ??0FIRFilterSSE@soundtouch@@QEAA@XZ 000000014000f030 f   SoundTouch_x64:sse_optimized.obj
 0001:0000e060       ??_GFIRFilterSSE@soundtouch@@UEAAPEAXI@Z 000000014000f060 f i SoundTouch_x64:sse_optimized.obj
 0001:0000e060       ??_EFIRFilterSSE@soundtouch@@UEAAPEAXI@Z 000000014000f060 f i SoundTouch_x64:sse_optimized.obj
 0001:0000e0c0       ?calcCrossCorr@TDStretchSSE@soundtouch@@MEAANPEBM0AEAN@Z 000000014000f0c0 f   SoundTouch_x64:sse_optimized.obj
 0001:0000e200       ?calcCrossCorrAccumulate@TDStretchSSE@soundtouch@@MEAANPEBM0AEAN@Z 000000014000f200 f   SoundTouch_x64:sse_optimized.obj
 0001:0000e210       ?evaluateFilterStereo@FIRFilterSSE@soundtouch@@MEBAIPEAMPEBMI@Z 000000014000f210 f   SoundTouch_x64:sse_optimized.obj
 0001:0000e340       ?setCoefficients@FIRFilterSSE@soundtouch@@UEAAXPEBMII@Z 000000014000f340 f   SoundTouch_x64:sse_optimized.obj
 0001:0000e4ec       ??0bad_alloc@std@@QEAA@XZ  000000014000f4ec f i libcpmt:xthrow.obj
 0001:0000e50c       ??0length_error@std@@QEAA@AEBV01@@Z 000000014000f50c f i libcpmt:xthrow.obj
 0001:0000e548       ??0length_error@std@@QEAA@PEBD@Z 000000014000f548 f i libcpmt:xthrow.obj
 0001:0000e590       ??0logic_error@std@@QEAA@AEBV01@@Z 000000014000f590 f i libcpmt:xthrow.obj
 0001:0000e5cc       ??0out_of_range@std@@QEAA@AEBV01@@Z 000000014000f5cc f i libcpmt:xthrow.obj
 0001:0000e608       ??0out_of_range@std@@QEAA@PEBD@Z 000000014000f608 f i libcpmt:xthrow.obj
 0001:0000e650       ?_Xbad_alloc@std@@YAXXZ    000000014000f650 f   libcpmt:xthrow.obj
 0001:0000e650       ?__scrt_throw_std_bad_alloc@@YAXXZ 000000014000f650 f   LIBCMT:throw_bad_alloc.obj
 0001:0000e670       ?_Xlength_error@std@@YAXPEBD@Z 000000014000f670 f   libcpmt:xthrow.obj
 0001:0000e694       ?_Xout_of_range@std@@YAXPEBD@Z 000000014000f694 f   libcpmt:xthrow.obj
 0001:0000e6b8       ?_Xruntime_error@std@@YAXPEBD@Z 000000014000f6b8 f   libcpmt:xthrow.obj
 0001:0000e6dc       ??0_Init_locks@std@@QEAA@XZ 000000014000f6dc f   libcpmt:xlock.obj
 0001:0000e720       ??0_Lockit@std@@QEAA@H@Z   000000014000f720 f   libcpmt:xlock.obj
 0001:0000e75c       ??1_Init_locks@std@@QEAA@XZ 000000014000f75c f   libcpmt:xlock.obj
 0001:0000e798       ??1_Lockit@std@@QEAA@XZ    000000014000f798 f   libcpmt:xlock.obj
 0001:0000e7cc       ?uncaught_exception@std@@YA_NXZ 000000014000f7cc f   libcpmt:uncaught_exception.obj
 0001:0000e7d4       ?_Execute_once@std@@YAHAEAUonce_flag@1@P6AHPEAX1PEAPEAX@Z1@Z 000000014000f7d4 f   libcpmt:xonce.obj
 0001:0000e7dc       ?_Syserror_map@std@@YAPEBDH@Z 000000014000f7dc f   libcpmt:syserror.obj
 0001:0000e804       ??4?$_Yarn@D@std@@QEAAAEAV01@PEBD@Z 000000014000f804 f i libcpmt:locale0.obj
 0001:0000e87c       ??_E_Locimp@locale@std@@MEAAPEAXI@Z 000000014000f87c f i libcpmt:locale0.obj
 0001:0000e87c       ??_G_Locimp@locale@std@@MEAAPEAXI@Z 000000014000f87c f i libcpmt:locale0.obj
 0001:0000e8d8       ?_Facet_Register@std@@YAXPEAV_Facet_base@1@@Z 000000014000f8d8 f   libcpmt:locale0.obj
 0001:0000e910       ?_Getgloballocale@locale@std@@CAPEAV_Locimp@12@XZ 000000014000f910 f   libcpmt:locale0.obj
 0001:0000e918       ?_Init@locale@std@@CAPEAV_Locimp@12@_N@Z 000000014000f918 f   libcpmt:locale0.obj
 0001:0000e9c4       ?_Locimp_dtor@_Locimp@locale@std@@CAXPEAV123@@Z 000000014000f9c4 f   libcpmt:locale0.obj
 0001:0000ea40       ?_Locinfo_ctor@_Locinfo@std@@SAXPEAV12@PEBD@Z 000000014000fa40 f   libcpmt:locale0.obj
 0001:0000eaac       ?_Locinfo_dtor@_Locinfo@std@@SAXPEAV12@@Z 000000014000faac f   libcpmt:locale0.obj
 0001:0000eac8       ?_New_Locimp@_Locimp@locale@std@@CAPEAV123@_N@Z 000000014000fac8 f   libcpmt:locale0.obj
 0001:0000eb38       ?_Setgloballocale@locale@std@@CAXPEAX@Z 000000014000fb38 f   libcpmt:locale0.obj
 0001:0000eb6c       _Deletegloballocale        000000014000fb6c f   libcpmt:locale0.obj
 0001:0000ebdc       _Getctype                  000000014000fbdc f   libcpmt:_tolower.obj
 0001:0000ec9c       _Tolower                   000000014000fc9c f   libcpmt:_tolower.obj
 0001:0000edcc       _Getcvt                    000000014000fdcc f   libcpmt:xwctomb.obj
 0001:0000ee64       _Toupper                   000000014000fe64 f   libcpmt:_toupper.obj
 0001:0000efa4       ?_Addstd@ios_base@std@@SAXPEAV12@@Z 000000014000ffa4 f   libcpmt:ios.obj
 0001:0000f01c       ?_Ios_base_dtor@ios_base@std@@CAXPEAV12@@Z 000000014001001c f   libcpmt:ios.obj
 0001:0000f094       ?_Tidy@ios_base@std@@AEAAXXZ 0000000140010094 f i libcpmt:ios.obj
 0001:0000f120       _Mtxdst                    0000000140010120 f   libcpmt:xmtx.obj
 0001:0000f128       _Mtxinit                   0000000140010128 f   libcpmt:xmtx.obj
 0001:0000f138       _Mtxlock                   0000000140010138 f   libcpmt:xmtx.obj
 0001:0000f140       _Mtxunlock                 0000000140010140 f   libcpmt:xmtx.obj
 0001:0000f500       __crtInitOnceExecuteOnce   0000000140010500 f   libcpmt:winapisupp.obj
 0001:0000f5c8       __crtInitializeCriticalSectionEx 00000001400105c8 f   libcpmt:winapisupp.obj
 0001:0000f5f4       ?_Atexit@@YAXP6AXXZ@Z      00000001400105f4 f   libcpmt:iosptrs.obj
 0001:0000f630       __crtLCMapStringA          0000000140010630 f   libcpmt:StlLCMapStringA.obj
 0001:0000f8d8       GetTableIndexFromLocaleName 00000001400108d8 f   libcpmt:winapinls.obj
 0001:0000f968       __crtDownlevelLocaleNameToLCID 0000000140010968 f   libcpmt:winapinls.obj
 0001:0000f99c       __crtLCMapStringEx         000000014001099c f   libcpmt:winapinls.obj
 0001:0000fa30       __wcsnicmp_ascii           0000000140010a30 f   libcpmt:winapinls.obj
 0001:0000fa98       ??2@YAPEAX_K@Z             0000000140010a98 f   LIBCMT:new_scalar.obj
 0001:0000fad4       ??3@YAXPEAX_K@Z            0000000140010ad4 f   LIBCMT:delete_scalar_size.obj
 0001:0000fad4       ??_V@YAXPEAX@Z             0000000140010ad4 f   LIBCMT:delete_array.obj
 0001:0000fadc       __GSHandlerCheck           0000000140010adc f   LIBCMT:gshandler.obj
 0001:0000fafc       __GSHandlerCheckCommon     0000000140010afc f   LIBCMT:gshandler.obj
 0001:0000fb58       __GSHandlerCheck_EH4       0000000140010b58 f   LIBCMT:gshandlereh4.obj
 0001:0000fbf0       __chkstk                   0000000140010bf0 f   LIBCMT:chkstk.obj
 0001:0000fbf0       _alloca_probe              0000000140010bf0 f   LIBCMT:chkstk.obj
 0001:0000fc60       __security_check_cookie    0000000140010c60 f   LIBCMT:amdsecgs.obj
 0001:0000fc84       ??_Gtype_info@@UEAAPEAXI@Z 0000000140010c84 f i LIBCMT:std_type_info_static.obj
 0001:0000fc84       ??_Etype_info@@UEAAPEAXI@Z 0000000140010c84 f i LIBCMT:std_type_info_static.obj
 0001:0000fcb0       ??_U@YAPEAX_K@Z            0000000140010cb0 f   LIBCMT:new_array.obj
 0001:0000ff18       mainCRTStartup             0000000140010f18 f   LIBCMT:exe_main.obj
 0001:0000ff30       __vdecl_cos2               0000000140010f30 f   LIBCMT:svml_dcos2_dispatch.obj
 0001:0000ff44       __scrt_acquire_startup_lock 0000000140010f44 f   LIBCMT:utility.obj
 0001:0000ff80       __scrt_initialize_crt      0000000140010f80 f   LIBCMT:utility.obj
 0001:0000ffcc       __scrt_initialize_onexit_tables 0000000140010fcc f   LIBCMT:utility.obj
 0001:00010058       __scrt_is_nonwritable_in_current_image 0000000140011058 f   LIBCMT:utility.obj
 0001:000100f0       __scrt_release_startup_lock 00000001400110f0 f   LIBCMT:utility.obj
 0001:00010114       __scrt_uninitialize_crt    0000000140011114 f   LIBCMT:utility.obj
 0001:00010140       _onexit                    0000000140011140 f   LIBCMT:utility.obj
 0001:0001017c       atexit                     000000014001117c f   LIBCMT:utility.obj
 0001:00010194       __GSHandlerCheck_EH        0000000140011194 f   LIBCMT:gshandlereh.obj
 0001:00010214       ??3@YAXPEAX@Z              0000000140011214 f   LIBCMT:delete_scalar.obj
 0001:0001021c       __raise_securityfailure    000000014001121c f   LIBCMT:gs_report.obj
 0001:00010250       __report_gsfailure         0000000140011250 f   LIBCMT:gs_report.obj
 0001:00010324       __report_rangecheckfailure 0000000140011324 f   LIBCMT:gs_report.obj
 0001:00010338       __report_securityfailure   0000000140011338 f   LIBCMT:gs_report.obj
 0001:000104b8       __security_init_cookie     00000001400114b8 f   LIBCMT:gs_support.obj
 0001:00010564       _get_startup_argv_mode     0000000140011564 f   LIBCMT:argv_mode.obj
 0001:0001056c       _get_startup_file_mode     000000014001156c f   LIBCMT:file_mode.obj
 0001:00010574       ?__scrt_initialize_type_info@@YAXXZ 0000000140011574 f   LIBCMT:tncleanup.obj
 0001:00010584       __acrt_uninitialize_command_line 0000000140011584 f   libucrt:argv_data.obj
 0001:00010584       _should_initialize_environment 0000000140011584 f   LIBCMT:env_mode.obj
 0001:00010588       __local_stdio_scanf_options 0000000140011588 f i LIBCMT:default_local_stdio_options.obj
 0001:00010590       __scrt_initialize_default_local_stdio_options 0000000140011590 f   LIBCMT:default_local_stdio_options.obj
 0001:000105ac       __scrt_is_user_matherr_present 00000001400115ac f   LIBCMT:matherr_detection.obj
 0001:000105b8       __scrt_get_dyn_tls_init_callback 00000001400115b8 f   LIBCMT:dyn_tls_init.obj
 0001:000105c0       __scrt_get_dyn_tls_dtor_callback 00000001400115c0 f   LIBCMT:dyn_tls_dtor.obj
 0001:000105c8       __crt_debugger_hook        00000001400115c8 f   LIBCMT:utility_desktop.obj
 0001:000105d0       __scrt_fastfail            00000001400115d0 f   LIBCMT:utility_desktop.obj
 0001:0001071c       __scrt_initialize_mta      000000014001171c f   LIBCMT:utility_desktop.obj
 0001:00010724       __scrt_is_managed_app      0000000140011724 f   LIBCMT:utility_desktop.obj
 0001:00010778       __scrt_set_unhandled_exception_filter 0000000140011778 f   LIBCMT:utility_desktop.obj
 0001:00010788       __scrt_unhandled_exception_filter 0000000140011788 f   LIBCMT:utility_desktop.obj
 0001:000107e4       _RTC_Initialize            00000001400117e4 f   LIBCMT:initsect.obj
 0001:00010820       _RTC_Terminate             0000000140011820 f   LIBCMT:initsect.obj
 0001:0001085c       __isa_available_init       000000014001185c f   LIBCMT:cpu_disp.obj
 0001:00010a00       __sse2_cos2@@16            0000000140011a00 f   LIBCMT:svml_dcos2_sse2.obj
 0001:000110b0       __sse4_cos2@@16            00000001400120b0 f   LIBCMT:svml_dcos2_sse4.obj
 0001:00011754       __scrt_is_ucrt_dll_in_use  0000000140012754 f   LIBCMT:ucrt_detection.obj
 0001:00011760       __common_dcos_cout_rare    0000000140012760 f   LIBCMT:svml_d_cos_cout.obj
 0001:000117d0       ??$_CallSETranslator@V__FrameHandler3@@@@YAHPEAUEHExceptionRecord@@PEA_KPEAU_CONTEXT@@PEAU_xDISPATCHER_CONTEXT@@PEBU_s_FuncInfo@@K1@Z 00000001400127d0 f i libvcruntime:risctrnsctrl.obj
 0001:00011824       ??$_CallSETranslator@V__FrameHandler4@@@@YAHPEAUEHExceptionRecord@@PEA_KPEAU_CONTEXT@@PEAU_xDISPATCHER_CONTEXT@@PEAUFuncInfo4@FH4@@K1@Z 0000000140012824 f i libvcruntime:risctrnsctrl.obj
 0001:00011878       ?CatchTryBlock@__FrameHandler3@@SAPEBU_s_TryBlockMapEntry@@PEBU_s_FuncInfo@@H@Z 0000000140012878 f   libvcruntime:risctrnsctrl.obj
 0001:000118cc       ?DecompFuncInfo@FH4@@YA_JPEAEAEAUFuncInfo4@1@_KH_N@Z 00000001400128cc f i libvcruntime:risctrnsctrl.obj
 0001:000119f0       ?ExecutionInCatch@__FrameHandler3@@SA_NPEAU_xDISPATCHER_CONTEXT@@PEBU_s_FuncInfo@@@Z 00000001400129f0 f   libvcruntime:risctrnsctrl.obj
 0001:00011a1c       ?ExecutionInCatch@__FrameHandler4@@SA_NPEAU_xDISPATCHER_CONTEXT@@PEAUFuncInfo4@FH4@@@Z 0000000140012a1c f   libvcruntime:risctrnsctrl.obj
 0001:00011a24       ?FrameUnwindToEmptyState@__FrameHandler3@@SAXPEA_KPEAU_xDISPATCHER_CONTEXT@@PEBU_s_FuncInfo@@@Z 0000000140012a24 f   libvcruntime:risctrnsctrl.obj
 0001:00011a88       ?FrameUnwindToEmptyState@__FrameHandler4@@SAXPEA_KPEAU_xDISPATCHER_CONTEXT@@PEAUFuncInfo4@FH4@@@Z 0000000140012a88 f   libvcruntime:risctrnsctrl.obj
 0001:00011abc       ?GetEstablisherFrame@__FrameHandler3@@SAPEA_KPEA_KPEAU_xDISPATCHER_CONTEXT@@PEBU_s_FuncInfo@@0@Z 0000000140012abc f   libvcruntime:risctrnsctrl.obj
 0001:00011b88       ?GetEstablisherFrame@__FrameHandler4@@SAPEA_KPEA_KPEAU_xDISPATCHER_CONTEXT@@PEAUFuncInfo4@FH4@@0@Z 0000000140012b88 f   libvcruntime:risctrnsctrl.obj
 0001:00011bac       ?GetRangeOfTrysToCheck@__FrameHandler3@@SA?AU?$pair@Viterator@TryBlockMap@__FrameHandler3@@V123@@std@@AEAVTryBlockMap@1@HPEAU_xDISPATCHER_CONTEXT@@PEBU_s_FuncInfo@@H@Z 0000000140012bac f   libvcruntime:risctrnsctrl.obj
 0001:00011cec       ?GetRangeOfTrysToCheck@__FrameHandler4@@SA?AU?$pair@Viterator@TryBlockMap4@FH4@@V123@@std@@AEAVTryBlockMap4@FH4@@HPEAU_xDISPATCHER_CONTEXT@@PEAUFuncInfo4@5@H@Z 0000000140012cec f   libvcruntime:risctrnsctrl.obj
 0001:00011e44       ?UnwindNestedFrames@__FrameHandler3@@SAXPEA_KPEAUEHExceptionRecord@@PEAU_CONTEXT@@0PEAXPEBU_s_FuncInfo@@HHPEBU_s_HandlerType@@PEAU_xDISPATCHER_CONTEXT@@E@Z 0000000140012e44 f   libvcruntime:risctrnsctrl.obj
 0001:00011f48       ?UnwindNestedFrames@__FrameHandler4@@SAXPEA_KPEAUEHExceptionRecord@@PEAU_CONTEXT@@0PEAXPEAUFuncInfo4@FH4@@HHPEAUHandlerType4@5@PEAU_xDISPATCHER_CONTEXT@@E@Z 0000000140012f48 f   libvcruntime:risctrnsctrl.obj
 0001:00012088       ?setBuffer@TryBlockMap4@FH4@@QEAAXViterator@12@@Z 0000000140013088 f i libvcruntime:risctrnsctrl.obj
 0001:0001224c       _CreateFrameInfo           000000014001324c f   libvcruntime:risctrnsctrl.obj
 0001:00012288       _FindAndUnlinkFrame        0000000140013288 f   libvcruntime:risctrnsctrl.obj
 0001:000122dc       _GetImageBase              00000001400132dc f   libvcruntime:risctrnsctrl.obj
 0001:000122f0       _GetThrowImageBase         00000001400132f0 f   libvcruntime:risctrnsctrl.obj
 0001:00012304       _SetImageBase              0000000140013304 f   libvcruntime:risctrnsctrl.obj
 0001:0001231c       _SetThrowImageBase         000000014001331c f   libvcruntime:risctrnsctrl.obj
 0001:00012334       __CxxFrameHandler3         0000000140013334 f   libvcruntime:risctrnsctrl.obj
 0001:000123bc       __CxxFrameHandler4         00000001400133bc f   libvcruntime:risctrnsctrl.obj
 0001:0001247c       __std_exception_copy       000000014001347c f   libvcruntime:std_exception.obj
 0001:0001250c       __std_exception_destroy    000000014001350c f   libvcruntime:std_exception.obj
 0001:00012534       _CxxThrowException         0000000140013534 f   libvcruntime:throw.obj
 0001:000125f0       memchr                     00000001400135f0 f   libvcruntime:memchr.obj
 0001:00012670       memcpy_repmovs             0000000140013670 f   libvcruntime:memcpy.obj
 0001:00012690       memmove                    0000000140013690 f   libvcruntime:memcpy.obj
 0001:00012690       memcpy                     0000000140013690 f   libvcruntime:memcpy.obj
 0001:00012a68       _get_purecall_handler      0000000140013a68 f   libvcruntime:purevirt.obj
 0001:00012a70       _purecall                  0000000140013a70 f   libvcruntime:purevirt.obj
 0001:00012a8c       __DestructExceptionObject  0000000140013a8c f   libvcruntime:ehhelpers.obj
 0001:00012afc       ?_CallMemberFunction0@@YAXQEAX0@Z 0000000140013afc f i libvcruntime:ehhelpers.obj
 0001:00012b00       _IsExceptionObjectToBeDestroyed 0000000140013b00 f   libvcruntime:ehhelpers.obj
 0001:00012b30       __AdjustPointer            0000000140013b30 f   libvcruntime:ehhelpers.obj
 0001:00012b54       __FrameUnwindFilter        0000000140013b54 f   libvcruntime:ehhelpers.obj
 0001:00012bbc       __current_exception        0000000140013bbc f   libvcruntime:ehhelpers.obj
 0001:00012bd0       __current_exception_context 0000000140013bd0 f   libvcruntime:ehhelpers.obj
 0001:00012be4       __std_terminate            0000000140013be4 f   libvcruntime:ehhelpers.obj
 0001:00012c00       memset_repmovs             0000000140013c00 f   libvcruntime:memset.obj
 0001:00012c20       memset                     0000000140013c20 f   libvcruntime:memset.obj
 0001:00012db0       __uncaught_exception       0000000140013db0 f   libvcruntime:uncaught_exception.obj
 0001:00012de0       memcmp                     0000000140013de0 f   libvcruntime:memcmp.obj
 0001:00012ea8       __C_specific_handler       0000000140013ea8 f   libvcruntime:riscchandler.obj
 0001:000130b4       __vcrt_initialize          00000001400140b4 f   libvcruntime:initialization.obj
 0001:000130dc       __vcrt_uninitialize        00000001400140dc f   libvcruntime:initialization.obj
 0001:000130f8       __std_type_info_compare    00000001400140f8 f   libvcruntime:std_type_info.obj
 0001:00013120       __vcrt_freefls             0000000140014120 f   libvcruntime:per_thread_data.obj
 0001:00013140       __vcrt_getptd              0000000140014140 f   libvcruntime:per_thread_data.obj
 0001:0001315c       __vcrt_getptd_noexit       000000014001415c f   libvcruntime:per_thread_data.obj
 0001:0001321c       __vcrt_getptd_noinit       000000014001421c f   libvcruntime:per_thread_data.obj
 0001:0001326c       __vcrt_initialize_ptd      000000014001426c f   libvcruntime:per_thread_data.obj
 0001:000132b4       __vcrt_uninitialize_ptd    00000001400142b4 f   libvcruntime:per_thread_data.obj
 0001:000132d8       ?GetCurrentState@__FrameHandler3@@SAHPEA_KPEAU_xDISPATCHER_CONTEXT@@PEBU_s_FuncInfo@@@Z 00000001400142d8 f   libvcruntime:ehstate.obj
 0001:00013300       ?GetUnwindTryBlock@__FrameHandler3@@SAHPEA_KPEAU_xDISPATCHER_CONTEXT@@PEBU_s_FuncInfo@@@Z 0000000140014300 f   libvcruntime:ehstate.obj
 0001:0001332c       ?SetState@__FrameHandler3@@SAXPEA_KPEBU_s_FuncInfo@@H@Z 000000014001432c f   libvcruntime:ehstate.obj
 0001:00013338       ?SetUnwindTryBlock@__FrameHandler3@@SAXPEA_KPEAU_xDISPATCHER_CONTEXT@@PEBU_s_FuncInfo@@H@Z 0000000140014338 f   libvcruntime:ehstate.obj
 0001:00013374       ?StateFromControlPc@__FrameHandler3@@SAHPEBU_s_FuncInfo@@PEAU_xDISPATCHER_CONTEXT@@@Z 0000000140014374 f   libvcruntime:ehstate.obj
 0001:0001337c       ?StateFromControlPc@__FrameHandler4@@SAHPEAUFuncInfo4@FH4@@PEAU_xDISPATCHER_CONTEXT@@@Z 000000014001437c f   libvcruntime:ehstate.obj
 0001:00013384       ?StateFromIp@__FrameHandler3@@SAHPEBU_s_FuncInfo@@PEAU_xDISPATCHER_CONTEXT@@_K@Z 0000000140014384 f   libvcruntime:ehstate.obj
 0001:000133ec       ?StateFromIp@__FrameHandler4@@SAHPEAUFuncInfo4@FH4@@PEAU_xDISPATCHER_CONTEXT@@_K@Z 00000001400143ec f   libvcruntime:ehstate.obj
 0001:00014b18       ??$TypeMatchHelper@V__FrameHandler3@@@@YAHPEBU_s_HandlerType@@PEBU_s_CatchableType@@PEBU_s_ThrowInfo@@@Z 0000000140015b18 f i libvcruntime:frame.obj
 0001:00014c5c       ??$TypeMatchHelper@V__FrameHandler4@@@@YAHPEAUHandlerType4@FH4@@PEBU_s_CatchableType@@PEBU_s_ThrowInfo@@@Z 0000000140015c5c f i libvcruntime:frame.obj
 0001:00014da4       ??$__InternalCxxFrameHandler@V__FrameHandler3@@@@YA?AW4_EXCEPTION_DISPOSITION@@PEAUEHExceptionRecord@@PEA_KPEAU_CONTEXT@@PEAU_xDISPATCHER_CONTEXT@@PEBU_s_FuncInfo@@H1E@Z 0000000140015da4 f i libvcruntime:frame.obj
 0001:00014fec       ??$__InternalCxxFrameHandler@V__FrameHandler4@@@@YA?AW4_EXCEPTION_DISPOSITION@@PEAUEHExceptionRecord@@PEA_KPEAU_CONTEXT@@PEAU_xDISPATCHER_CONTEXT@@PEAUFuncInfo4@FH4@@H1E@Z 0000000140015fec f i libvcruntime:frame.obj
 0001:0001528c       ??0HandlerMap4@FH4@@QEAA@PEBUTryBlockMapEntry4@1@_KH@Z 000000014001628c f i libvcruntime:frame.obj
 0001:00015308       ??0TryBlockMap4@FH4@@QEAA@PEBUFuncInfo4@1@_K@Z 0000000140016308 f i libvcruntime:frame.obj
 0001:000153e0       ??0bad_exception@std@@QEAA@AEBV01@@Z 00000001400163e0 f i libvcruntime:frame.obj
 0001:0001541c       ??0bad_exception@std@@QEAA@XZ 000000014001641c f i libvcruntime:frame.obj
 0001:0001543c       ?CxxCallCatchBlock@__FrameHandler3@@SAPEAXPEAU_EXCEPTION_RECORD@@@Z 000000014001643c f   libvcruntime:frame.obj
 0001:00015628       ?CxxCallCatchBlock@__FrameHandler4@@SAPEAXPEAU_EXCEPTION_RECORD@@@Z 0000000140016628 f   libvcruntime:frame.obj
 0001:00015878       ?DecompHandler@HandlerMap4@FH4@@AEAAXXZ 0000000140016878 f i libvcruntime:frame.obj
 0001:00015ab8       ?FrameUnwindToState@__FrameHandler3@@SAXPEA_KPEAU_xDISPATCHER_CONTEXT@@PEBU_s_FuncInfo@@H@Z 0000000140016ab8 f   libvcruntime:frame.obj
 0001:00015c44       ?FrameUnwindToState@__FrameHandler4@@SAXPEA_KPEAU_xDISPATCHER_CONTEXT@@PEAUFuncInfo4@FH4@@H@Z 0000000140016c44 f   libvcruntime:frame.obj
 0001:00015f18       ?GetHandlerSearchState@__FrameHandler3@@SAHPEA_KPEAU_xDISPATCHER_CONTEXT@@PEBU_s_FuncInfo@@@Z 0000000140016f18 f i libvcruntime:frame.obj
 0001:00016128       ?ReadEntry@UWMap4@FH4@@AEAAXPEAPEAE@Z 0000000140017128 f i libvcruntime:frame.obj
 0001:000161c8       ?_CallMemberFunction1@@YAXQEAX00@Z 00000001400171c8 f i libvcruntime:frame.obj
 0001:000161d4       ?_CallMemberFunction2@@YAXQEAX00H@Z 00000001400171d4 f i libvcruntime:frame.obj
 0001:000161e4       ?getStartStop@UWMap4@FH4@@QEAAXHHAEAViterator@12@0@Z 00000001400171e4 f i libvcruntime:frame.obj
 0001:000162b4       ?getStateFromIterators@UWMap4@FH4@@SAHAEBViterator@12@H0H0@Z 00000001400172b4 f i libvcruntime:frame.obj
 0001:00016390       _NLG_Notify                0000000140017390 f   libvcruntime:notify.obj
 0001:000163b0       __NLG_Dispatch2            00000001400173b0 f   libvcruntime:notify.obj
 0001:000163c0       __NLG_Return2              00000001400173c0 f   libvcruntime:notify.obj
 0001:000163c4       __except_validate_context_record 00000001400173c4 f   libvcruntime:jbcxrval.obj
 0001:000163fc       __vcrt_initialize_locks    00000001400173fc f   libvcruntime:locks.obj
 0001:00016430       __vcrt_uninitialize_locks  0000000140017430 f   libvcruntime:locks.obj
 0001:000165c4       __vcrt_FlsAlloc            00000001400175c4 f   libvcruntime:winapi_downlevel.obj
 0001:0001660c       __vcrt_FlsFree             000000014001760c f   libvcruntime:winapi_downlevel.obj
 0001:00016654       __vcrt_FlsGetValue         0000000140017654 f   libvcruntime:winapi_downlevel.obj
 0001:0001669c       __vcrt_FlsSetValue         000000014001769c f   libvcruntime:winapi_downlevel.obj
 0001:000166f0       __vcrt_InitializeCriticalSectionEx 00000001400176f0 f   libvcruntime:winapi_downlevel.obj
 0001:00016770       _CallSettingFrame          0000000140017770 f   libvcruntime:handlers.obj
 0001:000167c0       _CallSettingFrame_LookupContinuationIndex 00000001400177c0 f   libvcruntime:handlers.obj
 0001:000167f0       _CallSettingFrame_NotifyContinuationAddr 00000001400177f0 f   libvcruntime:handlers.obj
 0001:00016820       _CallSettingFrameEncoded   0000000140017820 f   libvcruntime:handlers.obj
 0001:00016868       __acrt_initialize_stdio    0000000140017868 f   libucrt:_file.obj
 0001:00016988       __acrt_iob_func            0000000140017988 f   libucrt:_file.obj
 0001:0001699c       __acrt_uninitialize_stdio  000000014001799c f   libucrt:_file.obj
 0001:000169f8       _lock_file                 00000001400179f8 f   libucrt:_file.obj
 0001:00016a04       _unlock_file               0000000140017a04 f   libucrt:_file.obj
 0001:00016c2c       __acrt_stdio_flush_nolock  0000000140017c2c f   libucrt:fflush.obj
 0001:00016ca8       _fflush_nolock             0000000140017ca8 f   libucrt:fflush.obj
 0001:00016cf4       _flushall                  0000000140017cf4 f   libucrt:fflush.obj
 0001:00016cfc       fflush                     0000000140017cfc f   libucrt:fflush.obj
 0001:00016d64       _fileno                    0000000140017d64 f   libucrt:fileno.obj
 0001:00016f98       ??$ensure_buffer_is_big_enough@D@formatting_buffer@__crt_stdio_output@@QEAA_N_K@Z 0000000140017f98 f i libucrt:output.obj
 0001:00017040       ??$type_case_integer_parse_into_buffer@I@?$output_processor@DV?$stream_output_adapter@D@__crt_stdio_output@@V?$standard_base@DV?$stream_output_adapter@D@__crt_stdio_output@@@2@@__crt_stdio_output@@AEAAXII_N@Z 0000000140018040 f i libucrt:output.obj
 0001:00017040       ??$type_case_integer_parse_into_buffer@I@?$output_processor@DV?$string_output_adapter@D@__crt_stdio_output@@V?$format_validation_base@DV?$string_output_adapter@D@__crt_stdio_output@@@2@@__crt_stdio_output@@AEAAXII_N@Z 0000000140018040 f i libucrt:output.obj
 0001:000170c8       ??$type_case_integer_parse_into_buffer@_K@?$output_processor@DV?$stream_output_adapter@D@__crt_stdio_output@@V?$standard_base@DV?$stream_output_adapter@D@__crt_stdio_output@@@2@@__crt_stdio_output@@AEAAX_KI_N@Z 00000001400180c8 f i libucrt:output.obj
 0001:000170c8       ??$type_case_integer_parse_into_buffer@_K@?$output_processor@DV?$string_output_adapter@D@__crt_stdio_output@@V?$format_validation_base@DV?$string_output_adapter@D@__crt_stdio_output@@@2@@__crt_stdio_output@@AEAAX_KI_N@Z 00000001400180c8 f i libucrt:output.obj
 0001:00017158       ??$write_multiple_characters@V?$stream_output_adapter@D@__crt_stdio_output@@D@__crt_stdio_output@@YAXAEBV?$stream_output_adapter@D@0@DHQEAH@Z 0000000140018158 f i libucrt:output.obj
 0001:000171e4       ??$write_multiple_characters@V?$string_output_adapter@D@__crt_stdio_output@@D@__crt_stdio_output@@YAXAEBV?$string_output_adapter@D@0@DHQEAH@Z 00000001400181e4 f i libucrt:output.obj
 0001:0001725c       ??0_LocaleUpdate@@QEAA@QEAU__crt_locale_pointers@@@Z 000000014001825c f i libucrt:output.obj
 0001:000172f8       ??1_LocaleUpdate@@QEAA@XZ  00000001400182f8 f i libucrt:output.obj
 0001:0001743c       ?crop_zeroes@__crt_stdio_output@@YAXPEADQEAU__crt_locale_pointers@@@Z 000000014001843c f i libucrt:output.obj
 0001:000174a8       ?parse_int_from_format_string@?$output_processor@DV?$stream_output_adapter@D@__crt_stdio_output@@V?$standard_base@DV?$stream_output_adapter@D@__crt_stdio_output@@@2@@__crt_stdio_output@@AEAA_NQEAH@Z 00000001400184a8 f i libucrt:output.obj
 0001:000174a8       ?parse_int_from_format_string@?$output_processor@DV?$string_output_adapter@D@__crt_stdio_output@@V?$format_validation_base@DV?$string_output_adapter@D@__crt_stdio_output@@@2@@__crt_stdio_output@@AEAA_NQEAH@Z 00000001400184a8 f i libucrt:output.obj
 0001:0001754c       ?process@?$output_processor@DV?$stream_output_adapter@D@__crt_stdio_output@@V?$standard_base@DV?$stream_output_adapter@D@__crt_stdio_output@@@2@@__crt_stdio_output@@QEAAHXZ 000000014001854c f i libucrt:output.obj
 0001:00017764       ?process@?$output_processor@DV?$string_output_adapter@D@__crt_stdio_output@@V?$format_validation_base@DV?$string_output_adapter@D@__crt_stdio_output@@@2@@__crt_stdio_output@@QEAAHXZ 0000000140018764 f i libucrt:output.obj
 0001:0001797c       ?state_case_normal@?$output_processor@DV?$stream_output_adapter@D@__crt_stdio_output@@V?$standard_base@DV?$stream_output_adapter@D@__crt_stdio_output@@@2@@__crt_stdio_output@@AEAA_NXZ 000000014001897c f i libucrt:output.obj
 0001:000179ec       ?state_case_normal@?$output_processor@DV?$string_output_adapter@D@__crt_stdio_output@@V?$format_validation_base@DV?$string_output_adapter@D@__crt_stdio_output@@@2@@__crt_stdio_output@@AEAA_NXZ 00000001400189ec f i libucrt:output.obj
 0001:00017a60       ?state_case_normal_tchar@?$output_processor@DV?$stream_output_adapter@D@__crt_stdio_output@@V?$standard_base@DV?$stream_output_adapter@D@__crt_stdio_output@@@2@@__crt_stdio_output@@AEAA_ND@Z 0000000140018a60 f i libucrt:output.obj
 0001:00017b04       ?state_case_normal_tchar@?$output_processor@DV?$string_output_adapter@D@__crt_stdio_output@@V?$format_validation_base@DV?$string_output_adapter@D@__crt_stdio_output@@@2@@__crt_stdio_output@@AEAA_ND@Z 0000000140018b04 f i libucrt:output.obj
 0001:00017bac       ?state_case_size@?$output_processor@DV?$stream_output_adapter@D@__crt_stdio_output@@V?$standard_base@DV?$stream_output_adapter@D@__crt_stdio_output@@@2@@__crt_stdio_output@@AEAA_NXZ 0000000140018bac f i libucrt:output.obj
 0001:00017d20       ?state_case_size@?$output_processor@DV?$string_output_adapter@D@__crt_stdio_output@@V?$format_validation_base@DV?$string_output_adapter@D@__crt_stdio_output@@@2@@__crt_stdio_output@@AEAA_NXZ 0000000140018d20 f i libucrt:output.obj
 0001:00017e94       ?state_case_type@?$output_processor@DV?$stream_output_adapter@D@__crt_stdio_output@@V?$standard_base@DV?$stream_output_adapter@D@__crt_stdio_output@@@2@@__crt_stdio_output@@AEAA_NXZ 0000000140018e94 f i libucrt:output.obj
 0001:00018118       ?state_case_type@?$output_processor@DV?$string_output_adapter@D@__crt_stdio_output@@V?$format_validation_base@DV?$string_output_adapter@D@__crt_stdio_output@@@2@@__crt_stdio_output@@AEAA_NXZ 0000000140019118 f i libucrt:output.obj
 0001:00018380       ?type_case_Z@?$output_processor@DV?$stream_output_adapter@D@__crt_stdio_output@@V?$standard_base@DV?$stream_output_adapter@D@__crt_stdio_output@@@2@@__crt_stdio_output@@AEAA_NXZ 0000000140019380 f i libucrt:output.obj
 0001:00018380       ?type_case_Z@?$output_processor@DV?$string_output_adapter@D@__crt_stdio_output@@V?$format_validation_base@DV?$string_output_adapter@D@__crt_stdio_output@@@2@@__crt_stdio_output@@AEAA_NXZ 0000000140019380 f i libucrt:output.obj
 0001:000183f4       ?type_case_a@?$output_processor@DV?$string_output_adapter@D@__crt_stdio_output@@V?$format_validation_base@DV?$string_output_adapter@D@__crt_stdio_output@@@2@@__crt_stdio_output@@AEAA_NXZ 00000001400193f4 f i libucrt:output.obj
 0001:000183f4       ?type_case_a@?$output_processor@DV?$stream_output_adapter@D@__crt_stdio_output@@V?$standard_base@DV?$stream_output_adapter@D@__crt_stdio_output@@@2@@__crt_stdio_output@@AEAA_NXZ 00000001400193f4 f i libucrt:output.obj
 0001:0001860c       ?type_case_c_tchar@?$output_processor@DV?$string_output_adapter@D@__crt_stdio_output@@V?$format_validation_base@DV?$string_output_adapter@D@__crt_stdio_output@@@2@@__crt_stdio_output@@AEAA_ND@Z 000000014001960c f i libucrt:output.obj
 0001:0001860c       ?type_case_c_tchar@?$output_processor@DV?$stream_output_adapter@D@__crt_stdio_output@@V?$standard_base@DV?$stream_output_adapter@D@__crt_stdio_output@@@2@@__crt_stdio_output@@AEAA_ND@Z 000000014001960c f i libucrt:output.obj
 0001:000186c8       ?type_case_integer@?$output_processor@DV?$string_output_adapter@D@__crt_stdio_output@@V?$format_validation_base@DV?$string_output_adapter@D@__crt_stdio_output@@@2@@__crt_stdio_output@@AEAA_NI_N@Z 00000001400196c8 f i libucrt:output.obj
 0001:000186c8       ?type_case_integer@?$output_processor@DV?$stream_output_adapter@D@__crt_stdio_output@@V?$standard_base@DV?$stream_output_adapter@D@__crt_stdio_output@@@2@@__crt_stdio_output@@AEAA_NI_N@Z 00000001400196c8 f i libucrt:output.obj
 0001:00018890       ?type_case_n@?$output_processor@DV?$string_output_adapter@D@__crt_stdio_output@@V?$format_validation_base@DV?$string_output_adapter@D@__crt_stdio_output@@@2@@__crt_stdio_output@@AEAA_NXZ 0000000140019890 f i libucrt:output.obj
 0001:00018890       ?type_case_n@?$output_processor@DV?$stream_output_adapter@D@__crt_stdio_output@@V?$standard_base@DV?$stream_output_adapter@D@__crt_stdio_output@@@2@@__crt_stdio_output@@AEAA_NXZ 0000000140019890 f i libucrt:output.obj
 0001:0001896c       ?type_case_s@?$output_processor@DV?$string_output_adapter@D@__crt_stdio_output@@V?$format_validation_base@DV?$string_output_adapter@D@__crt_stdio_output@@@2@@__crt_stdio_output@@AEAA_NXZ 000000014001996c f i libucrt:output.obj
 0001:0001896c       ?type_case_s@?$output_processor@DV?$stream_output_adapter@D@__crt_stdio_output@@V?$standard_base@DV?$stream_output_adapter@D@__crt_stdio_output@@@2@@__crt_stdio_output@@AEAA_NXZ 000000014001996c f i libucrt:output.obj
 0001:00018a04       ?validate_stream_is_ansi_if_required@?$__acrt_stdio_char_traits@D@@SA_NQEAU_iobuf@@@Z 0000000140019a04 f i libucrt:output.obj
 0001:00018aa0       ?write_stored_string_tchar@?$output_processor@DV?$stream_output_adapter@D@__crt_stdio_output@@V?$standard_base@DV?$stream_output_adapter@D@__crt_stdio_output@@@2@@__crt_stdio_output@@AEAA_ND@Z 0000000140019aa0 f i libucrt:output.obj
 0001:00018bc4       ?write_stored_string_tchar@?$output_processor@DV?$string_output_adapter@D@__crt_stdio_output@@V?$format_validation_base@DV?$string_output_adapter@D@__crt_stdio_output@@@2@@__crt_stdio_output@@AEAA_ND@Z 0000000140019bc4 f i libucrt:output.obj
 0001:00018c9c       ?write_string@?$string_output_adapter@D@__crt_stdio_output@@QEBAXQEBDHQEAHAEAV__crt_deferred_errno_cache@@@Z 0000000140019c9c f i libucrt:output.obj
 0001:00018d40       ?write_string_impl@?$output_adapter_common@DV?$stream_output_adapter@D@__crt_stdio_output@@@__crt_stdio_output@@IEBAXQEBDHQEAHAEAV__crt_deferred_errno_cache@@@Z 0000000140019d40 f i libucrt:output.obj
 0001:00018e38       __stdio_common_vfprintf    0000000140019e38 f   libucrt:output.obj
 0001:00018ec4       __stdio_common_vsprintf_s  0000000140019ec4 f   libucrt:output.obj
 0001:00018f28       _get_fmode                 0000000140019f28 f   libucrt:setmode.obj
 0001:00018f58       _set_fmode                 0000000140019f58 f   libucrt:setmode.obj
 0001:00018f98       _setmode                   0000000140019f98 f   libucrt:setmode.obj
 0001:0001909c       _setmode_nolock            000000014001a09c f   libucrt:setmode.obj
 0001:0001917c       __acrt_call_reportfault    000000014001a17c f   libucrt:invalid_parameter.obj
 0001:000192d8       __acrt_initialize_invalid_parameter_handler 000000014001a2d8 f   libucrt:invalid_parameter.obj
 0001:000192e0       _invalid_parameter         000000014001a2e0 f   libucrt:invalid_parameter.obj
 0001:00019390       _invalid_parameter_noinfo  000000014001a390 f   libucrt:invalid_parameter.obj
 0001:000193b0       _invalid_parameter_noinfo_noreturn 000000014001a3b0 f   libucrt:invalid_parameter.obj
 0001:000193e0       _invoke_watson             000000014001a3e0 f   libucrt:invalid_parameter.obj
 0001:0001949c       ??$parse_floating_point@V?$c_string_character_source@D@__crt_strtox@@N@__crt_strtox@@YA?AW4SLD_STATUS@@QEAU__crt_locale_pointers@@V?$c_string_character_source@D@0@QEAN@Z 000000014001a49c f i libucrt:atof.obj
 0001:0001953c       ??$parse_floating_point_from_source@V?$c_string_character_source@D@__crt_strtox@@@__crt_strtox@@YA?AW4floating_point_parse_result@0@QEAU__crt_locale_pointers@@AEAV?$c_string_character_source@D@0@AEAUfloating_point_string@0@@Z 000000014001a53c f i libucrt:atof.obj
 0001:00019a14       ??$parse_floating_point_possible_infinity@DV?$c_string_character_source@D@__crt_strtox@@PEBD@__crt_strtox@@YA?AW4floating_point_parse_result@0@AEADAEAV?$c_string_character_source@D@0@PEBD@Z 000000014001aa14 f i libucrt:atof.obj
 0001:00019b70       ??$parse_floating_point_possible_nan@DV?$c_string_character_source@D@__crt_strtox@@PEBD@__crt_strtox@@YA?AW4floating_point_parse_result@0@AEADAEAV?$c_string_character_source@D@0@PEBD@Z 000000014001ab70 f i libucrt:atof.obj
 0001:00019d5c       ??$parse_floating_point_possible_nan_is_ind@DV?$c_string_character_source@D@__crt_strtox@@@__crt_strtox@@YA_NAEADAEAV?$c_string_character_source@D@0@@Z 000000014001ad5c f i libucrt:atof.obj
 0001:00019da0       ??$parse_floating_point_possible_nan_is_snan@DV?$c_string_character_source@D@__crt_strtox@@@__crt_strtox@@YA_NAEADAEAV?$c_string_character_source@D@0@@Z 000000014001ada0 f i libucrt:atof.obj
 0001:00019de4       ??$parse_floating_point_write_result@N@__crt_strtox@@YA?AW4SLD_STATUS@@W4floating_point_parse_result@0@AEBUfloating_point_string@0@QEAN@Z 000000014001ade4 f i libucrt:atof.obj
 0001:00019fc4       ?as_double@floating_point_value@__crt_strtox@@QEBAAEANXZ 000000014001afc4 f i libucrt:atof.obj
 0001:0001a000       ?as_float@floating_point_value@__crt_strtox@@QEBAAEAMXZ 000000014001b000 f i libucrt:atof.obj
 0001:0001a03c       ?assemble_floating_point_value@__crt_strtox@@YA?AW4SLD_STATUS@@_KH_N1AEBVfloating_point_value@1@@Z 000000014001b03c f i libucrt:atof.obj
 0001:0001a3e4       ?assemble_floating_point_value_from_big_integer@__crt_strtox@@YA?AW4SLD_STATUS@@AEBUbig_integer@1@I_N1AEBVfloating_point_value@1@@Z 000000014001b3e4 f i libucrt:atof.obj
 0001:0001a548       ?convert_decimal_string_to_floating_type_common@__crt_strtox@@YA?AW4SLD_STATUS@@AEBUfloating_point_string@1@AEBVfloating_point_value@1@@Z 000000014001b548 f i libucrt:atof.obj
 0001:0001c2cc       ?convert_hexadecimal_string_to_floating_type_common@__crt_strtox@@YA?AW4SLD_STATUS@@AEBUfloating_point_string@1@AEBVfloating_point_value@1@@Z 000000014001d2cc f i libucrt:atof.obj
 0001:0001c380       ?divide@__crt_strtox@@YA_KAEAUbig_integer@1@AEBU21@@Z 000000014001d380 f i libucrt:atof.obj
 0001:0001c7ac       _ischartype_l              000000014001d7ac f i libucrt:atof.obj
 0001:0001c824       atof                       000000014001d824 f   libucrt:atof.obj
 0001:0001c8b4       _fclose_nolock             000000014001d8b4 f   libucrt:fclose.obj
 0001:0001c938       fclose                     000000014001d938 f   libucrt:fclose.obj
 0001:0001c99c       feof                       000000014001d99c f   libucrt:feoferr.obj
 0001:0001ca84       fopen                      000000014001da84 f   libucrt:fopen.obj
 0001:0001ca90       _fread_nolock_s            000000014001da90 f   libucrt:fread.obj
 0001:0001cd20       fread                      000000014001dd20 f   libucrt:fread.obj
 0001:0001cd40       fread_s                    000000014001dd40 f   libucrt:fread.obj
 0001:0001cff0       fseek                      000000014001dff0 f   libucrt:fseek.obj
 0001:0001d09c       _fwrite_nolock             000000014001e09c f   libucrt:fwrite.obj
 0001:0001d248       fwrite                     000000014001e248 f   libucrt:fwrite.obj
 0001:0001d370       strcspn                    000000014001e370 f   libucrt:strcspn.obj
 0001:0001d734       frexp                      000000014001e734 f   libucrt:frexp.obj
 0001:0001d82c       calloc                     000000014001e82c f   libucrt:calloc.obj
 0001:0001d834       free                       000000014001e834 f   libucrt:free.obj
 0001:0001d848       terminate                  000000014001e848 f   libucrt:terminate.obj
 0001:0001d868       localeconv                 000000014001e868 f   libucrt:localeconv.obj
 0001:0001d8a0       exp                        000000014001e8a0 f   libucrt:exp.obj
 0001:0001dca0       cos                        000000014001eca0 f   libucrt:cos.obj
 0001:0001e220       pow                        000000014001f220 f   libucrt:pow.obj
 0001:0001f8c0       sin                        00000001400208c0 f   libucrt:sin.obj
 0001:0001fe2c       __acrt_initialize_locks    0000000140020e2c f   libucrt:locks.obj
 0001:0001fe74       __acrt_lock                0000000140020e74 f   libucrt:locks.obj
 0001:0001fe90       __acrt_uninitialize_locks  0000000140020e90 f   libucrt:locks.obj
 0001:0001fec8       __acrt_unlock              0000000140020ec8 f   libucrt:locks.obj
 0001:0001fee4       _lock_locales              0000000140020ee4 f   libucrt:locks.obj
 0001:0001ff00       _unlock_locales            0000000140020f00 f   libucrt:locks.obj
 0001:0001ff10       malloc                     0000000140020f10 f   libucrt:malloc.obj
 0001:000201f8       setlocale                  00000001400211f8 f   libucrt:setlocale.obj
 0001:00020244       __pctype_func              0000000140021244 f   libucrt:ctype.obj
 0001:00020274       islower                    0000000140021274 f i libucrt:_ctype.obj
 0001:000202e0       isupper                    00000001400212e0 f i libucrt:_ctype.obj
 0001:0002034c       _wcsdup                    000000014002134c f   libucrt:wcsdup.obj
 0001:000203d0       ___lc_codepage_func        00000001400213d0 f   libucrt:initctype.obj
 0001:00020400       ___lc_locale_name_func     0000000140021400 f   libucrt:initctype.obj
 0001:00020434       ___mb_cur_max_func         0000000140021434 f   libucrt:initctype.obj
 0001:00020464       __acrt_locale_initialize_ctype 0000000140021464 f   libucrt:initctype.obj
 0001:00020ac8       __acrt_errno_from_os_error 0000000140021ac8 f   libucrt:errno.obj
 0001:00020b10       __acrt_errno_map_os_error  0000000140021b10 f   libucrt:errno.obj
 0001:00020b60       __doserrno                 0000000140021b60 f   libucrt:errno.obj
 0001:00020b80       _errno                     0000000140021b80 f   libucrt:errno.obj
 0001:00020ba0       powf                       0000000140021ba0 f   libucrt:powf.obj
 0001:00021a68       abort                      0000000140022a68 f   libucrt:abort.obj
 0001:00021ac0       __strncnt                  0000000140022ac0 f   libucrt:strncnt.obj
 0001:00021ad8       ??$__acrt_mbs_to_wcs_cp@U__crt_win32_buffer_internal_dynamic_resizing@@@@YAHQEBDAEAV?$__crt_win32_buffer@_WU__crt_win32_buffer_internal_dynamic_resizing@@@@I@Z 0000000140022ad8 f i libucrt:strftime.obj
 0001:00021c50       ??$__acrt_wcs_to_mbs_cp@U__crt_win32_buffer_no_resizing@@@@YAHQEB_WAEAV?$__crt_win32_buffer@DU__crt_win32_buffer_no_resizing@@@@I@Z 0000000140022c50 f i libucrt:strftime.obj
 0001:00021d64       wcscpy_s                   0000000140022d64 f   libucrt:wcscpy_s.obj
 0001:00021dcc       strnlen                    0000000140022dcc f   libucrt:strnlen.obj
 0001:00021f1c       wcsnlen                    0000000140022f1c f   libucrt:strnlen.obj
 0001:000220f4       __acrt_initialize_new_handler 00000001400230f4 f   libucrt:new_handler.obj
 0001:000220fc       _callnewh                  00000001400230fc f   libucrt:new_handler.obj
 0001:0002212c       _query_new_handler         000000014002312c f   libucrt:new_handler.obj
 0001:00022160       _seh_filter_exe            0000000140023160 f   libucrt:exception_filter.obj
 0001:000222e4       _query_app_type            00000001400232e4 f   libucrt:report_runtime_error.obj
 0001:000222ec       _set_app_type              00000001400232ec f   libucrt:report_runtime_error.obj
 0001:000222f4       __acrt_has_user_matherr    00000001400232f4 f   libucrt:matherr.obj
 0001:00022314       __acrt_initialize_user_matherr 0000000140023314 f   libucrt:matherr.obj
 0001:0002231c       __acrt_invoke_user_matherr 000000014002331c f   libucrt:matherr.obj
 0001:0002234c       __setusermatherr           000000014002334c f   libucrt:matherr.obj
 0001:00022538       __acrt_allocate_buffer_for_argv 0000000140023538 f   libucrt:argv_parsing.obj
 0001:00022598       _configure_narrow_argv     0000000140023598 f   libucrt:argv_parsing.obj
 0001:000229e4       __dcrt_get_or_create_narrow_environment_nolock 00000001400239e4 f   libucrt:environment_initialization.obj
 0001:00022a20       __dcrt_uninitialize_environments_nolock 0000000140023a20 f   libucrt:environment_initialization.obj
 0001:00022a58       _get_initial_narrow_environment 0000000140023a58 f   libucrt:environment_initialization.obj
 0001:00022aa8       _initialize_narrow_environment 0000000140023aa8 f   libucrt:environment_initialization.obj
 0001:00022ab0       _initterm                  0000000140023ab0 f   libucrt:initterm.obj
 0001:00022b14       _initterm_e                0000000140023b14 f   libucrt:initterm.obj
 0001:00022dc0       __acrt_initialize_thread_local_exit_callback 0000000140023dc0 f   libucrt:exit.obj
 0001:00022dc8       _c_exit                    0000000140023dc8 f   libucrt:exit.obj
 0001:00022dd8       _cexit                     0000000140023dd8 f   libucrt:exit.obj
 0001:00022de8       _exit                      0000000140023de8 f   libucrt:exit.obj
 0001:00022df4       _register_thread_local_exe_atexit_callback 0000000140023df4 f   libucrt:exit.obj
 0001:00022e30       exit                       0000000140023e30 f   libucrt:exit.obj
 0001:00022e3c       __acrt_initialize_command_line 0000000140023e3c f   libucrt:argv_data.obj
 0001:00022e64       __p___argc                 0000000140023e64 f   libucrt:argv_data.obj
 0001:00022e6c       __p___argv                 0000000140023e6c f   libucrt:argv_data.obj
 0001:000230dc       ?commit_locale_name@_expandlocale_locale_name_cache@@QEAAXQEB_W_K@Z 00000001400240dc f i libucrt:wsetlocale.obj
 0001:00023154       __acrt_copy_locale_name    0000000140024154 f   libucrt:wsetlocale.obj
 0001:000231d8       __acrt_set_locale_changed  00000001400241d8 f   libucrt:wsetlocale.obj
 0001:000231e4       __acrt_uninitialize_locale 00000001400241e4 f   libucrt:wsetlocale.obj
 0001:00023214       __lc_lctowcs               0000000140024214 f   libucrt:wsetlocale.obj
 0001:000232b8       __lc_wcstolc               00000001400242b8 f   libucrt:wsetlocale.obj
 0001:00023420       _configthreadlocale        0000000140024420 f   libucrt:wsetlocale.obj
 0001:000239cc       _wcscats                   00000001400249cc f   libucrt:wsetlocale.obj
 0001:00023a34       _wsetlocale                0000000140024a34 f   libucrt:wsetlocale.obj
 0001:00024794       _query_new_mode            0000000140025794 f   libucrt:new_mode.obj
 0001:0002479c       _set_new_mode              000000014002579c f   libucrt:new_mode.obj
 0001:000247c8       __p__commode               00000001400257c8 f   libucrt:ncommode.obj
 0001:00024b10       _crt_atexit                0000000140025b10 f   libucrt:onexit.obj
 0001:00024b20       _execute_onexit_table      0000000140025b20 f   libucrt:onexit.obj
 0001:00024b5c       _initialize_onexit_table   0000000140025b5c f   libucrt:onexit.obj
 0001:00024b84       _register_onexit_function  0000000140025b84 f   libucrt:onexit.obj
 0001:00024cf8       __acrt_initialize          0000000140025cf8 f   libucrt:initialization.obj
 0001:00024d0c       __acrt_uninitialize        0000000140025d0c f   libucrt:initialization.obj
 0001:00024d44       strcpy_s                   0000000140025d44 f   libucrt:strcpy_s.obj
 0001:00024da4       ??$parse_integer@KV?$c_string_character_source@D@__crt_strtox@@@__crt_strtox@@YAKQEAU__crt_locale_pointers@@V?$c_string_character_source@D@0@H_N@Z 0000000140025da4 f i libucrt:atox.obj
 0001:000250ac       ??$parse_integer@KV?$c_string_character_source@_W@__crt_strtox@@@__crt_strtox@@YAKQEAU__crt_locale_pointers@@V?$c_string_character_source@_W@0@H_N@Z 00000001400260ac f i libucrt:atox.obj
 0001:00025754       _wtol                      0000000140026754 f   libucrt:atox.obj
 0001:00025790       strncmp                    0000000140026790 f   libucrt:strncmp.obj
 0001:00025810       wcsncmp                    0000000140026810 f   libucrt:wcsncmp.obj
 0001:0002583c       _calloc_base               000000014002683c f   libucrt:calloc_base.obj
 0001:000258b4       _free_base                 00000001400268b4 f   libucrt:free_base.obj
 0001:00025b70       __acrt_AppPolicyGetProcessTerminationMethodInternal 0000000140026b70 f   libucrt:winapi_thunks.obj
 0001:00025bc0       __acrt_AreFileApisANSI     0000000140026bc0 f   libucrt:winapi_thunks.obj
 0001:00025bfc       __acrt_CompareStringEx     0000000140026bfc f   libucrt:winapi_thunks.obj
 0001:00025cd8       __acrt_EnumSystemLocalesEx 0000000140026cd8 f   libucrt:winapi_thunks.obj
 0001:00025d70       __acrt_FlsAlloc            0000000140026d70 f   libucrt:winapi_thunks.obj
 0001:00025db8       __acrt_FlsFree             0000000140026db8 f   libucrt:winapi_thunks.obj
 0001:00025e00       __acrt_FlsGetValue         0000000140026e00 f   libucrt:winapi_thunks.obj
 0001:00025e48       __acrt_FlsSetValue         0000000140026e48 f   libucrt:winapi_thunks.obj
 0001:00025e9c       __acrt_GetLocaleInfoEx     0000000140026e9c f   libucrt:winapi_thunks.obj
 0001:00025f20       __acrt_GetUserDefaultLocaleName 0000000140026f20 f   libucrt:winapi_thunks.obj
 0001:00025f84       __acrt_InitializeCriticalSectionEx 0000000140026f84 f   libucrt:winapi_thunks.obj
 0001:00025fe8       __acrt_IsValidLocaleName   0000000140026fe8 f   libucrt:winapi_thunks.obj
 0001:00026040       __acrt_LCIDToLocaleName    0000000140027040 f   libucrt:winapi_thunks.obj
 0001:000260b0       __acrt_LCMapStringEx       00000001400270b0 f   libucrt:winapi_thunks.obj
 0001:0002618c       __acrt_LocaleNameToLCID    000000014002718c f   libucrt:winapi_thunks.obj
 0001:000261dc       __acrt_can_use_vista_locale_apis 00000001400271dc f   libucrt:winapi_thunks.obj
 0001:0002620c       __acrt_eagerly_load_locale_apis 000000014002720c f   libucrt:winapi_thunks.obj
 0001:00026368       __acrt_initialize_winapi_thunks 0000000140027368 f   libucrt:winapi_thunks.obj
 0001:0002639c       __acrt_uninitialize_winapi_thunks 000000014002739c f   libucrt:winapi_thunks.obj
 0001:000263e0       _fcloseall                 00000001400273e0 f   libucrt:closeall.obj
 0001:00026494       __acrt_stdio_free_buffer_nolock 0000000140027494 f   libucrt:_freebuf.obj
 0001:000266d0       __acrt_initialize_lowio    00000001400276d0 f   libucrt:ioinit.obj
 0001:0002670c       __acrt_uninitialize_lowio  000000014002770c f   libucrt:ioinit.obj
 0001:000267d8       _commit                    00000001400277d8 f   libucrt:commit.obj
 0001:000270cc       _write                     00000001400280cc f   libucrt:write.obj
 0001:000271b8       _write_nolock              00000001400281b8 f   libucrt:write.obj
 0001:00027494       _malloc_base               0000000140028494 f   libucrt:malloc_base.obj
 0001:000274f4       strtol                     00000001400284f4 f   libucrt:strtox.obj
 0001:00027520       _mbtowc_l                  0000000140028520 f   libucrt:mbtowc.obj
 0001:000276a0       mbtowc                     00000001400286a0 f   libucrt:mbtowc.obj
 0001:000276a8       _wctomb_s_l                00000001400286a8 f   libucrt:wctomb.obj
 0001:00027844       wctomb_s                   0000000140028844 f   libucrt:wctomb.obj
 0001:00027bd0       __acrt_getptd              0000000140028bd0 f   libucrt:per_thread_data.obj
 0001:00027ca4       __acrt_getptd_head         0000000140028ca4 f   libucrt:per_thread_data.obj
 0001:00027d4c       __acrt_getptd_noexit       0000000140028d4c f   libucrt:per_thread_data.obj
 0001:00027e18       __acrt_initialize_ptd      0000000140028e18 f   libucrt:per_thread_data.obj
 0001:00027e54       __acrt_uninitialize_ptd    0000000140028e54 f   libucrt:per_thread_data.obj
 0001:00027e78       __acrt_update_locale_info  0000000140028e78 f   libucrt:locale_update.obj
 0001:00027eac       __acrt_update_multibyte_info 0000000140028eac f   libucrt:locale_update.obj
 0001:00028778       __acrt_fp_format           0000000140029778 f   libucrt:cvt.obj
 0001:00028a7c       _fputc_nolock              0000000140029a7c f   libucrt:fputc.obj
 0001:00028a94       _get_printf_count_output   0000000140029a94 f   libucrt:printf_count_output.obj
 0001:00028aac       __acrt_stdio_begin_temporary_buffering_nolock 0000000140029aac f   libucrt:_sftbuf.obj
 0001:00028b7c       __acrt_stdio_end_temporary_buffering_nolock 0000000140029b7c f   libucrt:_sftbuf.obj
 0001:00028bb8       __acrt_lowio_create_handle_array 0000000140029bb8 f   libucrt:osfinfo.obj
 0001:00028c60       __acrt_lowio_destroy_handle_array 0000000140029c60 f   libucrt:osfinfo.obj
 0001:00028cb0       __acrt_lowio_ensure_fh_exists 0000000140029cb0 f   libucrt:osfinfo.obj
 0001:00028d58       __acrt_lowio_lock_fh       0000000140029d58 f   libucrt:osfinfo.obj
 0001:00028d80       __acrt_lowio_set_os_handle 0000000140029d80 f   libucrt:osfinfo.obj
 0001:00028e40       __acrt_lowio_unlock_fh     0000000140029e40 f   libucrt:osfinfo.obj
 0001:00028e68       _alloc_osfhnd              0000000140029e68 f   libucrt:osfinfo.obj
 0001:00028fa8       _free_osfhnd               0000000140029fa8 f   libucrt:osfinfo.obj
 0001:00029064       _get_osfhandle             000000014002a064 f   libucrt:osfinfo.obj
 0001:000290dc       iswctype                   000000014002a0dc f   libucrt:iswctype.obj
 0001:0002914c       _isctype_l                 000000014002a14c f   libucrt:isctype.obj
 0001:00029254       fegetround                 000000014002a254 f   libucrt:fegetround.obj
 0001:000292dc       _close                     000000014002a2dc f   libucrt:close.obj
 0001:00029380       _close_nolock              000000014002a380 f   libucrt:close.obj
 0001:00029440       ?__acrt_stdio_allocate_stream@@YA?AV__crt_stdio_stream@@XZ 000000014002a440 f   libucrt:stream.obj
 0001:00029498       ?__acrt_stdio_free_stream@@YAXV__crt_stdio_stream@@@Z 000000014002a498 f   libucrt:stream.obj
 0001:000295a0       ??$__acrt_stdio_parse_mode@D@@YA?AU__acrt_stdio_stream_mode@@QEBD@Z 000000014002a5a0 f i libucrt:openfile.obj
 0001:00029860       _openfile                  000000014002a860 f   libucrt:openfile.obj
 0001:00029ed4       _read                      000000014002aed4 f   libucrt:read.obj
 0001:00029ff0       _read_nolock               000000014002aff0 f   libucrt:read.obj
 0001:0002a448       __acrt_stdio_refill_and_read_narrow_nolock 000000014002b448 f   libucrt:_filbuf.obj
 0001:0002aa30       _ftelli64_nolock           000000014002ba30 f   libucrt:ftell.obj
 0001:0002abc4       _lseeki64                  000000014002bbc4 f   libucrt:lseek.obj
 0001:0002abcc       _lseeki64_nolock           000000014002bbcc f   libucrt:lseek.obj
 0001:0002ad34       __acrt_stdio_flush_and_write_narrow_nolock 000000014002bd34 f   libucrt:_flsbuf.obj
 0001:0002ae20       _dsign                     000000014002be20 f   libucrt:nan.obj
 0001:0002ae38       _errcode                   000000014002be38 f   libucrt:fpexcept.obj
 0001:0002ae7c       _except1                   000000014002be7c f   libucrt:fpexcept.obj
 0001:0002af70       _handle_exc                000000014002bf70 f   libucrt:fpexcept.obj
 0001:0002b1d8       _raise_exc                 000000014002c1d8 f   libucrt:fpexcept.obj
 0001:0002b200       _raise_exc_ex              000000014002c200 f   libucrt:fpexcept.obj
 0001:0002b510       _raise_excf                000000014002c510 f   libucrt:fpexcept.obj
 0001:0002b53c       _set_errno_from_matherr    000000014002c53c f   libucrt:fpexcept.obj
 0001:0002b56c       _umatherr                  000000014002c56c f   libucrt:fpexcept.obj
 0001:0002b640       _decomp                    000000014002c640 f   libucrt:util.obj
 0001:0002b770       _sptype                    000000014002c770 f   libucrt:util.obj
 0001:0002b7e4       _clrfp                     000000014002c7e4 f   libucrt:fpctrl.obj
 0001:0002b804       _ctrlfp                    000000014002c804 f   libucrt:fpctrl.obj
 0001:0002b880       _set_statfp                000000014002c880 f   libucrt:fpctrl.obj
 0001:0002b8a0       _statfp                    000000014002c8a0 f   libucrt:fpctrl.obj
 0001:0002b8c0       __acrt_initialize_fma3     000000014002c8c0 f   libucrt:fma3_available.obj
 0001:0002b930       _exp_special               000000014002c930 f   libucrt:exp_special.obj
 0001:0002b9d0       __remainder_piby2_forAsm   000000014002c9d0 f   libucrt:remainder_piby2_forasm.obj
 0001:0002bbe0       __remainder_piby2_cw_forAsm 000000014002cbe0 f   libucrt:remainder_piby2_forasm.obj
 0001:0002bd20       __remainder_piby2_fma3     000000014002cd20 f   libucrt:remainder_piby2_forfma3.obj
 0001:0002bf10       __remainder_piby2_fma3_bdl 000000014002cf10 f   libucrt:remainder_piby2_forfma3.obj
 0001:0002bf88       _cos_special               000000014002cf88 f   libucrt:sincos_special.obj
 0001:0002bf9c       _sin_special               000000014002cf9c f   libucrt:sincos_special.obj
 0001:0002c060       _pow_special               000000014002d060 f   libucrt:pow_special.obj
 0001:0002c184       _powf_special              000000014002d184 f   libucrt:pow_special.obj
 0001:0002c510       _mbstowcs_s_l              000000014002d510 f   libucrt:mbstowcs.obj
 0001:0002c644       mbstowcs_s                 000000014002d644 f   libucrt:mbstowcs.obj
 0001:0002c9cc       _wcstombs_s_l              000000014002d9cc f   libucrt:wcstombs.obj
 0001:0002cc34       __acrt_GetLocaleInfoA      000000014002dc34 f   libucrt:getlocaleinfoa.obj
 0001:0002cdfc       __acrt_GetStringTypeA      000000014002ddfc f   libucrt:getstringtypea.obj
 0001:0002d2a4       __acrt_LCMapStringA        000000014002e2a4 f   libucrt:lcmapstringa.obj
 0001:0002d33c       _realloc_base              000000014002e33c f   libucrt:realloc_base.obj
 0001:0002d408       __acrt_get_sigabrt_handler 000000014002e408 f   libucrt:signal.obj
 0001:0002d438       __acrt_initialize_signal_handlers 000000014002e438 f   libucrt:signal.obj
 0001:0002d458       raise                      000000014002e458 f   libucrt:signal.obj
 0001:0002d6c4       __acrt_MultiByteToWideChar 000000014002e6c4 f   libucrt:multibytetowidechar.obj
 0001:0002d720       __acrt_WideCharToMultiByte 000000014002e720 f   libucrt:widechartomultibyte.obj
 0001:0002d7b8       __ascii_wcsicmp            000000014002e7b8 f   libucrt:wcsicmp.obj
 0001:0002d7f8       _wcsicmp                   000000014002e7f8 f   libucrt:wcsicmp.obj
 0001:0002d840       _wcsicmp_l                 000000014002e840 f   libucrt:wcsicmp.obj
 0001:0002d968       __acrt_initialize_timeset  000000014002e968 f   libucrt:timeset.obj
 0001:0002d9ac       _isleadbyte_l              000000014002e9ac f i libucrt:_wctype.obj
 0001:0002d9f8       wcscat_s                   000000014002e9f8 f   libucrt:wcscat_s.obj
 0001:0002da78       wcsncpy_s                  000000014002ea78 f   libucrt:wcsncpy_s.obj
 0001:0002db70       ??$__acrt_wcs_to_mbs_cp@U__crt_win32_buffer_internal_dynamic_resizing@@@@YAHQEB_WAEAV?$__crt_win32_buffer@DU__crt_win32_buffer_internal_dynamic_resizing@@@@I@Z 000000014002eb70 f i libucrt:argv_wildcards.obj
 0001:0002e3a0       __acrt_expand_narrow_argv_wildcards 000000014002f3a0 f   libucrt:argv_wildcards.obj
 0001:0002e3a8       __acrt_GetModuleFileNameA  000000014002f3a8 f   libucrt:getmodulefilenamea.obj
 0001:0002ebf4       __acrt_initialize_multibyte 000000014002fbf4 f   libucrt:mbctype.obj
 0001:0002ec54       __acrt_update_thread_multibyte_data 000000014002fc54 f   libucrt:mbctype.obj
 0001:0002ec70       _setmbcp_nolock            000000014002fc70 f   libucrt:mbctype.obj
 0001:0002efa4       _ismbblead                 000000014002ffa4 f   libucrt:ismbbyte.obj
 0001:0002efb8       __dcrt_get_narrow_environment_from_os 000000014002ffb8 f   libucrt:get_environment_from_os.obj
 0001:0002f4c4       __dcrt_set_variable_in_narrow_environment_nolock 00000001400304c4 f   libucrt:setenv.obj
 0001:0002f4cc       __acrt_get_process_end_policy 00000001400304cc f   libucrt:win_policies.obj
 0001:0002f508       __acrt_locale_free_monetary 0000000140030508 f   libucrt:initmon.obj
 0001:0002f614       __acrt_locale_initialize_monetary 0000000140030614 f   libucrt:initmon.obj
 0001:0002fb48       __acrt_locale_free_numeric 0000000140030b48 f   libucrt:initnum.obj
 0001:0002fbb4       __acrt_locale_initialize_numeric 0000000140030bb4 f   libucrt:initnum.obj
 0001:00030234       __acrt_locale_free_time    0000000140031234 f   libucrt:inittime.obj
 0001:0003033c       __acrt_locale_initialize_time 000000014003133c f   libucrt:inittime.obj
 0001:000303d8       wcsncat_s                  00000001400313d8 f   libucrt:wcsncat_s.obj
 0001:000304d8       wcscspn                    00000001400314d8 f   libucrt:wcscspn.obj
 0001:00030518       wcspbrk                    0000000140031518 f   libucrt:wcspbrk.obj
 0001:0003054c       __acrt_add_locale_ref      000000014003154c f   libucrt:locale_refcounting.obj
 0001:000305d8       __acrt_free_locale         00000001400315d8 f   libucrt:locale_refcounting.obj
 0001:00030750       __acrt_locale_add_lc_time_reference 0000000140031750 f   libucrt:locale_refcounting.obj
 0001:00030778       __acrt_locale_free_lc_time_if_unreferenced 0000000140031778 f   libucrt:locale_refcounting.obj
 0001:000307b0       __acrt_locale_release_lc_time_reference 00000001400317b0 f   libucrt:locale_refcounting.obj
 0001:000307d8       __acrt_release_locale_ref  00000001400317d8 f   libucrt:locale_refcounting.obj
 0001:00030880       __acrt_update_thread_locale_data 0000000140031880 f   libucrt:locale_refcounting.obj
 0001:000308ec       _updatetlocinfoEx_nolock   00000001400318ec f   libucrt:locale_refcounting.obj
 0001:00031108       __acrt_get_qualified_locale 0000000140032108 f   libucrt:get_qualified_locale.obj
 0001:00031b3c       __acrt_get_qualified_locale_downlevel 0000000140032b3c f   libucrt:getqloc_downlevel.obj
 0001:00031dbc       _recalloc_base             0000000140032dbc f   libucrt:recalloc.obj
 0001:00031e54       __acrt_initialize_heap     0000000140032e54 f   libucrt:heap_handle.obj
 0001:00031e70       __acrt_uninitialize_heap   0000000140032e70 f   libucrt:heap_handle.obj
 0001:00031e7c       __acrt_execute_initializers 0000000140032e7c f   libucrt:shared_initialization.obj
 0001:00031efc       __acrt_execute_uninitializers 0000000140032efc f   libucrt:shared_initialization.obj
 0001:00031f38       __acrt_DownlevelLCIDToLocaleName 0000000140032f38 f   libucrt:lcidtoname_downlevel.obj
 0001:0003202c       __acrt_DownlevelLocaleNameToLCID 000000014003302c f   libucrt:lcidtoname_downlevel.obj
 0001:000320dc       _isatty                    00000001400330dc f   libucrt:isatty.obj
 0001:0003213c       ?__mbrtowc_utf8@__crt_mbstring@@YA_KPEA_WPEBD_KPEAU_Mbstatet@@@Z 000000014003313c f   libucrt:mbrtowc.obj
 0001:00032178       ?__mbsrtowcs_utf8@__crt_mbstring@@YA_KPEA_WPEAPEBD_KPEAU_Mbstatet@@@Z 0000000140033178 f   libucrt:mbrtowc.obj
 0001:000322f0       _putwch_nolock             00000001400332f0 f   libucrt:putwch.obj
 0001:0003232c       ?__c32rtomb_utf8@__crt_mbstring@@YA_KPEAD_UPEAU_Mbstatet@@@Z 000000014003332c f   libucrt:c32rtomb.obj
 0001:000323e0       c32rtomb                   00000001400333e0 f   libucrt:c32rtomb.obj
 0001:000323e8       __acrt_fp_strflt_to_string 00000001400333e8 f   libucrt:_fptostr.obj
 0001:000324cc       __acrt_fltout              00000001400334cc f   libucrt:cfout.obj
 0001:00033700       __acrt_GetStringTypeW      0000000140034700 f   libucrt:getstringtypew.obj
 0001:00033708       __acrt_fenv_get_common_round_control 0000000140034708 f   libucrt:_fenvutils.obj
 0001:00033714       __acrt_fenv_get_control    0000000140034714 f   libucrt:_fenvutils.obj
 0001:00033808       __acrt_fenv_get_status     0000000140034808 f   libucrt:_fenvutils.obj
 0001:0003385c       __acrt_fenv_set_control    000000014003485c f   libucrt:_fenvutils.obj
 0001:000339a4       __acrt_fenv_set_status     00000001400349a4 f   libucrt:_fenvutils.obj
 0001:00033a28       __ascii_wcsnicmp           0000000140034a28 f   libucrt:wcsnicmp.obj
 0001:00033a74       _wcsnicmp                  0000000140034a74 f   libucrt:wcsnicmp.obj
 0001:00033abc       _wcsnicmp_l                0000000140034abc f   libucrt:wcsnicmp.obj
 0001:00033c0c       __ascii_strnicmp           0000000140034c0c f   libucrt:strnicmp.obj
 0001:00033c58       _strnicmp                  0000000140034c58 f   libucrt:strnicmp.obj
 0001:00033ca8       _strnicmp_l                0000000140034ca8 f   libucrt:strnicmp.obj
 0001:00034380       _sopen_nolock              0000000140035380 f   libucrt:open.obj
 0001:00034498       _sopen_s                   0000000140035498 f   libucrt:open.obj
 0001:000344cc       _wsopen_nolock             00000001400354cc f   libucrt:open.obj
 0001:000348b4       __acrt_stdio_allocate_buffer_nolock 00000001400358b4 f   libucrt:_getbuf.obj
 0001:00034930       _get_fpsr                  0000000140035930 f   libucrt:fpsr.obj
 0001:00034940       _set_fpsr                  0000000140035940 f   libucrt:fpsr.obj
 0001:0003494a       _fclrf                     000000014003594a f   libucrt:fpsr.obj
 0001:0003495e       _frnd                      000000014003595e f   libucrt:fpsr.obj
 0001:00034aa4       _handle_error              0000000140035aa4 f   libucrt:libm_error.obj
 0001:00034bcc       _handle_errorf             0000000140035bcc f   libucrt:libm_error.obj
 0001:00034d00       _handle_nan                0000000140035d00 f   libucrt:libm_error.obj
 0001:00034d1c       _handle_nanf               0000000140035d1c f   libucrt:libm_error.obj
 0001:00034d30       ?__wcsrtombs_utf8@__crt_mbstring@@YA_KPEADPEAPEB_W_KPEAU_Mbstatet@@@Z 0000000140035d30 f   libucrt:wcrtomb.obj
 0001:00034e4c       strncpy_s                  0000000140035e4c f   libucrt:strncpy_s.obj
 0001:00034f20       _towlower_l                0000000140035f20 f   libucrt:towlower.obj
 0001:00034fe0       qsort                      0000000140035fe0 f   libucrt:qsort.obj
 0001:00035430       strpbrk                    0000000140036430 f   libucrt:strpbrk.obj
 0001:00035810       _mbsdec                    0000000140036810 f   libucrt:mbsdec.obj
 0001:00035818       _mbsdec_l                  0000000140036818 f   libucrt:mbsdec.obj
 0001:000358c4       _strnicoll                 00000001400368c4 f   libucrt:strnicol.obj
 0001:000358dc       _strnicoll_l               00000001400368dc f   libucrt:strnicol.obj
 0001:000359dc       __acrt_SetEnvironmentVariableA 00000001400369dc f   libucrt:setenvironmentvariablea.obj
 0001:00035cb4       _itow_s                    0000000140036cb4 f   libucrt:xtoa.obj
 0001:00035cd4       wcscmp                     0000000140036cd4 f   libucrt:wcscmp.obj
 0001:00035d0c       _msize_base                0000000140036d0c f   libucrt:msize.obj
 0001:00035d48       ?__mbrtoc32_utf8@__crt_mbstring@@YA_KPEA_UPEBD_KPEAU_Mbstatet@@@Z 0000000140036d48 f   libucrt:mbrtoc32.obj
 0001:00035f24       __dcrt_lowio_ensure_console_output_initialized 0000000140036f24 f   libucrt:initcon.obj
 0001:00035f78       __dcrt_terminate_console_output 0000000140036f78 f   libucrt:initcon.obj
 0001:00035f94       __dcrt_write_console       0000000140036f94 f   libucrt:initcon.obj
 0001:00036054       fegetenv                   0000000140037054 f   libucrt:fegetenv.obj
 0001:00036074       fesetenv                   0000000140037074 f   libucrt:fesetenv.obj
 0001:000360c0       feholdexcept               00000001400370c0 f   libucrt:feholdexcept.obj
 0001:00036110       ceil                       0000000140037110 f   libucrt:ceil.obj
 0001:000361e0       log10                      00000001400371e0 f   libucrt:log10.obj
 0001:0003678c       _chsize_nolock             000000014003778c f   libucrt:chsize.obj
 0001:000368f8       ?__c16rtomb_utf8@__crt_mbstring@@YA_KPEAD_SPEAU_Mbstatet@@@Z 00000001400378f8 f   libucrt:c16rtomb.obj
 0001:000369a0       __acrt_LCMapStringW        00000001400379a0 f   libucrt:lcmapstringw.obj
 0001:00036d88       __acrt_CompareStringA      0000000140037d88 f   libucrt:comparestringa.obj
 0001:00036e14       _clearfp                   0000000140037e14 f   libucrt:ieee.obj
 0001:00036e90       _log10_special             0000000140037e90 f   libucrt:log_special.obj
 0001:00036f46       IsProcessorFeaturePresent  0000000140037f46 f   kernel32:KERNEL32.dll
 0001:00036f50       _FindPESection             0000000140037f50 f   LIBCMT:pesect.obj
 0001:00036fa0       _IsNonwritableInCurrentImage 0000000140037fa0 f   LIBCMT:pesect.obj
 0001:00036ff0       _ValidateImageBase         0000000140037ff0 f   LIBCMT:pesect.obj
 0001:00037020       __GSHandlerCheck_SEH       0000000140038020 f   LIBCMT:gshandlerseh.obj
 0001:000370a8       strrchr                    00000001400380a8 f   libvcruntime:strrchr.obj
 0001:000371d8       strchr                     00000001400381d8 f   libvcruntime:strchr.obj
 0001:00037258       wcschr                     0000000140038258 f   libvcruntime:wcschr.obj
 0001:000372f0       _guard_dispatch_icall_nop  00000001400382f0 f   LIBCMT:guard_dispatch.obj
 0002:00000000       __imp_GetLastError         000000014003a000     kernel32:KERNEL32.dll
 0002:00000008       __imp_WideCharToMultiByte  000000014003a008     kernel32:KERNEL32.dll
 0002:00000010       __imp_EnterCriticalSection 000000014003a010     kernel32:KERNEL32.dll
 0002:00000018       __imp_LeaveCriticalSection 000000014003a018     kernel32:KERNEL32.dll
 0002:00000020       __imp_DeleteCriticalSection 000000014003a020     kernel32:KERNEL32.dll
 0002:00000028       __imp_SetLastError         000000014003a028     kernel32:KERNEL32.dll
 0002:00000030       __imp_InitializeCriticalSectionAndSpinCount 000000014003a030     kernel32:KERNEL32.dll
 0002:00000038       __imp_SwitchToThread       000000014003a038     kernel32:KERNEL32.dll
 0002:00000040       __imp_TlsAlloc             000000014003a040     kernel32:KERNEL32.dll
 0002:00000048       __imp_TlsGetValue          000000014003a048     kernel32:KERNEL32.dll
 0002:00000050       __imp_TlsSetValue          000000014003a050     kernel32:KERNEL32.dll
 0002:00000058       __imp_TlsFree              000000014003a058     kernel32:KERNEL32.dll
 0002:00000060       __imp_GetSystemTimeAsFileTime 000000014003a060     kernel32:KERNEL32.dll
 0002:00000068       __imp_GetModuleHandleW     000000014003a068     kernel32:KERNEL32.dll
 0002:00000070       __imp_GetProcAddress       000000014003a070     kernel32:KERNEL32.dll
 0002:00000078       __imp_EncodePointer        000000014003a078     kernel32:KERNEL32.dll
 0002:00000080       __imp_DecodePointer        000000014003a080     kernel32:KERNEL32.dll
 0002:00000088       __imp_MultiByteToWideChar  000000014003a088     kernel32:KERNEL32.dll
 0002:00000090       __imp_CompareStringW       000000014003a090     kernel32:KERNEL32.dll
 0002:00000098       __imp_LCMapStringW         000000014003a098     kernel32:KERNEL32.dll
 0002:000000a0       __imp_GetLocaleInfoW       000000014003a0a0     kernel32:KERNEL32.dll
 0002:000000a8       __imp_GetStringTypeW       000000014003a0a8     kernel32:KERNEL32.dll
 0002:000000b0       __imp_GetCPInfo            000000014003a0b0     kernel32:KERNEL32.dll
 0002:000000b8       __imp_RtlCaptureContext    000000014003a0b8     kernel32:KERNEL32.dll
 0002:000000c0       __imp_RtlLookupFunctionEntry 000000014003a0c0     kernel32:KERNEL32.dll
 0002:000000c8       __imp_RtlVirtualUnwind     000000014003a0c8     kernel32:KERNEL32.dll
 0002:000000d0       __imp_UnhandledExceptionFilter 000000014003a0d0     kernel32:KERNEL32.dll
 0002:000000d8       __imp_SetUnhandledExceptionFilter 000000014003a0d8     kernel32:KERNEL32.dll
 0002:000000e0       __imp_GetCurrentProcess    000000014003a0e0     kernel32:KERNEL32.dll
 0002:000000e8       __imp_TerminateProcess     000000014003a0e8     kernel32:KERNEL32.dll
 0002:000000f0       __imp_IsProcessorFeaturePresent 000000014003a0f0     kernel32:KERNEL32.dll
 0002:000000f8       __imp_QueryPerformanceCounter 000000014003a0f8     kernel32:KERNEL32.dll
 0002:00000100       __imp_GetCurrentProcessId  000000014003a100     kernel32:KERNEL32.dll
 0002:00000108       __imp_GetCurrentThreadId   000000014003a108     kernel32:KERNEL32.dll
 0002:00000110       __imp_InitializeSListHead  000000014003a110     kernel32:KERNEL32.dll
 0002:00000118       __imp_IsDebuggerPresent    000000014003a118     kernel32:KERNEL32.dll
 0002:00000120       __imp_GetStartupInfoW      000000014003a120     kernel32:KERNEL32.dll
 0002:00000128       __imp_RtlUnwindEx          000000014003a128     kernel32:KERNEL32.dll
 0002:00000130       __imp_RtlPcToFileHeader    000000014003a130     kernel32:KERNEL32.dll
 0002:00000138       __imp_RaiseException       000000014003a138     kernel32:KERNEL32.dll
 0002:00000140       __imp_FreeLibrary          000000014003a140     kernel32:KERNEL32.dll
 0002:00000148       __imp_LoadLibraryExW       000000014003a148     kernel32:KERNEL32.dll
 0002:00000150       __imp_GetStdHandle         000000014003a150     kernel32:KERNEL32.dll
 0002:00000158       __imp_WriteFile            000000014003a158     kernel32:KERNEL32.dll
 0002:00000160       __imp_GetModuleFileNameW   000000014003a160     kernel32:KERNEL32.dll
 0002:00000168       __imp_ExitProcess          000000014003a168     kernel32:KERNEL32.dll
 0002:00000170       __imp_GetModuleHandleExW   000000014003a170     kernel32:KERNEL32.dll
 0002:00000178       __imp_GetCommandLineA      000000014003a178     kernel32:KERNEL32.dll
 0002:00000180       __imp_GetCommandLineW      000000014003a180     kernel32:KERNEL32.dll
 0002:00000188       __imp_HeapAlloc            000000014003a188     kernel32:KERNEL32.dll
 0002:00000190       __imp_HeapFree             000000014003a190     kernel32:KERNEL32.dll
 0002:00000198       __imp_IsValidLocale        000000014003a198     kernel32:KERNEL32.dll
 0002:000001a0       __imp_GetUserDefaultLCID   000000014003a1a0     kernel32:KERNEL32.dll
 0002:000001a8       __imp_EnumSystemLocalesW   000000014003a1a8     kernel32:KERNEL32.dll
 0002:000001b0       __imp_GetFileType          000000014003a1b0     kernel32:KERNEL32.dll
 0002:000001b8       __imp_FlushFileBuffers     000000014003a1b8     kernel32:KERNEL32.dll
 0002:000001c0       __imp_GetConsoleCP         000000014003a1c0     kernel32:KERNEL32.dll
 0002:000001c8       __imp_GetConsoleMode       000000014003a1c8     kernel32:KERNEL32.dll
 0002:000001d0       __imp_SetStdHandle         000000014003a1d0     kernel32:KERNEL32.dll
 0002:000001d8       __imp_CloseHandle          000000014003a1d8     kernel32:KERNEL32.dll
 0002:000001e0       __imp_ReadFile             000000014003a1e0     kernel32:KERNEL32.dll
 0002:000001e8       __imp_ReadConsoleW         000000014003a1e8     kernel32:KERNEL32.dll
 0002:000001f0       __imp_SetFilePointerEx     000000014003a1f0     kernel32:KERNEL32.dll
 0002:000001f8       __imp_GetFileSizeEx        000000014003a1f8     kernel32:KERNEL32.dll
 0002:00000200       __imp_HeapReAlloc          000000014003a200     kernel32:KERNEL32.dll
 0002:00000208       __imp_FindClose            000000014003a208     kernel32:KERNEL32.dll
 0002:00000210       __imp_FindFirstFileExW     000000014003a210     kernel32:KERNEL32.dll
 0002:00000218       __imp_FindNextFileW        000000014003a218     kernel32:KERNEL32.dll
 0002:00000220       __imp_IsValidCodePage      000000014003a220     kernel32:KERNEL32.dll
 0002:00000228       __imp_GetACP               000000014003a228     kernel32:KERNEL32.dll
 0002:00000230       __imp_GetOEMCP             000000014003a230     kernel32:KERNEL32.dll
 0002:00000238       __imp_GetEnvironmentStringsW 000000014003a238     kernel32:KERNEL32.dll
 0002:00000240       __imp_FreeEnvironmentStringsW 000000014003a240     kernel32:KERNEL32.dll
 0002:00000248       __imp_SetEnvironmentVariableW 000000014003a248     kernel32:KERNEL32.dll
 0002:00000250       __imp_GetProcessHeap       000000014003a250     kernel32:KERNEL32.dll
 0002:00000258       __imp_CreateFileW          000000014003a258     kernel32:KERNEL32.dll
 0002:00000260       __imp_HeapSize             000000014003a260     kernel32:KERNEL32.dll
 0002:00000268       __imp_WriteConsoleW        000000014003a268     kernel32:KERNEL32.dll
 0002:00000270       __imp_SetEndOfFile         000000014003a270     kernel32:KERNEL32.dll
 0002:00000278       \177KERNEL32_NULL_THUNK_DATA 000000014003a278     kernel32:KERNEL32.dll
 0002:00000280       __guard_check_icall_fptr   000000014003a280     LIBCMT:guard_support.obj
 0002:00000288       __guard_dispatch_icall_fptr 000000014003a288     LIBCMT:guard_support.obj
 0002:00000290       __xc_a                     000000014003a290     LIBCMT:initializers.obj
 0002:000002c8       __xc_z                     000000014003a2c8     LIBCMT:initializers.obj
 0002:000002d0       __xi_a                     000000014003a2d0     LIBCMT:initializers.obj
 0002:000002f0       __acrt_stdio_initializer   000000014003a2f0     libucrt:stdio_initializer.obj
 0002:000002f8       __acrt_tran_fma3_initializer 000000014003a2f8     libucrt:fma3_initializer.obj
 0002:00000300       __acrt_timeset_initializer 000000014003a300     libucrt:timeset_initializer.obj
 0002:00000308       __acrt_multibyte_initializer 000000014003a308     libucrt:multibyte_initializer.obj
 0002:00000310       __xi_z                     000000014003a310     LIBCMT:initializers.obj
 0002:00000318       __xp_a                     000000014003a318     LIBCMT:initializers.obj
 0002:00000320       __acrt_locale_terminator   000000014003a320     libucrt:locale_initializer.obj
 0002:00000328       __dcrt_console_output_terminator 000000014003a328     libucrt:console_output_initializer.obj
 0002:00000330       __acrt_stdio_terminator    000000014003a330     libucrt:stdio_initializer.obj
 0002:00000338       __xp_z                     000000014003a338     LIBCMT:initializers.obj
 0002:00000340       __xt_a                     000000014003a340     LIBCMT:initializers.obj
 0002:00000348       __xt_z                     000000014003a348     LIBCMT:initializers.obj
 0002:0000046c       ??_C@_05MHOFLBOO@stdin@    000000014003a46c     main.obj
 0002:00000474       ??_C@_06DJDOIFHB@stdout@   000000014003a474     main.obj
 0002:00000480       ??_C@_0DD@FDONLIFF@Tune?5processing?5parameters?5for?5@ 000000014003a480     main.obj
 0002:000004b8       ??_C@_0DH@MJFLJNNP@Uses?532bit?5floating?5point?5sampl@ 000000014003a4b8     main.obj
 0002:000004f0       ??_C@_0DB@MPLJCNHD@Processing?5the?5file?5with?5the?5fo@ 000000014003a4f0     main.obj
 0002:00000528       ??_C@_0BJ@FBNIIHNI@?5?5tempo?5change?5?$DN?5?$CF?$CLg?5?$CF?$CF?6@ 000000014003a528     main.obj
 0002:00000548       ??_C@_0CA@OFMKNJMI@?5?5pitch?5change?5?$DN?5?$CF?$CLg?5semitones?6@ 000000014003a548     main.obj
 0002:00000568       ??_C@_0BK@IBIANPCF@?5?5rate?5change?5?5?$DN?5?$CF?$CLg?5?$CF?$CF?6?6@ 000000014003a568     main.obj
 0002:00000588       ??_C@_0L@MIDOPIHN@Working?4?4?4@ 000000014003a588     main.obj
 0002:00000598       ??_C@_0DM@KBHGDJFL@Warning?3?5output?5file?5name?5missi@ 000000014003a598     main.obj
 0002:000005d8       ??_C@_0BG@MGENNMAL@Detecting?5BPM?5rate?4?4?4@ 000000014003a5d8     main.obj
 0002:000005f0       ??_C@_06MCOPMGCE@Done?$CB?6@ 000000014003a5f0     main.obj
 0002:000005f8       ??_C@_0BJ@JJCIMDAH@Detected?5BPM?5rate?5?$CF?41f?6?6@ 000000014003a5f8     main.obj
 0002:00000618       ??_C@_0BM@EGBANPBA@Couldn?8t?5detect?5BPM?5rate?4?6?6@ 000000014003a618     main.obj
 0002:00000638       ??_C@_0CJ@PPHFFMDH@The?5file?5will?5be?5converted?5to?5?$CF@ 000000014003a638     main.obj
 0002:00000664       ??_C@_03OFAPEBGM@?$CFs?6@  000000014003a664     main.obj
 0002:00000668       __real@3f800000            000000014003a668     main.obj
 0002:0000066c       __real@42c80000            000000014003a66c     main.obj
 0002:00000dd0       ??_7exception@std@@6B@     000000014003add0     RunParameters.obj
 0002:00000de0       ??_C@_0BC@EOODALEL@Unknown?5exception@ 000000014003ade0     RunParameters.obj
 0002:00000e00       ??_7bad_alloc@std@@6B@     000000014003ae00     RunParameters.obj
 0002:00000e18       ??_7bad_array_new_length@std@@6B@ 000000014003ae18     RunParameters.obj
 0002:00000e28       ??_C@_0BF@KINCDENJ@bad?5array?5new?5length@ 000000014003ae28     RunParameters.obj
 0002:00000e48       ??_7runtime_error@std@@6B@ 000000014003ae48     RunParameters.obj
 0002:00000e58       ??_C@_0BM@KEBMFGNI@ERROR?5?3?5Illegal?5parameter?5?$CC@ 000000014003ae58     RunParameters.obj
 0002:00000e74       ??_C@_04DFEJMBNH@?$CC?4?6?6@ 000000014003ae74     RunParameters.obj
 0002:00000e80       ??_C@_0BI@CFPLBAOH@invalid?5string?5position@ 000000014003ae80     RunParameters.obj
 0002:00000e98       ??_C@_0BA@JFNIOLAK@string?5too?5long@ 000000014003ae98     RunParameters.obj
 0002:00000ea8       __real@42700000            000000014003aea8     RunParameters.obj
 0002:00000eac       __real@459c4000            000000014003aeac     RunParameters.obj
 0002:00000eb0       __real@c2700000            000000014003aeb0     RunParameters.obj
 0002:00000eb4       __real@c2be0000            000000014003aeb4     RunParameters.obj
 0002:00000ee8       ??_7_System_error@std@@6B@ 000000014003aee8     WavFile.obj
 0002:00000ef8       ??_C@_02LMMGGCAJ@?3?5@     000000014003aef8     WavFile.obj
 0002:00000f08       ??_7system_error@std@@6B@  000000014003af08     WavFile.obj
 0002:00000f18       ??_C@_00CNPNBAHC@@         000000014003af18     WavFile.obj
 0002:00000f28       ??_7_Iostream_error_category@std@@6B@ 000000014003af28     WavFile.obj
 0002:00000f58       ??_C@_08LLGCOLLL@iostream@ 000000014003af58     WavFile.obj
 0002:00000f68       ??_C@_0BG@PADBLCHM@iostream?5stream?5error@ 000000014003af68     WavFile.obj
 0002:00000f88       ??_7bad_cast@std@@6B@      000000014003af88     WavFile.obj
 0002:00000f98       ??_C@_08EPJLHIJG@bad?5cast@ 000000014003af98     WavFile.obj
 0002:00000fb0       ??_7_Facet_base@std@@6B@   000000014003afb0     WavFile.obj
 0002:00000fc8       ??_C@_0BA@ELKIONDK@bad?5locale?5name@ 000000014003afc8     WavFile.obj
 0002:00000fd8       ??_C@_05LAPONLG@false@     000000014003afd8     WavFile.obj
 0002:00000fe0       ??_C@_04LOAJBDKD@true@     000000014003afe0     WavFile.obj
 0002:00000ff0       ??_7?$ctype@D@std@@6B@     000000014003aff0     WavFile.obj
 0002:00001050       ??_7failure@ios_base@std@@6B@ 000000014003b050     WavFile.obj
 0002:00001068       ??_7ios_base@std@@6B@      000000014003b068     WavFile.obj
 0002:00001070       ??_C@_0BF@PHHKMMFD@ios_base?3?3badbit?5set@ 000000014003b070     WavFile.obj
 0002:00001088       ??_C@_0BG@FMKFHCIL@ios_base?3?3failbit?5set@ 000000014003b088     WavFile.obj
 0002:000010a0       ??_C@_0BF@OOHOMBOF@ios_base?3?3eofbit?5set@ 000000014003b0a0     WavFile.obj
 0002:000010c0       ??_7WavFileBase@@6B@       000000014003b0c0     WavFile.obj
 0002:000010d0       ??_7WavInFile@@6B@         000000014003b0d0     WavFile.obj
 0002:000010e0       ??_7WavOutFile@@6B@        000000014003b0e0     WavFile.obj
 0002:000010e8       ??_C@_02JDPG@rb@           000000014003b0e8     WavFile.obj
 0002:000010f0       ??_C@_0BO@POIIOMFD@Error?5?3?5Unable?5to?5open?5file?5?$CC@ 000000014003b0f0     WavFile.obj
 0002:00001110       ??_C@_0P@CJHGBLMD@?$CC?5for?5reading?4@ 000000014003b110     WavFile.obj
 0002:00001120       ??_C@_0DC@GGICLKLA@Error?5?3?5Unable?5to?5access?5input?5@ 000000014003b120     WavFile.obj
 0002:00001158       ??_C@_0CI@PMFDMCDN@Input?5file?5is?5corrupt?5or?5not?5a?5@ 000000014003b158     WavFile.obj
 0002:00001180       ??_C@_0DC@IBLPELMN@Error?3?5Illegal?5wav?5file?5header?5@ 000000014003b180     WavFile.obj
 0002:000011c0       ??_7?$basic_ios@DU?$char_traits@D@std@@@std@@6B@ 000000014003b1c0     WavFile.obj
 0002:000011d0       ??_7?$basic_istream@DU?$char_traits@D@std@@@std@@6B@ 000000014003b1d0     WavFile.obj
 0002:000011d8       ??_8?$basic_istream@DU?$char_traits@D@std@@@std@@7B@ 000000014003b1d8     WavFile.obj
 0002:000011e8       ??_7?$basic_ostream@DU?$char_traits@D@std@@@std@@6B@ 000000014003b1e8     WavFile.obj
 0002:000011f8       ??_7?$basic_iostream@DU?$char_traits@D@std@@@std@@6B@ 000000014003b1f8     WavFile.obj
 0002:00001208       ??_7?$basic_streambuf@DU?$char_traits@D@std@@@std@@6B@ 000000014003b208     WavFile.obj
 0002:00001288       ??_7?$basic_stringbuf@DU?$char_traits@D@std@@V?$allocator@D@2@@std@@6B@ 000000014003b288     WavFile.obj
 0002:00001308       ??_7?$basic_stringstream@DU?$char_traits@D@std@@V?$allocator@D@2@@std@@6B@ 000000014003b308     WavFile.obj
 0002:00001310       ??_8?$basic_stringstream@DU?$char_traits@D@std@@V?$allocator@D@2@@std@@7B?$basic_istream@DU?$char_traits@D@std@@@1@@ 000000014003b310     WavFile.obj
 0002:00001318       ??_8?$basic_stringstream@DU?$char_traits@D@std@@V?$allocator@D@2@@std@@7B?$basic_ostream@DU?$char_traits@D@std@@@1@@ 000000014003b318     WavFile.obj
 0002:00001320       ??_C@_0BF@FEBMFMJM@?5bit?5sample?5format?4?5@ 000000014003b320     WavFile.obj
 0002:00001340       ??_C@_0EL@PFELHHEH@?6Only?58?116?124?132?5bit?5sample?5WAV@ 000000014003b340     WavFile.obj
 0002:0000138c       ??_C@_02GMLFBBN@wb@        000000014003b38c     WavFile.obj
 0002:00001390       ??_C@_0P@CFKGCKEC@?$CC?5for?5writing?4@ 000000014003b390     WavFile.obj
 0002:000013a0       ??_C@_0CN@LMOFAJOG@Error?5?3?5Unable?5to?5access?5output@ 000000014003b3a0     WavFile.obj
 0002:000013d0       ??_C@_0CD@POHOOOIB@Error?5while?5writing?5to?5a?5wav?5fi@ 000000014003b3d0     WavFile.obj
 0002:00001400       ??_7?$num_put@DV?$ostreambuf_iterator@DU?$char_traits@D@std@@@std@@@std@@6B@ 000000014003b400     WavFile.obj
 0002:00001458       ??_C@_02BBAHNLBA@?$CFp@    000000014003b458     WavFile.obj
 0002:00001468       ??_7?$numpunct@D@std@@6B@  000000014003b468     WavFile.obj
 0002:000014a8       ??_C@_02MDKMJEGG@eE@       000000014003b4a8     WavFile.obj
 0002:000014ac       ??_C@_02OOPEBDOJ@pP@       000000014003b4ac     WavFile.obj
 0002:000014b0       __real@3e00000000000000    000000014003b4b0     WavFile.obj
 0002:000014b8       __real@3e80000000000000    000000014003b4b8     WavFile.obj
 0002:000014c0       __real@3f00000000000000    000000014003b4c0     WavFile.obj
 0002:000014c8       __real@3f80000000000000    000000014003b4c8     WavFile.obj
 0002:000014d0       __real@3fe0000000000000    000000014003b4d0     WavFile.obj
 0002:000014d8       __real@3ff0000000000000    000000014003b4d8     WavFile.obj
 0002:000014e0       __real@4202a05f20000000    000000014003b4e0     WavFile.obj
 0002:000014e8       __real@43000000            000000014003b4e8     WavFile.obj
 0002:000014ec       __real@437f0000            000000014003b4ec     WavFile.obj
 0002:000014f0       __real@46fffe00            000000014003b4f0     WavFile.obj
 0002:000014f4       __real@47000000            000000014003b4f4     WavFile.obj
 0002:000014f8       __real@4afffffe            000000014003b4f8     WavFile.obj
 0002:000014fc       __real@4b000000            000000014003b4fc     WavFile.obj
 0002:00001500       __real@4f000000            000000014003b500     WavFile.obj
 0002:00001504       __real@c7000000            000000014003b504     WavFile.obj
 0002:00001508       __real@cb000000            000000014003b508     WavFile.obj
 0002:0000150c       __real@cf000000            000000014003b50c     WavFile.obj
 0002:00001510       __xmm@00ff00ff00ff00ff00ff00ff00ff00ff 000000014003b510     WavFile.obj
 0002:00001520       __xmm@3e000000000000003e00000000000000 000000014003b520     WavFile.obj
 0002:00001530       __xmm@3f000000000000003f00000000000000 000000014003b530     WavFile.obj
 0002:00001540       __xmm@3f800000000000003f80000000000000 000000014003b540     WavFile.obj
 0002:00001550       __xmm@3ff00000000000003ff0000000000000 000000014003b550     WavFile.obj
 0002:00001560       __xmm@43000000430000004300000043000000 000000014003b560     WavFile.obj
 0002:00001570       __xmm@437f0000437f0000437f0000437f0000 000000014003b570     WavFile.obj
 0002:00001580       __xmm@46fffe0046fffe0046fffe0046fffe00 000000014003b580     WavFile.obj
 0002:00001590       __xmm@47000000470000004700000047000000 000000014003b590     WavFile.obj
 0002:000015a0       __xmm@4f0000004f0000004f0000004f000000 000000014003b5a0     WavFile.obj
 0002:000015b0       __xmm@7fffffffffffffff7fffffffffffffff 000000014003b5b0     WavFile.obj
 0002:000015c0       __xmm@c7000000c7000000c7000000c7000000 000000014003b5c0     WavFile.obj
 0002:000015d0       __xmm@cf000000cf000000cf000000cf000000 000000014003b5d0     WavFile.obj
 0002:000015e8       ??_7FIFOSamplePipe@soundtouch@@6B@ 000000014003b5e8     SoundTouch_x64:SoundTouch.obj
 0002:00001630       ??_C@_0CC@JCNACOLO@Error?3?5Illegal?5number?5of?5channe@ 000000014003b630     SoundTouch_x64:SoundTouch.obj
 0002:00001660       ??_7SoundTouch@soundtouch@@6B@ 000000014003b660     SoundTouch_x64:SoundTouch.obj
 0002:000016b0       ??_C@_05PHFBPIIB@2?41?43@  000000014003b6b0     SoundTouch_x64:SoundTouch.obj
 0002:000016b8       ??_C@_0CF@KDONAOAJ@SoundTouch?5?3?5Sample?5rate?5not?5de@ 000000014003b6b8     SoundTouch_x64:SoundTouch.obj
 0002:000016e0       ??_C@_0CM@KFNJOLLJ@SoundTouch?5?3?5Number?5of?5channels@ 000000014003b6e0     SoundTouch_x64:SoundTouch.obj
 0002:00001710       __real@3ddb7cdfd9d7bdbb    000000014003b710     SoundTouch_x64:SoundTouch.obj
 0002:00001718       __real@3f847ae147ae147b    000000014003b718     SoundTouch_x64:SoundTouch.obj
 0002:00001720       __real@3fad9303fea2fa7a    000000014003b720     SoundTouch_x64:SoundTouch.obj
 0002:00001758       ??_7BPMDetect@soundtouch@@6B@ 000000014003b758     SoundTouch_x64:BPMDetect.obj
 0002:00001760       ??_C@_0BF@OEDFFPFH@Too?5small?5samplerate@ 000000014003b760     SoundTouch_x64:BPMDetect.obj
 0002:00001778       ??_C@_0BA@FOIKENOD@vector?5too?5long@ 000000014003b778     SoundTouch_x64:BPMDetect.obj
 0002:00001788       __real@3e112e0be826d695    000000014003b788     SoundTouch_x64:BPMDetect.obj
 0002:00001790       __real@3f0179ec9cbd821e    000000014003b790     SoundTouch_x64:BPMDetect.obj
 0002:00001798       __real@3fbeb851eb851eb8    000000014003b798     SoundTouch_x64:BPMDetect.obj
 0002:000017a0       __real@3fdd70a3d70a3d71    000000014003b7a0     SoundTouch_x64:BPMDetect.obj
 0002:000017a8       __real@3fe147ae147ae148    000000014003b7a8     SoundTouch_x64:BPMDetect.obj
 0002:000017b0       __real@401921fb54442d18    000000014003b7b0     SoundTouch_x64:BPMDetect.obj
 0002:000017b8       __real@404e000000000000    000000014003b7b8     SoundTouch_x64:BPMDetect.obj
 0002:000017c0       __real@42340000            000000014003b7c0     SoundTouch_x64:BPMDetect.obj
 0002:000017c4       __real@433e0000            000000014003b7c4     SoundTouch_x64:BPMDetect.obj
 0002:000017c8       __real@7f7fffff            000000014003b7c8     SoundTouch_x64:BPMDetect.obj
 0002:000017d0       __xmm@00000003000000020000000100000000 000000014003b7d0     SoundTouch_x64:BPMDetect.obj
 0002:000017e0       __xmm@3fdd70a3d70a3d713fdd70a3d70a3d71 000000014003b7e0     SoundTouch_x64:BPMDetect.obj
 0002:000017f0       __xmm@3fe147ae147ae1483fe147ae147ae148 000000014003b7f0     SoundTouch_x64:BPMDetect.obj
 0002:00001800       __xmm@401921fb54442d18401921fb54442d18 000000014003b800     SoundTouch_x64:BPMDetect.obj
 0002:00001810       __xmm@7fffffff7fffffff7fffffff7fffffff 000000014003b810     SoundTouch_x64:BPMDetect.obj
 0002:00001820       __real@40d0000000000000    000000014003b820     SoundTouch_x64:AAFilter.obj
 0002:00001828       __real@bfe0000000000000    000000014003b828     SoundTouch_x64:AAFilter.obj
 0002:00001838       ??_7TransposerBase@soundtouch@@6B@ 000000014003b838     SoundTouch_x64:RateTransposer.obj
 0002:00001880       ??_7RateTransposer@soundtouch@@6B@ 000000014003b880     SoundTouch_x64:RateTransposer.obj
 0002:000018d8       ??_7TDStretch@soundtouch@@6B@ 000000014003b8d8     SoundTouch_x64:TDStretch.obj
 0002:00001970       ??_7TDStretchSSE@soundtouch@@6B@ 000000014003b970     SoundTouch_x64:TDStretch.obj
 0002:00001a00       ??_C@_0BM@IGHGPEGH@Error?3?5Excessive?5samplerate@ 000000014003ba00     SoundTouch_x64:TDStretch.obj
 0002:00001a1c       __real@3dcccccd            000000014003ba1c     SoundTouch_x64:TDStretch.obj
 0002:00001a20       __real@3e800000            000000014003ba20     SoundTouch_x64:TDStretch.obj
 0002:00001a28       __real@3fb3333333333334    000000014003ba28     SoundTouch_x64:TDStretch.obj
 0002:00001a30       __real@3fb999999999999a    000000014003ba30     SoundTouch_x64:TDStretch.obj
 0002:00001a38       __real@3fd0000000000000    000000014003ba38     SoundTouch_x64:TDStretch.obj
 0002:00001a40       __real@3fe8000000000000    000000014003ba40     SoundTouch_x64:TDStretch.obj
 0002:00001a48       __real@400aaaaaaaaaaaab    000000014003ba48     SoundTouch_x64:TDStretch.obj
 0002:00001a50       __real@402e000000000000    000000014003ba50     SoundTouch_x64:TDStretch.obj
 0002:00001a58       __real@4034000000000000    000000014003ba58     SoundTouch_x64:TDStretch.obj
 0002:00001a60       __real@4035aaaaaaaaaaab    000000014003ba60     SoundTouch_x64:TDStretch.obj
 0002:00001a68       __real@4040aaaaaaaaaaab    000000014003ba68     SoundTouch_x64:TDStretch.obj
 0002:00001a70       __real@4044000000000000    000000014003ba70     SoundTouch_x64:TDStretch.obj
 0002:00001a78       __real@4056800000000000    000000014003ba78     SoundTouch_x64:TDStretch.obj
 0002:00001a80       __real@405aaaaaaaaaaaab    000000014003ba80     SoundTouch_x64:TDStretch.obj
 0002:00001a88       __real@bf800000            000000014003ba88     SoundTouch_x64:TDStretch.obj
 0002:00001a8c       __real@ff7fffff            000000014003ba8c     SoundTouch_x64:TDStretch.obj
 0002:00001a98       ??_7FIFOSampleBuffer@soundtouch@@6B@ 000000014003ba98     SoundTouch_x64:FIFOSampleBuffer.obj
 0002:00001ae8       ??_C@_0BL@PHLLELPN@Couldn?8t?5allocate?5memory?$CB?6@ 000000014003bae8     SoundTouch_x64:FIFOSampleBuffer.obj
 0002:00001b04       __real@3e19999a            000000014003bb04     SoundTouch_x64:PeakFinder.obj
 0002:00001b08       __real@3eb0c6f7a0b5ed8d    000000014003bb08     SoundTouch_x64:PeakFinder.obj
 0002:00001b10       __real@3f333333            000000014003bb10     SoundTouch_x64:PeakFinder.obj
 0002:00001b18       __real@3fd999999999999a    000000014003bb18     SoundTouch_x64:PeakFinder.obj
 0002:00001b20       __real@3feeb851eb851eb8    000000014003bb20     SoundTouch_x64:PeakFinder.obj
 0002:00001b28       __real@3ff0a3d70a3d70a4    000000014003bb28     SoundTouch_x64:PeakFinder.obj
 0002:00001b30       __real@4000000000000000    000000014003bb30     SoundTouch_x64:PeakFinder.obj
 0002:00001b40       ??_7FIRFilter@soundtouch@@6B@ 000000014003bb40     SoundTouch_x64:FIRFilter.obj
 0002:00001b68       ??_C@_0CF@BKNILALE@FIR?5filter?5length?5not?5divisible@ 000000014003bb68     SoundTouch_x64:FIRFilter.obj
 0002:00001b98       ??_7InterpolateLinearFloat@soundtouch@@6B@ 000000014003bb98     SoundTouch_x64:InterpolateLinear.obj
 0002:00001be0       ??_7InterpolateCubic@soundtouch@@6B@ 000000014003bbe0     SoundTouch_x64:InterpolateCubic.obj
 0002:00001c20       __real@3f000000            000000014003bc20     SoundTouch_x64:InterpolateCubic.obj
 0002:00001c24       __real@3fc00000            000000014003bc24     SoundTouch_x64:InterpolateCubic.obj
 0002:00001c28       __real@40200000            000000014003bc28     SoundTouch_x64:InterpolateCubic.obj
 0002:00001c38       ??_7InterpolateShannon@soundtouch@@6B@ 000000014003bc38     SoundTouch_x64:InterpolateShannon.obj
 0002:00001c78       __real@3ee4f8b588e368f1    000000014003bc78     SoundTouch_x64:InterpolateShannon.obj
 0002:00001c80       __real@3fdabd0567ac8f56    000000014003bc80     SoundTouch_x64:InterpolateShannon.obj
 0002:00001c88       __real@3fe4c3a083dc3b8b    000000014003bc88     SoundTouch_x64:InterpolateShannon.obj
 0002:00001c90       __real@3feab9057c9bbd30    000000014003bc90     SoundTouch_x64:InterpolateShannon.obj
 0002:00001c98       __real@3fee0b4b161214e8    000000014003bc98     SoundTouch_x64:InterpolateShannon.obj
 0002:00001ca0       __real@4008000000000000    000000014003bca0     SoundTouch_x64:InterpolateShannon.obj
 0002:00001ca8       __real@400921fb544486e0    000000014003bca8     SoundTouch_x64:InterpolateShannon.obj
 0002:00001cb0       __real@4010000000000000    000000014003bcb0     SoundTouch_x64:InterpolateShannon.obj
 0002:00001cb8       __real@401921fb544486e0    000000014003bcb8     SoundTouch_x64:InterpolateShannon.obj
 0002:00001cc0       __real@bfee0b4b161214e8    000000014003bcc0     SoundTouch_x64:InterpolateShannon.obj
 0002:00001cc8       __real@bff0000000000000    000000014003bcc8     SoundTouch_x64:InterpolateShannon.obj
 0002:00001cd0       __real@c000000000000000    000000014003bcd0     SoundTouch_x64:InterpolateShannon.obj
 0002:00001cd8       __real@c008000000000000    000000014003bcd8     SoundTouch_x64:InterpolateShannon.obj
 0002:00001ce0       __real@c00921fb544486e0    000000014003bce0     SoundTouch_x64:InterpolateShannon.obj
 0002:00001cf0       ??_7FIRFilterSSE@soundtouch@@6B@ 000000014003bcf0     SoundTouch_x64:sse_optimized.obj
 0002:00001d18       __real@ca511b0ec57e649a    000000014003bd18     SoundTouch_x64:sse_optimized.obj
 0002:00001d20       ??_C@_0P@GHFPNOJB@bad?5allocation@ 000000014003bd20     libcpmt:xthrow.obj
 0002:00001d38       ??_7logic_error@std@@6B@   000000014003bd38     libcpmt:xthrow.obj
 0002:00001d50       ??_7length_error@std@@6B@  000000014003bd50     libcpmt:xthrow.obj
 0002:00001d68       ??_7out_of_range@std@@6B@  000000014003bd68     libcpmt:xthrow.obj
 0002:00001d78       ??_C@_0O@BFJCFAAK@unknown?5error@ 000000014003bd78     libcpmt:xonce.obj
 0002:000024e0       ??_C@_0BN@LKKBCCDB@address?5family?5not?5supported@ 000000014003c4e0     libcpmt:syserror.obj
 0002:00002500       ??_C@_0P@LDMLAFHI@address?5in?5use@ 000000014003c500     libcpmt:syserror.obj
 0002:00002510       ??_C@_0BG@DHPCNBJB@address?5not?5available@ 000000014003c510     libcpmt:syserror.obj
 0002:00002528       ??_C@_0BC@DFIBIBIL@already?5connected@ 000000014003c528     libcpmt:syserror.obj
 0002:00002540       ??_C@_0BH@CAKOHOMI@argument?5list?5too?5long@ 000000014003c540     libcpmt:syserror.obj
 0002:00002558       ??_C@_0BH@CGIMPKIM@argument?5out?5of?5domain@ 000000014003c558     libcpmt:syserror.obj
 0002:00002570       ??_C@_0M@KGHGGJGL@bad?5address@ 000000014003c570     libcpmt:syserror.obj
 0002:00002580       ??_C@_0BE@MPJPGCEO@bad?5file?5descriptor@ 000000014003c580     libcpmt:syserror.obj
 0002:00002598       ??_C@_0M@PMMIEFCP@bad?5message@ 000000014003c598     libcpmt:syserror.obj
 0002:000025a8       ??_C@_0M@KPHOFDBE@broken?5pipe@ 000000014003c5a8     libcpmt:syserror.obj
 0002:000025b8       ??_C@_0BD@MGNDDEGM@connection?5aborted@ 000000014003c5b8     libcpmt:syserror.obj
 0002:000025d0       ??_C@_0BP@KAIHPOGN@connection?5already?5in?5progress@ 000000014003c5d0     libcpmt:syserror.obj
 0002:000025f0       ??_C@_0BD@PJLIIJEL@connection?5refused@ 000000014003c5f0     libcpmt:syserror.obj
 0002:00002608       ??_C@_0BB@IECNJNOI@connection?5reset@ 000000014003c608     libcpmt:syserror.obj
 0002:00002620       ??_C@_0BC@PPHBOELF@cross?5device?5link@ 000000014003c620     libcpmt:syserror.obj
 0002:00002638       ??_C@_0BN@KDMIFEIP@destination?5address?5required@ 000000014003c638     libcpmt:syserror.obj
 0002:00002658       ??_C@_0BI@NGCEHDD@device?5or?5resource?5busy@ 000000014003c658     libcpmt:syserror.obj
 0002:00002670       ??_C@_0BE@JIDOCPHM@directory?5not?5empty@ 000000014003c670     libcpmt:syserror.obj
 0002:00002688       ??_C@_0BI@BNCLIGPB@executable?5format?5error@ 000000014003c688     libcpmt:syserror.obj
 0002:000026a0       ??_C@_0M@MIDIAGJP@file?5exists@ 000000014003c6a0     libcpmt:syserror.obj
 0002:000026b0       ??_C@_0P@DNAJLBJK@file?5too?5large@ 000000014003c6b0     libcpmt:syserror.obj
 0002:000026c0       ??_C@_0BC@EJHOMAAK@filename?5too?5long@ 000000014003c6c0     libcpmt:syserror.obj
 0002:000026d8       ??_C@_0BH@KEFGLDAF@function?5not?5supported@ 000000014003c6d8     libcpmt:syserror.obj
 0002:000026f0       ??_C@_0BB@DHFDFGDM@host?5unreachable@ 000000014003c6f0     libcpmt:syserror.obj
 0002:00002708       ??_C@_0BD@JPHBMONG@identifier?5removed@ 000000014003c708     libcpmt:syserror.obj
 0002:00002720       ??_C@_0BG@CDNPAGJK@illegal?5byte?5sequence@ 000000014003c720     libcpmt:syserror.obj
 0002:00002738       ??_C@_0CD@BNPLBMNA@inappropriate?5io?5control?5operat@ 000000014003c738     libcpmt:syserror.obj
 0002:00002760       ??_C@_0M@EGEKIIMP@interrupted@ 000000014003c760     libcpmt:syserror.obj
 0002:00002770       ??_C@_0BB@FCMFBGOM@invalid?5argument@ 000000014003c770     libcpmt:syserror.obj
 0002:00002788       ??_C@_0N@OHAFKDEK@invalid?5seek@ 000000014003c788     libcpmt:syserror.obj
 0002:00002798       ??_C@_08GLNPIFBN@io?5error@ 000000014003c798     libcpmt:syserror.obj
 0002:000027a8       ??_C@_0P@FLLDBIDK@is?5a?5directory@ 000000014003c7a8     libcpmt:syserror.obj
 0002:000027b8       ??_C@_0N@IFLPBIOP@message?5size@ 000000014003c7b8     libcpmt:syserror.obj
 0002:000027c8       ??_C@_0N@KIIEAAIO@network?5down@ 000000014003c7c8     libcpmt:syserror.obj
 0002:000027d8       ??_C@_0O@FNPDBHEE@network?5reset@ 000000014003c7d8     libcpmt:syserror.obj
 0002:000027e8       ??_C@_0BE@IFNCKGE@network?5unreachable@ 000000014003c7e8     libcpmt:syserror.obj
 0002:00002800       ??_C@_0BA@PFFCAOFK@no?5buffer?5space@ 000000014003c800     libcpmt:syserror.obj
 0002:00002810       ??_C@_0BB@IEPBLJHK@no?5child?5process@ 000000014003c810     libcpmt:syserror.obj
 0002:00002828       ??_C@_07PLECNNKG@no?5link@ 000000014003c828     libcpmt:syserror.obj
 0002:00002830       ??_C@_0BC@NJECKMKE@no?5lock?5available@ 000000014003c830     libcpmt:syserror.obj
 0002:00002848       ??_C@_0BF@PBGGPKKE@no?5message?5available@ 000000014003c848     libcpmt:syserror.obj
 0002:00002860       ??_C@_0L@EDOLMPAK@no?5message@ 000000014003c860     libcpmt:syserror.obj
 0002:00002870       ??_C@_0BD@EAMBFIDF@no?5protocol?5option@ 000000014003c870     libcpmt:syserror.obj
 0002:00002888       ??_C@_0BD@IJDJKDEA@no?5space?5on?5device@ 000000014003c888     libcpmt:syserror.obj
 0002:000028a0       ??_C@_0BE@MKFDAFMP@no?5stream?5resources@ 000000014003c8a0     libcpmt:syserror.obj
 0002:000028b8       ??_C@_0BK@IMCPHCBI@no?5such?5device?5or?5address@ 000000014003c8b8     libcpmt:syserror.obj
 0002:000028d8       ??_C@_0P@FDINDDOK@no?5such?5device@ 000000014003c8d8     libcpmt:syserror.obj
 0002:000028e8       ??_C@_0BK@NDOCBPGE@no?5such?5file?5or?5directory@ 000000014003c8e8     libcpmt:syserror.obj
 0002:00002908       ??_C@_0BA@ENLPPKBN@no?5such?5process@ 000000014003c908     libcpmt:syserror.obj
 0002:00002918       ??_C@_0BA@DOCPFFJG@not?5a?5directory@ 000000014003c918     libcpmt:syserror.obj
 0002:00002928       ??_C@_0N@POEIPGGF@not?5a?5socket@ 000000014003c928     libcpmt:syserror.obj
 0002:00002938       ??_C@_0N@LGAPMMPI@not?5a?5stream@ 000000014003c938     libcpmt:syserror.obj
 0002:00002948       ??_C@_0O@GLMIBBEG@not?5connected@ 000000014003c948     libcpmt:syserror.obj
 0002:00002958       ??_C@_0BC@ENOOLCNF@not?5enough?5memory@ 000000014003c958     libcpmt:syserror.obj
 0002:00002970       ??_C@_0O@NHEDABJP@not?5supported@ 000000014003c970     libcpmt:syserror.obj
 0002:00002980       ??_C@_0BD@MOLBPMEA@operation?5canceled@ 000000014003c980     libcpmt:syserror.obj
 0002:00002998       ??_C@_0BG@KDKHOPCO@operation?5in?5progress@ 000000014003c998     libcpmt:syserror.obj
 0002:000029b0       ??_C@_0BI@OHIEJAAB@operation?5not?5permitted@ 000000014003c9b0     libcpmt:syserror.obj
 0002:000029c8       ??_C@_0BI@LNEGIFLN@operation?5not?5supported@ 000000014003c9c8     libcpmt:syserror.obj
 0002:000029e0       ??_C@_0BG@OEMDKMEE@operation?5would?5block@ 000000014003c9e0     libcpmt:syserror.obj
 0002:000029f8       ??_C@_0L@BLPOFLNJ@owner?5dead@ 000000014003c9f8     libcpmt:syserror.obj
 0002:00002a08       ??_C@_0BC@CIJDGCDI@permission?5denied@ 000000014003ca08     libcpmt:syserror.obj
 0002:00002a20       ??_C@_0P@FNPOCJBE@protocol?5error@ 000000014003ca20     libcpmt:syserror.obj
 0002:00002a30       ??_C@_0BH@JPPPLHJB@protocol?5not?5supported@ 000000014003ca30     libcpmt:syserror.obj
 0002:00002a48       ??_C@_0BG@EICBIHDP@read?5only?5file?5system@ 000000014003ca48     libcpmt:syserror.obj
 0002:00002a60       ??_C@_0BO@BJBOMOEJ@resource?5deadlock?5would?5occur@ 000000014003ca60     libcpmt:syserror.obj
 0002:00002a80       ??_C@_0BP@LKNGHENJ@resource?5unavailable?5try?5again@ 000000014003ca80     libcpmt:syserror.obj
 0002:00002aa0       ??_C@_0BE@GOIPJJHG@result?5out?5of?5range@ 000000014003caa0     libcpmt:syserror.obj
 0002:00002ab8       ??_C@_0BG@MPLKFPAE@state?5not?5recoverable@ 000000014003cab8     libcpmt:syserror.obj
 0002:00002ad0       ??_C@_0P@DIIFGFCG@stream?5timeout@ 000000014003cad0     libcpmt:syserror.obj
 0002:00002ae0       ??_C@_0P@IPFDMIFL@text?5file?5busy@ 000000014003cae0     libcpmt:syserror.obj
 0002:00002af0       ??_C@_09KJPPMAOI@timed?5out@ 000000014003caf0     libcpmt:syserror.obj
 0002:00002b00       ??_C@_0BO@HACHBEKI@too?5many?5files?5open?5in?5system@ 000000014003cb00     libcpmt:syserror.obj
 0002:00002b20       ??_C@_0BE@GHAFMPAH@too?5many?5files?5open@ 000000014003cb20     libcpmt:syserror.obj
 0002:00002b38       ??_C@_0P@HCOMKFCC@too?5many?5links@ 000000014003cb38     libcpmt:syserror.obj
 0002:00002b48       ??_C@_0BO@EFGOJEF@too?5many?5symbolic?5link?5levels@ 000000014003cb48     libcpmt:syserror.obj
 0002:00002b68       ??_C@_0BA@KGKGOOJA@value?5too?5large@ 000000014003cb68     libcpmt:syserror.obj
 0002:00002b78       ??_C@_0BE@MIEJDDNH@wrong?5protocol?5type@ 000000014003cb78     libcpmt:syserror.obj
 0002:00002bc0       ??_7_Locimp@locale@std@@6B@ 000000014003cbc0     libcpmt:locale0.obj
 0002:00002bd8       ??_C@_01NBENCBCI@?$CK@     000000014003cbd8     libcpmt:locale0.obj
 0002:00002bdc       ??_C@_01GFHCPBMG@C@        000000014003cbdc     libcpmt:locale0.obj
 0002:00002be0       ?_BADOFF@std@@3_JB         000000014003cbe0     libcpmt:ios.obj
 0002:00002c10       ??_C@_1BK@MGMFAEKH@?$AAk?$AAe?$AAr?$AAn?$AAe?$AAl?$AA3?$AA2?$AA?4?$AAd?$AAl?$AAl@ 000000014003cc10     libcpmt:winapisupp.obj
 0002:00002c30       ??_C@_08KNHFBNJ@FlsAlloc@  000000014003cc30     libcpmt:winapisupp.obj
 0002:00002c40       ??_C@_07PEJMOBNF@FlsFree@  000000014003cc40     libcpmt:winapisupp.obj
 0002:00002c48       ??_C@_0M@GDNOONDI@FlsGetValue@ 000000014003cc48     libcpmt:winapisupp.obj
 0002:00002c58       ??_C@_0M@JCPCPOEF@FlsSetValue@ 000000014003cc58     libcpmt:winapisupp.obj
 0002:00002c68       ??_C@_0BM@HCFOFFN@InitializeCriticalSectionEx@ 000000014003cc68     libcpmt:winapisupp.obj
 0002:00002c88       ??_C@_0BE@GPLMMCMH@InitOnceExecuteOnce@ 000000014003cc88     libcpmt:winapisupp.obj
 0002:00002ca0       ??_C@_0P@DLHPPCNH@CreateEventExW@ 000000014003cca0     libcpmt:winapisupp.obj
 0002:00002cb0       ??_C@_0BB@MEFPJLHN@CreateSemaphoreW@ 000000014003ccb0     libcpmt:winapisupp.obj
 0002:00002cc8       ??_C@_0BD@KIEEOEEH@CreateSemaphoreExW@ 000000014003ccc8     libcpmt:winapisupp.obj
 0002:00002ce0       ??_C@_0BG@OGFAJCKC@CreateThreadpoolTimer@ 000000014003cce0     libcpmt:winapisupp.obj
 0002:00002cf8       ??_C@_0BD@LPLEMMDI@SetThreadpoolTimer@ 000000014003ccf8     libcpmt:winapisupp.obj
 0002:00002d10       ??_C@_0CA@FMNJENH@WaitForThreadpoolTimerCallbacks@ 000000014003cd10     libcpmt:winapisupp.obj
 0002:00002d30       ??_C@_0BF@DCFCCNOC@CloseThreadpoolTimer@ 000000014003cd30     libcpmt:winapisupp.obj
 0002:00002d48       ??_C@_0BF@FLABGKKM@CreateThreadpoolWait@ 000000014003cd48     libcpmt:winapisupp.obj
 0002:00002d60       ??_C@_0BC@MGCOHNA@SetThreadpoolWait@ 000000014003cd60     libcpmt:winapisupp.obj
 0002:00002d78       ??_C@_0BE@OCIOMIMP@CloseThreadpoolWait@ 000000014003cd78     libcpmt:winapisupp.obj
 0002:00002d90       ??_C@_0BJ@LKGHFHBO@FlushProcessWriteBuffers@ 000000014003cd90     libcpmt:winapisupp.obj
 0002:00002db0       ??_C@_0BP@KALKKPMO@FreeLibraryWhenCallbackReturns@ 000000014003cdb0     libcpmt:winapisupp.obj
 0002:00002dd0       ??_C@_0BK@DFNBACLA@GetCurrentProcessorNumber@ 000000014003cdd0     libcpmt:winapisupp.obj
 0002:00002df0       ??_C@_0BE@FKKLLFLM@CreateSymbolicLinkW@ 000000014003cdf0     libcpmt:winapisupp.obj
 0002:00002e08       ??_C@_0BE@JOGNEJCI@GetCurrentPackageId@ 000000014003ce08     libcpmt:winapisupp.obj
 0002:00002e20       ??_C@_0P@CDHHOHKP@GetTickCount64@ 000000014003ce20     libcpmt:winapisupp.obj
 0002:00002e30       ??_C@_0BN@NEEHBBPO@GetFileInformationByHandleEx@ 000000014003ce30     libcpmt:winapisupp.obj
 0002:00002e50       ??_C@_0BL@KBBHGKCM@SetFileInformationByHandle@ 000000014003ce50     libcpmt:winapisupp.obj
 0002:00002e70       ??_C@_0BP@FPNJPEJC@GetSystemTimePreciseAsFileTime@ 000000014003ce70     libcpmt:winapisupp.obj
 0002:00002e90       ??_C@_0BM@HLJJNPAH@InitializeConditionVariable@ 000000014003ce90     libcpmt:winapisupp.obj
 0002:00002eb0       ??_C@_0BG@BFNILBLN@WakeConditionVariable@ 000000014003ceb0     libcpmt:winapisupp.obj
 0002:00002ec8       ??_C@_0BJ@PGPPEPCC@WakeAllConditionVariable@ 000000014003cec8     libcpmt:winapisupp.obj
 0002:00002ee8       ??_C@_0BJ@JEBJOJFJ@SleepConditionVariableCS@ 000000014003cee8     libcpmt:winapisupp.obj
 0002:00002f08       ??_C@_0BC@MMLHEBPB@InitializeSRWLock@ 000000014003cf08     libcpmt:winapisupp.obj
 0002:00002f20       ??_C@_0BI@OMNLIJDB@AcquireSRWLockExclusive@ 000000014003cf20     libcpmt:winapisupp.obj
 0002:00002f38       ??_C@_0BL@OGHFEMNA@TryAcquireSRWLockExclusive@ 000000014003cf38     libcpmt:winapisupp.obj
 0002:00002f58       ??_C@_0BI@HMIEPCNJ@ReleaseSRWLockExclusive@ 000000014003cf58     libcpmt:winapisupp.obj
 0002:00002f70       ??_C@_0BK@LGACAGIC@SleepConditionVariableSRW@ 000000014003cf70     libcpmt:winapisupp.obj
 0002:00002f90       ??_C@_0BF@GGPHFPJA@CreateThreadpoolWork@ 000000014003cf90     libcpmt:winapisupp.obj
 0002:00002fa8       ??_C@_0BF@NHDAIMMO@SubmitThreadpoolWork@ 000000014003cfa8     libcpmt:winapisupp.obj
 0002:00002fc0       ??_C@_0BE@NPHIPNPD@CloseThreadpoolWork@ 000000014003cfc0     libcpmt:winapisupp.obj
 0002:00002fd8       ??_C@_0BA@IHGNDAEB@CompareStringEx@ 000000014003cfd8     libcpmt:winapisupp.obj
 0002:00002fe8       ??_C@_0BA@ONOKGCMP@GetLocaleInfoEx@ 000000014003cfe8     libcpmt:winapisupp.obj
 0002:00002ff8       ??_C@_0O@KKBNKAPF@LCMapStringEx@ 000000014003cff8     libcpmt:winapisupp.obj
 0002:00003030       ??_C@_11LOCGONAA@@         000000014003d030     libcpmt:wlocale.obj
 0002:00003034       ??_C@_13IMODFHAA@?$AA?9@   000000014003d034     libcpmt:wlocale.obj
 0002:00003038       ??_C@_01JOAMLHOP@?9@       000000014003d038     libcpmt:wlocale.obj
 0002:00003040       __xmm@80000000000000008000000000000000 000000014003d040     libcpmt:wlocale.obj
 0002:00004d70       ??_C@_15EMKDOKLE@?$AAa?$AAr@ 000000014003ed70     libcpmt:winapinls.obj
 0002:00004d78       ??_C@_15KNPADPLH@?$AAb?$AAg@ 000000014003ed78     libcpmt:winapinls.obj
 0002:00004d80       ??_C@_15EDMHLDMO@?$AAc?$AAa@ 000000014003ed80     libcpmt:winapinls.obj
 0002:00004d88       ??_C@_1O@BPEAJADD@?$AAz?$AAh?$AA?9?$AAC?$AAH?$AAS@ 000000014003ed88     libcpmt:winapinls.obj
 0002:00004d98       ??_C@_15LJNHCMNK@?$AAc?$AAs@ 000000014003ed98     libcpmt:winapinls.obj
 0002:00004da0       ??_C@_15FOMCIDHG@?$AAd?$AAa@ 000000014003eda0     libcpmt:winapinls.obj
 0002:00004da8       ??_C@_15NBKABECB@?$AAd?$AAe@ 000000014003eda8     libcpmt:winapinls.obj
 0002:00004db0       ??_C@_15GHPEIIAO@?$AAe?$AAl@ 000000014003edb0     libcpmt:winapinls.obj
 0002:00004db8       ??_C@_15MNPNEAIF@?$AAe?$AAn@ 000000014003edb8     libcpmt:winapinls.obj
 0002:00004dc0       ??_C@_15GPIOMPMH@?$AAe?$AAs@ 000000014003edc0     libcpmt:winapinls.obj
 0002:00004dc8       ??_C@_15NGLOAKJC@?$AAf?$AAi@ 000000014003edc8     libcpmt:winapinls.obj
 0002:00004dd0       ??_C@_15FBKGNKAM@?$AAf?$AAr@ 000000014003edd0     libcpmt:winapinls.obj
 0002:00004dd8       ??_C@_15KGGCNEFK@?$AAh?$AAe@ 000000014003edd8     libcpmt:winapinls.obj
 0002:00004de0       ??_C@_15PGHLIDMF@?$AAh?$AAu@ 000000014003ede0     libcpmt:winapinls.obj
 0002:00004de8       ??_C@_15BIEMAPLM@?$AAi?$AAs@ 000000014003ede8     libcpmt:winapinls.obj
 0002:00004df0       ??_C@_15IFJLDHAF@?$AAi?$AAt@ 000000014003edf0     libcpmt:winapinls.obj
 0002:00004df8       ??_C@_15GEMIOCAG@?$AAj?$AAa@ 000000014003edf8     libcpmt:winapinls.obj
 0002:00004e00       ??_C@_15EPELEGJA@?$AAk?$AAo@ 000000014003ee00     libcpmt:winapinls.obj
 0002:00004e08       ??_C@_15NDDHIMN@?$AAn?$AAl@ 000000014003ee08     libcpmt:winapinls.obj
 0002:00004e10       ??_C@_15BPIGNHCD@?$AAn?$AAo@ 000000014003ee10     libcpmt:winapinls.obj
 0002:00004e18       ??_C@_15DEOPBLCG@?$AAp?$AAl@ 000000014003ee18     libcpmt:winapinls.obj
 0002:00004e20       ??_C@_15KBECGEFG@?$AAp?$AAt@ 000000014003ee20     libcpmt:winapinls.obj
 0002:00004e28       ??_C@_15GLJCBFMD@?$AAr?$AAo@ 000000014003ee28     libcpmt:winapinls.obj
 0002:00004e30       ??_C@_15FEDGKCDI@?$AAr?$AAu@ 000000014003ee30     libcpmt:winapinls.obj
 0002:00004e38       ??_C@_15GLKMLLHM@?$AAh?$AAr@ 000000014003ee38     libcpmt:winapinls.obj
 0002:00004e40       ??_C@_15CPKMFBDB@?$AAs?$AAk@ 000000014003ee40     libcpmt:winapinls.obj
 0002:00004e48       ??_C@_15BAAIOGMK@?$AAs?$AAq@ 000000014003ee48     libcpmt:winapinls.obj
 0002:00004e50       ??_C@_15INNPNOHD@?$AAs?$AAv@ 000000014003ee50     libcpmt:winapinls.obj
 0002:00004e58       ??_C@_15CABMMOGH@?$AAt?$AAh@ 000000014003ee58     libcpmt:winapinls.obj
 0002:00004e60       ??_C@_15BPLIHJJM@?$AAt?$AAr@ 000000014003ee60     libcpmt:winapinls.obj
 0002:00004e68       ??_C@_15NEOEKKDJ@?$AAu?$AAr@ 000000014003ee68     libcpmt:winapinls.obj
 0002:00004e70       ??_C@_15NFICGAJK@?$AAi?$AAd@ 000000014003ee70     libcpmt:winapinls.obj
 0002:00004e78       ??_C@_15PJPFLCCM@?$AAu?$AAk@ 000000014003ee78     libcpmt:winapinls.obj
 0002:00004e80       ??_C@_15HPJPHDM@?$AAb?$AAe@ 000000014003ee80     libcpmt:winapinls.obj
 0002:00004e88       ??_C@_15LCHLGJII@?$AAs?$AAl@ 000000014003ee88     libcpmt:winapinls.obj
 0002:00004e90       ??_C@_15PCFJPHHO@?$AAe?$AAt@ 000000014003ee90     libcpmt:winapinls.obj
 0002:00004e98       ??_C@_15HPFPGODN@?$AAl?$AAv@ 000000014003ee98     libcpmt:winapinls.obj
 0002:00004ea0       ??_C@_15NFFGKGLG@?$AAl?$AAt@ 000000014003eea0     libcpmt:winapinls.obj
 0002:00004ea8       ??_C@_15BDAKCCHN@?$AAf?$AAa@ 000000014003eea8     libcpmt:winapinls.obj
 0002:00004eb0       ??_C@_15NFGIAIAJ@?$AAv?$AAi@ 000000014003eeb0     libcpmt:winapinls.obj
 0002:00004eb8       ??_C@_15LMKNDMHN@?$AAh?$AAy@ 000000014003eeb8     libcpmt:winapinls.obj
 0002:00004ec0       ??_C@_15IJBHMCFL@?$AAa?$AAz@ 000000014003eec0     libcpmt:winapinls.obj
 0002:00004ec8       ??_C@_15EKOFJABL@?$AAe?$AAu@ 000000014003eec8     libcpmt:winapinls.obj
 0002:00004ed0       ??_C@_15BGHADCNK@?$AAm?$AAk@ 000000014003eed0     libcpmt:winapinls.obj
 0002:00004ed8       ??_C@_15JDNICKHM@?$AAa?$AAf@ 000000014003eed8     libcpmt:winapinls.obj
 0002:00004ee0       ??_C@_15KPJEDBKD@?$AAk?$AAa@ 000000014003eee0     libcpmt:winapinls.obj
 0002:00004ee8       ??_C@_15PDNFFFEO@?$AAf?$AAo@ 000000014003eee8     libcpmt:winapinls.obj
 0002:00004ef0       ??_C@_15OMLEGLOC@?$AAh?$AAi@ 000000014003eef0     libcpmt:winapinls.obj
 0002:00004ef8       ??_C@_15IDNNENKK@?$AAm?$AAs@ 000000014003eef8     libcpmt:winapinls.obj
 0002:00004f00       ??_C@_15MACJNBMH@?$AAk?$AAk@ 000000014003ef00     libcpmt:winapinls.obj
 0002:00004f08       ??_C@_15DKDJEOND@?$AAk?$AAy@ 000000014003ef08     libcpmt:winapinls.obj
 0002:00004f10       ??_C@_15DFGDLJBG@?$AAs?$AAw@ 000000014003ef10     libcpmt:winapinls.obj
 0002:00004f18       ??_C@_15BBFAICNG@?$AAu?$AAz@ 000000014003ef18     libcpmt:winapinls.obj
 0002:00004f20       ??_C@_15DKNDCGEA@?$AAt?$AAt@ 000000014003ef20     libcpmt:winapinls.obj
 0002:00004f28       ??_C@_15MGIFMDPL@?$AAp?$AAa@ 000000014003ef28     libcpmt:winapinls.obj
 0002:00004f30       ??_C@_15HCNDBBA@?$AAg?$AAu@ 000000014003ef30     libcpmt:winapinls.obj
 0002:00004f38       ??_C@_15FNBEIBON@?$AAt?$AAa@ 000000014003ef38     libcpmt:winapinls.obj
 0002:00004f40       ??_C@_15NCHGBGLK@?$AAt?$AAe@ 000000014003ef40     libcpmt:winapinls.obj
 0002:00004f48       ??_C@_15PHPHCBPF@?$AAk?$AAn@ 000000014003ef48     libcpmt:winapinls.obj
 0002:00004f50       ??_C@_15DLGBCKMP@?$AAm?$AAr@ 000000014003ef50     libcpmt:winapinls.obj
 0002:00004f58       ??_C@_15EABBLBFF@?$AAs?$AAa@ 000000014003ef58     libcpmt:winapinls.obj
 0002:00004f60       ??_C@_15CBKOMCOI@?$AAm?$AAn@ 000000014003ef60     libcpmt:winapinls.obj
 0002:00004f68       ??_C@_15CKDMCJAF@?$AAg?$AAl@ 000000014003ef68     libcpmt:winapinls.obj
 0002:00004f70       ??_C@_17CNJFBPG@?$AAk?$AAo?$AAk@ 000000014003ef70     libcpmt:winapinls.obj
 0002:00004f78       ??_C@_17FFBJICPL@?$AAs?$AAy?$AAr@ 000000014003ef78     libcpmt:winapinls.obj
 0002:00004f80       ??_C@_17KPNDCPAF@?$AAd?$AAi?$AAv@ 000000014003ef80     libcpmt:winapinls.obj
 0002:00004f88       ??_C@_1M@OKAHONE@?$AAa?$AAr?$AA?9?$AAS?$AAA@ 000000014003ef88     libcpmt:winapinls.obj
 0002:00004f98       ??_C@_1M@FFFIGIGK@?$AAb?$AAg?$AA?9?$AAB?$AAG@ 000000014003ef98     libcpmt:winapinls.obj
 0002:00004fa8       ??_C@_1M@BJNKEDC@?$AAc?$AAa?$AA?9?$AAE?$AAS@ 000000014003efa8     libcpmt:winapinls.obj
 0002:00004fb8       ??_C@_1M@CLNBBOPM@?$AAz?$AAh?$AA?9?$AAT?$AAW@ 000000014003efb8     libcpmt:winapinls.obj
 0002:00004fc8       ??_C@_1M@IJJHFJHA@?$AAc?$AAs?$AA?9?$AAC?$AAZ@ 000000014003efc8     libcpmt:winapinls.obj
 0002:00004fd8       ??_C@_1M@CLPEOBGI@?$AAd?$AAa?$AA?9?$AAD?$AAK@ 000000014003efd8     libcpmt:winapinls.obj
 0002:00004fe8       ??_C@_1M@MCMADGCB@?$AAd?$AAe?$AA?9?$AAD?$AAE@ 000000014003efe8     libcpmt:winapinls.obj
 0002:00004ff8       ??_C@_1M@OOCKEMAM@?$AAe?$AAl?$AA?9?$AAG?$AAR@ 000000014003eff8     libcpmt:winapinls.obj
 0002:00005008       ??_C@_1M@BMHNFIME@?$AAe?$AAn?$AA?9?$AAU?$AAS@ 000000014003f008     libcpmt:winapinls.obj
 0002:00005018       ??_C@_1M@DDNJFGID@?$AAf?$AAi?$AA?9?$AAF?$AAI@ 000000014003f018     libcpmt:winapinls.obj
 0002:00005028       ??_C@_1M@GLIPPMAC@?$AAf?$AAr?$AA?9?$AAF?$AAR@ 000000014003f028     libcpmt:winapinls.obj
 0002:00005038       ??_C@_1M@GFMCHPE@?$AAh?$AAe?$AA?9?$AAI?$AAL@ 000000014003f038     libcpmt:winapinls.obj
 0002:00005048       ??_C@_1M@MHLPGNKM@?$AAh?$AAu?$AA?9?$AAH?$AAU@ 000000014003f048     libcpmt:winapinls.obj
 0002:00005058       ??_C@_1M@LPDDNNPN@?$AAi?$AAs?$AA?9?$AAI?$AAS@ 000000014003f058     libcpmt:winapinls.obj
 0002:00005068       ??_C@_1M@MADIPODN@?$AAi?$AAt?$AA?9?$AAI?$AAT@ 000000014003f068     libcpmt:winapinls.obj
 0002:00005078       ??_C@_1M@HPNHIDJI@?$AAj?$AAa?$AA?9?$AAJ?$AAP@ 000000014003f078     libcpmt:winapinls.obj
 0002:00005088       ??_C@_1M@JLOOOEGK@?$AAk?$AAo?$AA?9?$AAK?$AAR@ 000000014003f088     libcpmt:winapinls.obj
 0002:00005098       ??_C@_1M@IHBJJGG@?$AAn?$AAl?$AA?9?$AAN?$AAL@ 000000014003f098     libcpmt:winapinls.obj
 0002:000050a8       ??_C@_1M@EANAGDL@?$AAn?$AAb?$AA?9?$AAN?$AAO@ 000000014003f0a8     libcpmt:winapinls.obj
 0002:000050b8       ??_C@_1M@NEIEMEGP@?$AAp?$AAl?$AA?9?$AAP?$AAL@ 000000014003f0b8     libcpmt:winapinls.obj
 0002:000050c8       ??_C@_1M@BOCFIGEP@?$AAp?$AAt?$AA?9?$AAB?$AAR@ 000000014003f0c8     libcpmt:winapinls.obj
 0002:000050d8       ??_C@_1M@IMPFOPBG@?$AAr?$AAo?$AA?9?$AAR?$AAO@ 000000014003f0d8     libcpmt:winapinls.obj
 0002:000050e8       ??_C@_1M@IDNNEJMM@?$AAr?$AAu?$AA?9?$AAR?$AAU@ 000000014003f0e8     libcpmt:winapinls.obj
 0002:000050f8       ??_C@_1M@LILEEOGM@?$AAh?$AAr?$AA?9?$AAH?$AAR@ 000000014003f0f8     libcpmt:winapinls.obj
 0002:00005108       ??_C@_1M@FKIFEHPB@?$AAs?$AAk?$AA?9?$AAS?$AAK@ 000000014003f108     libcpmt:winapinls.obj
 0002:00005118       ??_C@_1M@LJMAMNPJ@?$AAs?$AAq?$AA?9?$AAA?$AAL@ 000000014003f118     libcpmt:winapinls.obj
 0002:00005128       ??_C@_1M@GIAKDKJK@?$AAs?$AAv?$AA?9?$AAS?$AAE@ 000000014003f128     libcpmt:winapinls.obj
 0002:00005138       ??_C@_1M@MKJKIKCL@?$AAt?$AAh?$AA?9?$AAT?$AAH@ 000000014003f138     libcpmt:winapinls.obj
 0002:00005148       ??_C@_1M@MFLCCMPB@?$AAt?$AAr?$AA?9?$AAT?$AAR@ 000000014003f148     libcpmt:winapinls.obj
 0002:00005158       ??_C@_1M@OIJHDKJN@?$AAu?$AAr?$AA?9?$AAP?$AAK@ 000000014003f158     libcpmt:winapinls.obj
 0002:00005168       ??_C@_1M@LHIPCIEK@?$AAi?$AAd?$AA?9?$AAI?$AAD@ 000000014003f168     libcpmt:winapinls.obj
 0002:00005178       ??_C@_1M@MFMOBGI@?$AAu?$AAk?$AA?9?$AAU?$AAA@ 000000014003f178     libcpmt:winapinls.obj
 0002:00005188       ??_C@_1M@OBGLJIPL@?$AAb?$AAe?$AA?9?$AAB?$AAY@ 000000014003f188     libcpmt:winapinls.obj
 0002:00005198       ??_C@_1M@BCFAJEAD@?$AAs?$AAl?$AA?9?$AAS?$AAI@ 000000014003f198     libcpmt:winapinls.obj
 0002:000051a8       ??_C@_1M@FKFFEDDN@?$AAe?$AAt?$AA?9?$AAE?$AAE@ 000000014003f1a8     libcpmt:winapinls.obj
 0002:000051b8       ??_C@_1M@KGKKAACI@?$AAl?$AAv?$AA?9?$AAL?$AAV@ 000000014003f1b8     libcpmt:winapinls.obj
 0002:000051c8       ??_C@_1M@IFGBIJO@?$AAl?$AAt?$AA?9?$AAL?$AAT@ 000000014003f1c8     libcpmt:winapinls.obj
 0002:000051d8       ??_C@_1M@FGEAHEDM@?$AAf?$AAa?$AA?9?$AAI?$AAR@ 000000014003f1d8     libcpmt:winapinls.obj
 0002:000051e8       ??_C@_1M@KBMAIBFN@?$AAv?$AAi?$AA?9?$AAV?$AAN@ 000000014003f1e8     libcpmt:winapinls.obj
 0002:000051f8       ??_C@_1M@GPCBKDJK@?$AAh?$AAy?$AA?9?$AAA?$AAM@ 000000014003f1f8     libcpmt:winapinls.obj
 0002:00005208       ??_C@_1BG@BECMDDJB@?$AAa?$AAz?$AA?9?$AAA?$AAZ?$AA?9?$AAL?$AAa?$AAt?$AAn@ 000000014003f208     libcpmt:winapinls.obj
 0002:00005220       ??_C@_1M@MAOFCAEA@?$AAe?$AAu?$AA?9?$AAE?$AAS@ 000000014003f220     libcpmt:winapinls.obj
 0002:00005230       ??_C@_1M@IGHABKPI@?$AAm?$AAk?$AA?9?$AAM?$AAK@ 000000014003f230     libcpmt:winapinls.obj
 0002:00005240       ??_C@_1M@IAIGNEJG@?$AAt?$AAn?$AA?9?$AAZ?$AAA@ 000000014003f240     libcpmt:winapinls.obj
 0002:00005250       ??_C@_1M@IIJCOJFA@?$AAx?$AAh?$AA?9?$AAZ?$AAA@ 000000014003f250     libcpmt:winapinls.obj
 0002:00005260       ??_C@_1M@LGPJHNJH@?$AAz?$AAu?$AA?9?$AAZ?$AAA@ 000000014003f260     libcpmt:winapinls.obj
 0002:00005270       ??_C@_1M@HOKAOIO@?$AAa?$AAf?$AA?9?$AAZ?$AAA@ 000000014003f270     libcpmt:winapinls.obj
 0002:00005280       ??_C@_1M@DPCLHLIE@?$AAk?$AAa?$AA?9?$AAG?$AAE@ 000000014003f280     libcpmt:winapinls.obj
 0002:00005290       ??_C@_1M@BLKMHJBI@?$AAf?$AAo?$AA?9?$AAF?$AAO@ 000000014003f290     libcpmt:winapinls.obj
 0002:000052a0       ??_C@_1M@LGGJAPPB@?$AAh?$AAi?$AA?9?$AAI?$AAN@ 000000014003f2a0     libcpmt:winapinls.obj
 0002:000052b0       ??_C@_1M@FIKPIHFE@?$AAm?$AAt?$AA?9?$AAM?$AAT@ 000000014003f2b0     libcpmt:winapinls.obj
 0002:000052c0       ??_C@_1M@HEGGPBFA@?$AAs?$AAe?$AA?9?$AAN?$AAO@ 000000014003f2c0     libcpmt:winapinls.obj
 0002:000052d0       ??_C@_1M@EIBJEEPA@?$AAm?$AAs?$AA?9?$AAM?$AAY@ 000000014003f2d0     libcpmt:winapinls.obj
 0002:000052e0       ??_C@_1M@FHLBGMPP@?$AAk?$AAk?$AA?9?$AAK?$AAZ@ 000000014003f2e0     libcpmt:winapinls.obj
 0002:000052f0       ??_C@_1M@NGJJLCGI@?$AAk?$AAy?$AA?9?$AAK?$AAG@ 000000014003f2f0     libcpmt:winapinls.obj
 0002:00005300       ??_C@_1M@GIENNBFC@?$AAs?$AAw?$AA?9?$AAK?$AAE@ 000000014003f300     libcpmt:winapinls.obj
 0002:00005310       ??_C@_1BG@NDGMJIMJ@?$AAu?$AAz?$AA?9?$AAU?$AAZ?$AA?9?$AAL?$AAa?$AAt?$AAn@ 000000014003f310     libcpmt:winapinls.obj
 0002:00005328       ??_C@_1M@IDCCIHBC@?$AAt?$AAt?$AA?9?$AAR?$AAU@ 000000014003f328     libcpmt:winapinls.obj
 0002:00005338       ??_C@_1M@LOICPMOJ@?$AAb?$AAn?$AA?9?$AAI?$AAN@ 000000014003f338     libcpmt:winapinls.obj
 0002:00005348       ??_C@_1M@KPKKNEAH@?$AAp?$AAa?$AA?9?$AAI?$AAN@ 000000014003f348     libcpmt:winapinls.obj
 0002:00005358       ??_C@_1M@PJGPPBOG@?$AAg?$AAu?$AA?9?$AAI?$AAN@ 000000014003f358     libcpmt:winapinls.obj
 0002:00005368       ??_C@_1M@KMKMOPHI@?$AAt?$AAa?$AA?9?$AAI?$AAN@ 000000014003f368     libcpmt:winapinls.obj
 0002:00005378       ??_C@_1M@KFEHEPAC@?$AAt?$AAe?$AA?9?$AAI?$AAN@ 000000014003f378     libcpmt:winapinls.obj
 0002:00005388       ??_C@_1M@CDCLMGHI@?$AAk?$AAn?$AA?9?$AAI?$AAN@ 000000014003f388     libcpmt:winapinls.obj
 0002:00005398       ??_C@_1M@MIODLDKF@?$AAm?$AAl?$AA?9?$AAI?$AAN@ 000000014003f398     libcpmt:winapinls.obj
 0002:000053a8       ??_C@_1M@PBIEACPO@?$AAm?$AAr?$AA?9?$AAI?$AAN@ 000000014003f3a8     libcpmt:winapinls.obj
 0002:000053b8       ??_C@_1M@NIDEAGPH@?$AAs?$AAa?$AA?9?$AAI?$AAN@ 000000014003f3b8     libcpmt:winapinls.obj
 0002:000053c8       ??_C@_1M@FHIHCBIO@?$AAm?$AAn?$AA?9?$AAM?$AAN@ 000000014003f3c8     libcpmt:winapinls.obj
 0002:000053d8       ??_C@_1M@JAIJPENP@?$AAc?$AAy?$AA?9?$AAG?$AAB@ 000000014003f3d8     libcpmt:winapinls.obj
 0002:000053e8       ??_C@_1M@PHGFBEPN@?$AAg?$AAl?$AA?9?$AAE?$AAS@ 000000014003f3e8     libcpmt:winapinls.obj
 0002:000053f8       ??_C@_1O@KPIPDNCP@?$AAk?$AAo?$AAk?$AA?9?$AAI?$AAN@ 000000014003f3f8     libcpmt:winapinls.obj
 0002:00005408       ??_C@_1O@KNHJLDJA@?$AAs?$AAy?$AAr?$AA?9?$AAS?$AAY@ 000000014003f408     libcpmt:winapinls.obj
 0002:00005418       ??_C@_1O@MKEKBLAH@?$AAd?$AAi?$AAv?$AA?9?$AAM?$AAV@ 000000014003f418     libcpmt:winapinls.obj
 0002:00005428       ??_C@_1O@OHDCKDDF@?$AAq?$AAu?$AAz?$AA?9?$AAB?$AAO@ 000000014003f428     libcpmt:winapinls.obj
 0002:00005438       ??_C@_1M@LEPJNLFD@?$AAn?$AAs?$AA?9?$AAZ?$AAA@ 000000014003f438     libcpmt:winapinls.obj
 0002:00005448       ??_C@_1M@OMLEIIJB@?$AAm?$AAi?$AA?9?$AAN?$AAZ@ 000000014003f448     libcpmt:winapinls.obj
 0002:00005458       ??_C@_1M@PMPEAILG@?$AAa?$AAr?$AA?9?$AAI?$AAQ@ 000000014003f458     libcpmt:winapinls.obj
 0002:00005468       ??_C@_1M@BIBDDEMK@?$AAz?$AAh?$AA?9?$AAC?$AAN@ 000000014003f468     libcpmt:winapinls.obj
 0002:00005478       ??_C@_1M@CNKPNOEE@?$AAd?$AAe?$AA?9?$AAC?$AAH@ 000000014003f478     libcpmt:winapinls.obj
 0002:00005488       ??_C@_1M@LKMGMLKO@?$AAe?$AAn?$AA?9?$AAG?$AAB@ 000000014003f488     libcpmt:winapinls.obj
 0002:00005498       ??_C@_1M@PGKJFFGL@?$AAe?$AAs?$AA?9?$AAM?$AAX@ 000000014003f498     libcpmt:winapinls.obj
 0002:000054a8       ??_C@_1M@DNNANBDC@?$AAf?$AAr?$AA?9?$AAB?$AAE@ 000000014003f4a8     libcpmt:winapinls.obj
 0002:000054b8       ??_C@_1M@HLGMDFHM@?$AAi?$AAt?$AA?9?$AAC?$AAH@ 000000014003f4b8     libcpmt:winapinls.obj
 0002:000054c8       ??_C@_1M@CLLBGJH@?$AAn?$AAl?$AA?9?$AAB?$AAE@ 000000014003f4c8     libcpmt:winapinls.obj
 0002:000054d8       ??_C@_1M@BODBOGLF@?$AAn?$AAn?$AA?9?$AAN?$AAO@ 000000014003f4d8     libcpmt:winapinls.obj
 0002:000054e8       ??_C@_1M@HFFAHKAD@?$AAp?$AAt?$AA?9?$AAP?$AAT@ 000000014003f4e8     libcpmt:winapinls.obj
 0002:000054f8       ??_C@_1BG@LNOAKHIE@?$AAs?$AAr?$AA?9?$AAS?$AAP?$AA?9?$AAL?$AAa?$AAt?$AAn@ 000000014003f4f8     libcpmt:winapinls.obj
 0002:00005510       ??_C@_1M@HBMHBGAK@?$AAs?$AAv?$AA?9?$AAF?$AAI@ 000000014003f510     libcpmt:winapinls.obj
 0002:00005520       ??_C@_1BG@DGCJGJBE@?$AAa?$AAz?$AA?9?$AAA?$AAZ?$AA?9?$AAC?$AAy?$AAr?$AAl@ 000000014003f520     libcpmt:winapinls.obj
 0002:00005538       ??_C@_1M@KEJDAAHB@?$AAs?$AAe?$AA?9?$AAS?$AAE@ 000000014003f538     libcpmt:winapinls.obj
 0002:00005548       ??_C@_1M@HEIBJJAD@?$AAm?$AAs?$AA?9?$AAB?$AAN@ 000000014003f548     libcpmt:winapinls.obj
 0002:00005558       ??_C@_1BG@PBGJMCEM@?$AAu?$AAz?$AA?9?$AAU?$AAZ?$AA?9?$AAC?$AAy?$AAr?$AAl@ 000000014003f558     libcpmt:winapinls.obj
 0002:00005570       ??_C@_1O@LAOBCMDF@?$AAq?$AAu?$AAz?$AA?9?$AAE?$AAC@ 000000014003f570     libcpmt:winapinls.obj
 0002:00005580       ??_C@_1M@POEEMAIO@?$AAa?$AAr?$AA?9?$AAE?$AAG@ 000000014003f580     libcpmt:winapinls.obj
 0002:00005590       ??_C@_1M@EFAKDEDL@?$AAz?$AAh?$AA?9?$AAH?$AAK@ 000000014003f590     libcpmt:winapinls.obj
 0002:000055a0       ??_C@_1M@HKKIJHGI@?$AAd?$AAe?$AA?9?$AAA?$AAT@ 000000014003f5a0     libcpmt:winapinls.obj
 0002:000055b0       ??_C@_1M@KBFBEHJF@?$AAe?$AAn?$AA?9?$AAA?$AAU@ 000000014003f5b0     libcpmt:winapinls.obj
 0002:000055c0       ??_C@_1M@MNPLFAAH@?$AAe?$AAs?$AA?9?$AAE?$AAS@ 000000014003f5c0     libcpmt:winapinls.obj
 0002:000055d0       ??_C@_1M@HJOOJFMA@?$AAf?$AAr?$AA?9?$AAC?$AAA@ 000000014003f5d0     libcpmt:winapinls.obj
 0002:000055e0       ??_C@_1BG@JPOFPNAB@?$AAs?$AAr?$AA?9?$AAS?$AAP?$AA?9?$AAC?$AAy?$AAr?$AAl@ 000000014003f5e0     libcpmt:winapinls.obj
 0002:000055f8       ??_C@_1M@LNFOCMOB@?$AAs?$AAe?$AA?9?$AAF?$AAI@ 000000014003f5f8     libcpmt:winapinls.obj
 0002:00005608       ??_C@_1O@MGJBOAMB@?$AAq?$AAu?$AAz?$AA?9?$AAP?$AAE@ 000000014003f608     libcpmt:winapinls.obj
 0002:00005618       ??_C@_1M@GJINLBOK@?$AAa?$AAr?$AA?9?$AAL?$AAY@ 000000014003f618     libcpmt:winapinls.obj
 0002:00005628       ??_C@_1M@GGMNHJNL@?$AAz?$AAh?$AA?9?$AAS?$AAG@ 000000014003f628     libcpmt:winapinls.obj
 0002:00005638       ??_C@_1M@HOIKODND@?$AAd?$AAe?$AA?9?$AAL?$AAU@ 000000014003f638     libcpmt:winapinls.obj
 0002:00005648       ??_C@_1M@DDOCCGFG@?$AAe?$AAn?$AA?9?$AAC?$AAA@ 000000014003f648     libcpmt:winapinls.obj
 0002:00005658       ??_C@_1M@BNOEMJLF@?$AAe?$AAs?$AA?9?$AAG?$AAT@ 000000014003f658     libcpmt:winapinls.obj
 0002:00005668       ??_C@_1M@EOGNKEK@?$AAf?$AAr?$AA?9?$AAC?$AAH@ 000000014003f668     libcpmt:winapinls.obj
 0002:00005678       ??_C@_1M@FLIDJFHL@?$AAh?$AAr?$AA?9?$AAB?$AAA@ 000000014003f678     libcpmt:winapinls.obj
 0002:00005688       ??_C@_1O@FMCELNAJ@?$AAs?$AAm?$AAj?$AA?9?$AAN?$AAO@ 000000014003f688     libcpmt:winapinls.obj
 0002:00005698       ??_C@_1M@JHGLJMGJ@?$AAa?$AAr?$AA?9?$AAD?$AAZ@ 000000014003f698     libcpmt:winapinls.obj
 0002:000056a8       ??_C@_1M@JKKFDCNP@?$AAz?$AAh?$AA?9?$AAM?$AAO@ 000000014003f6a8     libcpmt:winapinls.obj
 0002:000056b8       ??_C@_1M@GEEFALPE@?$AAd?$AAe?$AA?9?$AAL?$AAI@ 000000014003f6b8     libcpmt:winapinls.obj
 0002:000056c8       ??_C@_1M@IGEOFBG@?$AAe?$AAn?$AA?9?$AAN?$AAZ@ 000000014003f6c8     libcpmt:winapinls.obj
 0002:000056d8       ??_C@_1M@KDBONEHP@?$AAe?$AAs?$AA?9?$AAC?$AAR@ 000000014003f6d8     libcpmt:winapinls.obj
 0002:000056e8       ??_C@_1M@FHMDOHNN@?$AAf?$AAr?$AA?9?$AAL?$AAU@ 000000014003f6e8     libcpmt:winapinls.obj
 0002:000056f8       ??_C@_1BG@NFKKMAFG@?$AAb?$AAs?$AA?9?$AAB?$AAA?$AA?9?$AAL?$AAa?$AAt?$AAn@ 000000014003f6f8     libcpmt:winapinls.obj
 0002:00005710       ??_C@_1O@IMNBEMCI@?$AAs?$AAm?$AAj?$AA?9?$AAS?$AAE@ 000000014003f710     libcpmt:winapinls.obj
 0002:00005720       ??_C@_1M@DHHMBNDP@?$AAa?$AAr?$AA?9?$AAM?$AAA@ 000000014003f720     libcpmt:winapinls.obj
 0002:00005730       ??_C@_1M@BNBLJCGH@?$AAe?$AAn?$AA?9?$AAI?$AAE@ 000000014003f730     libcpmt:winapinls.obj
 0002:00005740       ??_C@_1M@GEPAFMDL@?$AAe?$AAs?$AA?9?$AAP?$AAA@ 000000014003f740     libcpmt:winapinls.obj
 0002:00005750       ??_C@_1M@OJONDMDL@?$AAf?$AAr?$AA?9?$AAM?$AAC@ 000000014003f750     libcpmt:winapinls.obj
 0002:00005760       ??_C@_1BG@OBCNFJB@?$AAs?$AAr?$AA?9?$AAB?$AAA?$AA?9?$AAL?$AAa?$AAt?$AAn@ 000000014003f760     libcpmt:winapinls.obj
 0002:00005778       ??_C@_1O@KEMEEGPO@?$AAs?$AAm?$AAa?$AA?9?$AAN?$AAO@ 000000014003f778     libcpmt:winapinls.obj
 0002:00005788       ??_C@_1M@ELMGFODK@?$AAa?$AAr?$AA?9?$AAT?$AAN@ 000000014003f788     libcpmt:winapinls.obj
 0002:00005798       ??_C@_1M@BHDLHFAF@?$AAe?$AAn?$AA?9?$AAZ?$AAA@ 000000014003f798     libcpmt:winapinls.obj
 0002:000057a8       ??_C@_1M@BMGIGLIF@?$AAe?$AAs?$AA?9?$AAD?$AAO@ 000000014003f7a8     libcpmt:winapinls.obj
 0002:000057b8       ??_C@_1BG@CMBHIPBE@?$AAs?$AAr?$AA?9?$AAB?$AAA?$AA?9?$AAC?$AAy?$AAr?$AAl@ 000000014003f7b8     libcpmt:winapinls.obj
 0002:000057d0       ??_C@_1O@HEDBLHNP@?$AAs?$AAm?$AAa?$AA?9?$AAS?$AAE@ 000000014003f7d0     libcpmt:winapinls.obj
 0002:000057e0       ??_C@_1M@DAGCADIM@?$AAa?$AAr?$AA?9?$AAO?$AAM@ 000000014003f7e0     libcpmt:winapinls.obj
 0002:000057f0       ??_C@_1M@FODLMICG@?$AAe?$AAn?$AA?9?$AAJ?$AAM@ 000000014003f7f0     libcpmt:winapinls.obj
 0002:00005800       ??_C@_1M@DNMLCIHB@?$AAe?$AAs?$AA?9?$AAV?$AAE@ 000000014003f800     libcpmt:winapinls.obj
 0002:00005810       ??_C@_1O@EOKHMKJK@?$AAs?$AAm?$AAs?$AA?9?$AAF?$AAI@ 000000014003f810     libcpmt:winapinls.obj
 0002:00005820       ??_C@_1M@CAFJMKOF@?$AAa?$AAr?$AA?9?$AAY?$AAE@ 000000014003f820     libcpmt:winapinls.obj
 0002:00005830       ??_C@_1M@CBFHIJLI@?$AAe?$AAn?$AA?9?$AAC?$AAB@ 000000014003f830     libcpmt:winapinls.obj
 0002:00005840       ??_C@_1M@BGNFLDN@?$AAe?$AAs?$AA?9?$AAC?$AAO@ 000000014003f840     libcpmt:winapinls.obj
 0002:00005850       ??_C@_1O@JMPHMAMC@?$AAs?$AAm?$AAn?$AA?9?$AAF?$AAI@ 000000014003f850     libcpmt:winapinls.obj
 0002:00005860       ??_C@_1M@JLANABKE@?$AAa?$AAr?$AA?9?$AAS?$AAY@ 000000014003f860     libcpmt:winapinls.obj
 0002:00005870       ??_C@_1M@HPKGCFGN@?$AAe?$AAn?$AA?9?$AAB?$AAZ@ 000000014003f870     libcpmt:winapinls.obj
 0002:00005880       ??_C@_1M@OLJCMLGM@?$AAe?$AAs?$AA?9?$AAP?$AAE@ 000000014003f880     libcpmt:winapinls.obj
 0002:00005890       ??_C@_1M@MKKGFKLE@?$AAa?$AAr?$AA?9?$AAJ?$AAO@ 000000014003f890     libcpmt:winapinls.obj
 0002:000058a0       ??_C@_1M@EKPGLDNI@?$AAe?$AAn?$AA?9?$AAT?$AAT@ 000000014003f8a0     libcpmt:winapinls.obj
 0002:000058b0       ??_C@_1M@OONGHFHE@?$AAe?$AAs?$AA?9?$AAA?$AAR@ 000000014003f8b0     libcpmt:winapinls.obj
 0002:000058c0       ??_C@_1M@OOJFGBHE@?$AAa?$AAr?$AA?9?$AAL?$AAB@ 000000014003f8c0     libcpmt:winapinls.obj
 0002:000058d0       ??_C@_1M@GCEJHNEG@?$AAe?$AAn?$AA?9?$AAZ?$AAW@ 000000014003f8d0     libcpmt:winapinls.obj
 0002:000058e0       ??_C@_1M@JNOCAHJI@?$AAe?$AAs?$AA?9?$AAE?$AAC@ 000000014003f8e0     libcpmt:winapinls.obj
 0002:000058f0       ??_C@_1M@JEFHPGGB@?$AAa?$AAr?$AA?9?$AAK?$AAW@ 000000014003f8f0     libcpmt:winapinls.obj
 0002:00005900       ??_C@_1M@MLKIBJOJ@?$AAe?$AAn?$AA?9?$AAP?$AAH@ 000000014003f900     libcpmt:winapinls.obj
 0002:00005910       ??_C@_1M@BDNIPEND@?$AAe?$AAs?$AA?9?$AAC?$AAL@ 000000014003f910     libcpmt:winapinls.obj
 0002:00005920       ??_C@_1M@MPNMEKBD@?$AAa?$AAr?$AA?9?$AAA?$AAE@ 000000014003f920     libcpmt:winapinls.obj
 0002:00005930       ??_C@_1M@KBJALCPI@?$AAe?$AAs?$AA?9?$AAU?$AAY@ 000000014003f930     libcpmt:winapinls.obj
 0002:00005940       ??_C@_1M@LLCCOAGA@?$AAa?$AAr?$AA?9?$AAB?$AAH@ 000000014003f940     libcpmt:winapinls.obj
 0002:00005950       ??_C@_1M@PBFNCDEL@?$AAe?$AAs?$AA?9?$AAP?$AAY@ 000000014003f950     libcpmt:winapinls.obj
 0002:00005960       ??_C@_1M@EDGINPNP@?$AAa?$AAr?$AA?9?$AAQ?$AAA@ 000000014003f960     libcpmt:winapinls.obj
 0002:00005970       ??_C@_1M@MKDBIIJI@?$AAe?$AAs?$AA?9?$AAB?$AAO@ 000000014003f970     libcpmt:winapinls.obj
 0002:00005980       ??_C@_1M@CPKKEBLD@?$AAe?$AAs?$AA?9?$AAS?$AAV@ 000000014003f980     libcpmt:winapinls.obj
 0002:00005990       ??_C@_1M@NDBGMMJL@?$AAe?$AAs?$AA?9?$AAH?$AAN@ 000000014003f990     libcpmt:winapinls.obj
 0002:000059a0       ??_C@_1M@JIJIBHDP@?$AAe?$AAs?$AA?9?$AAN?$AAI@ 000000014003f9a0     libcpmt:winapinls.obj
 0002:000059b0       ??_C@_1M@CGFMKEEK@?$AAe?$AAs?$AA?9?$AAP?$AAR@ 000000014003f9b0     libcpmt:winapinls.obj
 0002:000059c0       ??_C@_1O@ICJHKIIK@?$AAz?$AAh?$AA?9?$AAC?$AAH?$AAT@ 000000014003f9c0     libcpmt:winapinls.obj
 0002:000059d0       ??_C@_15CLNEJCE@?$AAs?$AAr@ 000000014003f9d0     libcpmt:winapinls.obj
 0002:000059d8       ??_C@_1M@KAHEKEIG@?$AAa?$AAf?$AA?9?$AAz?$AAa@ 000000014003f9d8     libcpmt:winapinls.obj
 0002:000059e8       ??_C@_1M@GIECOABL@?$AAa?$AAr?$AA?9?$AAa?$AAe@ 000000014003f9e8     libcpmt:winapinls.obj
 0002:000059f8       ??_C@_1M@BMLMEKGI@?$AAa?$AAr?$AA?9?$AAb?$AAh@ 000000014003f9f8     libcpmt:winapinls.obj
 0002:00005a08       ??_C@_1M@DAPFDGGB@?$AAa?$AAr?$AA?9?$AAd?$AAz@ 000000014003fa08     libcpmt:winapinls.obj
 0002:00005a18       ??_C@_1M@FJNKGKIG@?$AAa?$AAr?$AA?9?$AAe?$AAg@ 000000014003fa18     libcpmt:winapinls.obj
 0002:00005a28       ??_C@_1M@FLGKKCLO@?$AAa?$AAr?$AA?9?$AAi?$AAq@ 000000014003fa28     libcpmt:winapinls.obj
 0002:00005a38       ??_C@_1M@GNDIPALM@?$AAa?$AAr?$AA?9?$AAj?$AAo@ 000000014003fa38     libcpmt:winapinls.obj
 0002:00005a48       ??_C@_1M@DDMJFMGJ@?$AAa?$AAr?$AA?9?$AAk?$AAw@ 000000014003fa48     libcpmt:winapinls.obj
 0002:00005a58       ??_C@_1M@EJALMLHM@?$AAa?$AAr?$AA?9?$AAl?$AAb@ 000000014003fa58     libcpmt:winapinls.obj
 0002:00005a68       ??_C@_1M@MOBDBLOC@?$AAa?$AAr?$AA?9?$AAl?$AAy@ 000000014003fa68     libcpmt:winapinls.obj
 0002:00005a78       ??_C@_1M@JAOCLHDH@?$AAa?$AAr?$AA?9?$AAm?$AAa@ 000000014003fa78     libcpmt:winapinls.obj
 0002:00005a88       ??_C@_1M@JHPMKJIE@?$AAa?$AAr?$AA?9?$AAo?$AAm@ 000000014003fa88     libcpmt:winapinls.obj
 0002:00005a98       ??_C@_1M@OEPGHFNH@?$AAa?$AAr?$AA?9?$AAq?$AAa@ 000000014003fa98     libcpmt:winapinls.obj
 0002:00005aa8       ??_C@_1M@KJDONENM@?$AAa?$AAr?$AA?9?$AAs?$AAa@ 000000014003faa8     libcpmt:winapinls.obj
 0002:00005ab8       ??_C@_1M@DMJDKLKM@?$AAa?$AAr?$AA?9?$AAs?$AAy@ 000000014003fab8     libcpmt:winapinls.obj
 0002:00005ac8       ??_C@_1M@OMFIPEDC@?$AAa?$AAr?$AA?9?$AAt?$AAn@ 000000014003fac8     libcpmt:winapinls.obj
 0002:00005ad8       ??_C@_1M@IHMHGAON@?$AAa?$AAr?$AA?9?$AAy?$AAe@ 000000014003fad8     libcpmt:winapinls.obj
 0002:00005ae8       ??_C@_1BG@KDCPGJGB@?$AAa?$AAz?$AA?9?$AAa?$AAz?$AA?9?$AAc?$AAy?$AAr?$AAl@ 000000014003fae8     libcpmt:winapinls.obj
 0002:00005b00       ??_C@_1BG@IBCKDDOE@?$AAa?$AAz?$AA?9?$AAa?$AAz?$AA?9?$AAl?$AAa?$AAt?$AAn@ 000000014003fb00     libcpmt:winapinls.obj
 0002:00005b18       ??_C@_1M@EGPFDCPD@?$AAb?$AAe?$AA?9?$AAb?$AAy@ 000000014003fb18     libcpmt:winapinls.obj
 0002:00005b28       ??_C@_1M@PCMGMCGC@?$AAb?$AAg?$AA?9?$AAb?$AAg@ 000000014003fb28     libcpmt:winapinls.obj
 0002:00005b38       ??_C@_1M@BJBMFGOB@?$AAb?$AAn?$AA?9?$AAi?$AAn@ 000000014003fb38     libcpmt:winapinls.obj
 0002:00005b48       ??_C@_1BG@EAKMMACD@?$AAb?$AAs?$AA?9?$AAb?$AAa?$AA?9?$AAl?$AAa?$AAt?$AAn@ 000000014003fb48     libcpmt:winapinls.obj
 0002:00005b60       ??_C@_1M@KGADAODK@?$AAc?$AAa?$AA?9?$AAe?$AAs@ 000000014003fb60     libcpmt:winapinls.obj
 0002:00005b70       ??_C@_1M@COAJPDHI@?$AAc?$AAs?$AA?9?$AAc?$AAz@ 000000014003fb70     libcpmt:winapinls.obj
 0002:00005b80       ??_C@_1M@DHBHFONH@?$AAc?$AAy?$AA?9?$AAg?$AAb@ 000000014003fb80     libcpmt:winapinls.obj
 0002:00005b90       ??_C@_1M@IMGKELGA@?$AAd?$AAa?$AA?9?$AAd?$AAk@ 000000014003fb90     libcpmt:winapinls.obj
 0002:00005ba0       ??_C@_1M@NNDGDNGA@?$AAd?$AAe?$AA?9?$AAa?$AAt@ 000000014003fba0     libcpmt:winapinls.obj
 0002:00005bb0       ??_C@_1M@IKDBHEEM@?$AAd?$AAe?$AA?9?$AAc?$AAh@ 000000014003fbb0     libcpmt:winapinls.obj
 0002:00005bc0       ??_C@_1M@GFFOJMCJ@?$AAd?$AAe?$AA?9?$AAd?$AAe@ 000000014003fbc0     libcpmt:winapinls.obj
 0002:00005bd0       ??_C@_1M@MDNLKBPM@?$AAd?$AAe?$AA?9?$AAl?$AAi@ 000000014003fbd0     libcpmt:winapinls.obj
 0002:00005be0       ??_C@_1M@NJBEEJNL@?$AAd?$AAe?$AA?9?$AAl?$AAu@ 000000014003fbe0     libcpmt:winapinls.obj
 0002:00005bf0       ??_C@_1O@GNNELBAP@?$AAd?$AAi?$AAv?$AA?9?$AAm?$AAv@ 000000014003fbf0     libcpmt:winapinls.obj
 0002:00005c00       ??_C@_1M@EJLEOGAE@?$AAe?$AAl?$AA?9?$AAg?$AAr@ 000000014003fc00     libcpmt:winapinls.obj
 0002:00005c10       ??_C@_1M@GMPONJN@?$AAe?$AAn?$AA?9?$AAa?$AAu@ 000000014003fc10     libcpmt:winapinls.obj
 0002:00005c20       ??_C@_1M@NIDIIPGF@?$AAe?$AAn?$AA?9?$AAb?$AAz@ 000000014003fc20     libcpmt:winapinls.obj
 0002:00005c30       ??_C@_1M@JEHMIMFO@?$AAe?$AAn?$AA?9?$AAc?$AAa@ 000000014003fc30     libcpmt:winapinls.obj
 0002:00005c40       ??_C@_1M@IGMJCDLA@?$AAe?$AAn?$AA?9?$AAc?$AAb@ 000000014003fc40     libcpmt:winapinls.obj
 0002:00005c50       ??_C@_1M@BNFIGBKG@?$AAe?$AAn?$AA?9?$AAg?$AAb@ 000000014003fc50     libcpmt:winapinls.obj
 0002:00005c60       ??_C@_1M@LKIFDIGP@?$AAe?$AAn?$AA?9?$AAi?$AAe@ 000000014003fc60     libcpmt:winapinls.obj
 0002:00005c70       ??_C@_1M@PJKFGCCO@?$AAe?$AAn?$AA?9?$AAj?$AAm@ 000000014003fc70     libcpmt:winapinls.obj
 0002:00005c80       ??_C@_1M@KPPKEPBO@?$AAe?$AAn?$AA?9?$AAn?$AAz@ 000000014003fc80     libcpmt:winapinls.obj
 0002:00005c90       ??_C@_1M@GMDGLDOB@?$AAe?$AAn?$AA?9?$AAp?$AAh@ 000000014003fc90     libcpmt:winapinls.obj
 0002:00005ca0       ??_C@_1M@ONGIBJNA@?$AAe?$AAn?$AA?9?$AAt?$AAt@ 000000014003fca0     libcpmt:winapinls.obj
 0002:00005cb0       ??_C@_1M@LLODPCMM@?$AAe?$AAn?$AA?9?$AAu?$AAs@ 000000014003fcb0     libcpmt:winapinls.obj
 0002:00005cc0       ??_C@_1M@LAKFNPAN@?$AAe?$AAn?$AA?9?$AAz?$AAa@ 000000014003fcc0     libcpmt:winapinls.obj
 0002:00005cd0       ??_C@_1M@MFNHNHEO@?$AAe?$AAn?$AA?9?$AAz?$AAw@ 000000014003fcd0     libcpmt:winapinls.obj
 0002:00005ce0       ??_C@_1M@EJEINPHM@?$AAe?$AAs?$AA?9?$AAa?$AAr@ 000000014003fce0     libcpmt:winapinls.obj
 0002:00005cf0       ??_C@_1M@GNKPCCJA@?$AAe?$AAs?$AA?9?$AAb?$AAo@ 000000014003fcf0     libcpmt:winapinls.obj
 0002:00005d00       ??_C@_1M@LEEGFONL@?$AAe?$AAs?$AA?9?$AAc?$AAl@ 000000014003fd00     libcpmt:winapinls.obj
 0002:00005d10       ??_C@_1M@KGPDPBDF@?$AAe?$AAs?$AA?9?$AAc?$AAo@ 000000014003fd10     libcpmt:winapinls.obj
 0002:00005d20       ??_C@_1M@EIAHOHH@?$AAe?$AAs?$AA?9?$AAc?$AAr@ 000000014003fd20     libcpmt:winapinls.obj
 0002:00005d30       ??_C@_1M@LLPGMBIN@?$AAe?$AAs?$AA?9?$AAd?$AAo@ 000000014003fd30     libcpmt:winapinls.obj
 0002:00005d40       ??_C@_1M@DKHMKNJA@?$AAe?$AAs?$AA?9?$AAe?$AAc@ 000000014003fd40     libcpmt:winapinls.obj
 0002:00005d50       ??_C@_1M@GKGFPKAP@?$AAe?$AAs?$AA?9?$AAe?$AAs@ 000000014003fd50     libcpmt:winapinls.obj
 0002:00005d60       ??_C@_1M@LKHKGDLN@?$AAe?$AAs?$AA?9?$AAg?$AAt@ 000000014003fd60     libcpmt:winapinls.obj
 0002:00005d70       ??_C@_1M@HEIIGGJD@?$AAe?$AAs?$AA?9?$AAh?$AAn@ 000000014003fd70     libcpmt:winapinls.obj
 0002:00005d80       ??_C@_1M@FBDHPPGD@?$AAe?$AAs?$AA?9?$AAm?$AAx@ 000000014003fd80     libcpmt:winapinls.obj
 0002:00005d90       ??_C@_1M@DPAGLNDH@?$AAe?$AAs?$AA?9?$AAn?$AAi@ 000000014003fd90     libcpmt:winapinls.obj
 0002:00005da0       ??_C@_1M@MDGOPGDD@?$AAe?$AAs?$AA?9?$AAp?$AAa@ 000000014003fda0     libcpmt:winapinls.obj
 0002:00005db0       ??_C@_1M@EMAMGBGE@?$AAe?$AAs?$AA?9?$AAp?$AAe@ 000000014003fdb0     libcpmt:winapinls.obj
 0002:00005dc0       ??_C@_1M@IBMCAOEC@?$AAe?$AAs?$AA?9?$AAp?$AAr@ 000000014003fdc0     libcpmt:winapinls.obj
 0002:00005dd0       ??_C@_1M@FGMDIJED@?$AAe?$AAs?$AA?9?$AAp?$AAy@ 000000014003fdd0     libcpmt:winapinls.obj
 0002:00005de0       ??_C@_1M@IIDEOLLL@?$AAe?$AAs?$AA?9?$AAs?$AAv@ 000000014003fde0     libcpmt:winapinls.obj
 0002:00005df0       ??_C@_1M@GAOBIPA@?$AAe?$AAs?$AA?9?$AAu?$AAy@ 000000014003fdf0     libcpmt:winapinls.obj
 0002:00005e00       ??_C@_1M@JKFFICHJ@?$AAe?$AAs?$AA?9?$AAv?$AAe@ 000000014003fe00     libcpmt:winapinls.obj
 0002:00005e10       ??_C@_1M@PNMLOJDF@?$AAe?$AAt?$AA?9?$AAe?$AAe@ 000000014003fe10     libcpmt:winapinls.obj
 0002:00005e20       ??_C@_1M@GHHLIKEI@?$AAe?$AAu?$AA?9?$AAe?$AAs@ 000000014003fe20     libcpmt:winapinls.obj
 0002:00005e30       ??_C@_1M@PBNONODE@?$AAf?$AAa?$AA?9?$AAi?$AAr@ 000000014003fe30     libcpmt:winapinls.obj
 0002:00005e40       ??_C@_1M@JEEHPMIL@?$AAf?$AAi?$AA?9?$AAf?$AAi@ 000000014003fe40     libcpmt:winapinls.obj
 0002:00005e50       ??_C@_1M@LMDCNDBA@?$AAf?$AAo?$AA?9?$AAf?$AAo@ 000000014003fe50     libcpmt:winapinls.obj
 0002:00005e60       ??_C@_1M@JKEOHLDK@?$AAf?$AAr?$AA?9?$AAb?$AAe@ 000000014003fe60     libcpmt:winapinls.obj
 0002:00005e70       ??_C@_1M@NOHADPMI@?$AAf?$AAr?$AA?9?$AAc?$AAa@ 000000014003fe70     libcpmt:winapinls.obj
 0002:00005e80       ??_C@_1M@KDHIHAEC@?$AAf?$AAr?$AA?9?$AAc?$AAh@ 000000014003fe80     libcpmt:winapinls.obj
 0002:00005e90       ??_C@_1M@MMBBFGAK@?$AAf?$AAr?$AA?9?$AAf?$AAr@ 000000014003fe90     libcpmt:winapinls.obj
 0002:00005ea0       ??_C@_1M@PAFNENNF@?$AAf?$AAr?$AA?9?$AAl?$AAu@ 000000014003fea0     libcpmt:winapinls.obj
 0002:00005eb0       ??_C@_1M@EOHDJGDD@?$AAf?$AAr?$AA?9?$AAm?$AAc@ 000000014003feb0     libcpmt:winapinls.obj
 0002:00005ec0       ??_C@_1M@FAPLLOPF@?$AAg?$AAl?$AA?9?$AAe?$AAs@ 000000014003fec0     libcpmt:winapinls.obj
 0002:00005ed0       ??_C@_1M@FOPBFLOO@?$AAg?$AAu?$AA?9?$AAi?$AAn@ 000000014003fed0     libcpmt:winapinls.obj
 0002:00005ee0       ??_C@_1M@KBMCINPM@?$AAh?$AAe?$AA?9?$AAi?$AAl@ 000000014003fee0     libcpmt:winapinls.obj
 0002:00005ef0       ??_C@_1M@BBPHKFPJ@?$AAh?$AAi?$AA?9?$AAi?$AAn@ 000000014003fef0     libcpmt:winapinls.obj
 0002:00005f00       ??_C@_1M@PMBNDPHD@?$AAh?$AAr?$AA?9?$AAb?$AAa@ 000000014003ff00     libcpmt:winapinls.obj
 0002:00005f10       ??_C@_1M@BPCKOEGE@?$AAh?$AAr?$AA?9?$AAh?$AAr@ 000000014003ff10     libcpmt:winapinls.obj
 0002:00005f20       ??_C@_1M@GACBMHKE@?$AAh?$AAu?$AA?9?$AAh?$AAu@ 000000014003ff20     libcpmt:winapinls.obj
 0002:00005f30       ??_C@_1M@MILPAJJC@?$AAh?$AAy?$AA?9?$AAa?$AAm@ 000000014003ff30     libcpmt:winapinls.obj
 0002:00005f40       ??_C@_1M@BABBICEC@?$AAi?$AAd?$AA?9?$AAi?$AAd@ 000000014003ff40     libcpmt:winapinls.obj
 0002:00005f50       ??_C@_1M@BIKNHHPF@?$AAi?$AAs?$AA?9?$AAi?$AAs@ 000000014003ff50     libcpmt:winapinls.obj
 0002:00005f60       ??_C@_1M@NMPCJPHE@?$AAi?$AAt?$AA?9?$AAc?$AAh@ 000000014003ff60     libcpmt:winapinls.obj
 0002:00005f70       ??_C@_1M@GHKGFEDF@?$AAi?$AAt?$AA?9?$AAi?$AAt@ 000000014003ff70     libcpmt:winapinls.obj
 0002:00005f80       ??_C@_1M@NIEJCJJA@?$AAj?$AAa?$AA?9?$AAj?$AAp@ 000000014003ff80     libcpmt:winapinls.obj
 0002:00005f90       ??_C@_1M@JILFNBIM@?$AAk?$AAa?$AA?9?$AAg?$AAe@ 000000014003ff90     libcpmt:winapinls.obj
 0002:00005fa0       ??_C@_1M@PACPMGPH@?$AAk?$AAk?$AA?9?$AAk?$AAz@ 000000014003ffa0     libcpmt:winapinls.obj
 0002:00005fb0       ??_C@_1M@IELFGMHA@?$AAk?$AAn?$AA?9?$AAi?$AAn@ 000000014003ffb0     libcpmt:winapinls.obj
 0002:00005fc0       ??_C@_1M@DMHAEOGC@?$AAk?$AAo?$AA?9?$AAk?$AAr@ 000000014003ffc0     libcpmt:winapinls.obj
 0002:00005fd0       ??_C@_1O@IBBJHCH@?$AAk?$AAo?$AAk?$AA?9?$AAi?$AAn@ 000000014003ffd0     libcpmt:winapinls.obj
 0002:00005fe0       ??_C@_1M@HBAHBIGA@?$AAk?$AAy?$AA?9?$AAk?$AAg@ 000000014003ffe0     libcpmt:winapinls.obj
 0002:00005ff0       ??_C@_1M@KPMILCJG@?$AAl?$AAt?$AA?9?$AAl?$AAt@ 000000014003fff0     libcpmt:winapinls.obj
 0002:00006000       ??_C@_1M@BDEKKCA@?$AAl?$AAv?$AA?9?$AAl?$AAv@ 0000000140040000     libcpmt:winapinls.obj
 0002:00006010       ??_C@_1M@ELCKCCJJ@?$AAm?$AAi?$AA?9?$AAn?$AAz@ 0000000140040010     libcpmt:winapinls.obj
 0002:00006020       ??_C@_1M@CBOOLAPA@?$AAm?$AAk?$AA?9?$AAm?$AAk@ 0000000140040020     libcpmt:winapinls.obj
 0002:00006030       ??_C@_1M@GPHNBJKN@?$AAm?$AAl?$AA?9?$AAi?$AAn@ 0000000140040030     libcpmt:winapinls.obj
 0002:00006040       ??_C@_1M@PABJILIG@?$AAm?$AAn?$AA?9?$AAm?$AAn@ 0000000140040040     libcpmt:winapinls.obj
 0002:00006050       ??_C@_1M@FGBKKIPG@?$AAm?$AAr?$AA?9?$AAi?$AAn@ 0000000140040050     libcpmt:winapinls.obj
 0002:00006060       ??_C@_1M@NDBPDDAL@?$AAm?$AAs?$AA?9?$AAb?$AAn@ 0000000140040060     libcpmt:winapinls.obj
 0002:00006070       ??_C@_1M@OPIHOOPI@?$AAm?$AAs?$AA?9?$AAm?$AAy@ 0000000140040070     libcpmt:winapinls.obj
 0002:00006080       ??_C@_1M@PPDBCNFM@?$AAm?$AAt?$AA?9?$AAm?$AAt@ 0000000140040080     libcpmt:winapinls.obj
 0002:00006090       ??_C@_1M@KDJDKMDD@?$AAn?$AAb?$AA?9?$AAn?$AAo@ 0000000140040090     libcpmt:winapinls.obj
 0002:000060a0       ??_C@_1M@KFCFLMJP@?$AAn?$AAl?$AA?9?$AAb?$AAe@ 00000001400400a0     libcpmt:winapinls.obj
 0002:000060b0       ??_C@_1M@KPOPDDGO@?$AAn?$AAl?$AA?9?$AAn?$AAl@ 00000001400400b0     libcpmt:winapinls.obj
 0002:000060c0       ??_C@_1M@LJKPEMLN@?$AAn?$AAn?$AA?9?$AAn?$AAo@ 00000001400400c0     libcpmt:winapinls.obj
 0002:000060d0       ??_C@_1M@BDGHHBFL@?$AAn?$AAs?$AA?9?$AAz?$AAa@ 00000001400400d0     libcpmt:winapinls.obj
 0002:000060e0       ??_C@_1M@IDEHOAP@?$AAp?$AAa?$AA?9?$AAi?$AAn@ 00000001400400e0     libcpmt:winapinls.obj
 0002:000060f0       ??_C@_1M@HDBKGOGH@?$AAp?$AAl?$AA?9?$AAp?$AAl@ 00000001400400f0     libcpmt:winapinls.obj
 0002:00006100       ??_C@_1M@LJLLCMEH@?$AAp?$AAt?$AA?9?$AAb?$AAr@ 0000000140040100     libcpmt:winapinls.obj
 0002:00006110       ??_C@_1M@NCMONAAL@?$AAp?$AAt?$AA?9?$AAp?$AAt@ 0000000140040110     libcpmt:winapinls.obj
 0002:00006120       ??_C@_1O@EAKMAJDN@?$AAq?$AAu?$AAz?$AA?9?$AAb?$AAo@ 0000000140040120     libcpmt:winapinls.obj
 0002:00006130       ??_C@_1O@BHHPIGDN@?$AAq?$AAu?$AAz?$AA?9?$AAe?$AAc@ 0000000140040130     libcpmt:winapinls.obj
 0002:00006140       ??_C@_1O@GBAPEKMJ@?$AAq?$AAu?$AAz?$AA?9?$AAp?$AAe@ 0000000140040140     libcpmt:winapinls.obj
 0002:00006150       ??_C@_1M@CLGLEFBO@?$AAr?$AAo?$AA?9?$AAr?$AAo@ 0000000140040150     libcpmt:winapinls.obj
 0002:00006160       ??_C@_1M@CEEDODME@?$AAr?$AAu?$AA?9?$AAr?$AAu@ 0000000140040160     libcpmt:winapinls.obj
 0002:00006170       ??_C@_1M@HPKKKMPP@?$AAs?$AAa?$AA?9?$AAi?$AAn@ 0000000140040170     libcpmt:winapinls.obj
 0002:00006180       ??_C@_1M@BKMAIGOJ@?$AAs?$AAe?$AA?9?$AAf?$AAi@ 0000000140040180     libcpmt:winapinls.obj
 0002:00006190       ??_C@_1M@NDPIFLFI@?$AAs?$AAe?$AA?9?$AAn?$AAo@ 0000000140040190     libcpmt:winapinls.obj
 0002:000061a0       ??_C@_1M@DANKKHJ@?$AAs?$AAe?$AA?9?$AAs?$AAe@ 00000001400401a0     libcpmt:winapinls.obj
 0002:000061b0       ??_C@_1M@PNBLONPJ@?$AAs?$AAk?$AA?9?$AAs?$AAk@ 00000001400401b0     libcpmt:winapinls.obj
 0002:000061c0       ??_C@_1M@LFMODOAL@?$AAs?$AAl?$AA?9?$AAs?$AAi@ 00000001400401c0     libcpmt:winapinls.obj
 0002:000061d0       ??_C@_1O@DFKOMPG@?$AAs?$AAm?$AAa?$AA?9?$AAn?$AAo@ 00000001400401d0     libcpmt:winapinls.obj
 0002:000061e0       ??_C@_1O@NDKPBNNH@?$AAs?$AAm?$AAa?$AA?9?$AAs?$AAe@ 00000001400401e0     libcpmt:winapinls.obj
 0002:000061f0       ??_C@_1O@PLLKBHAB@?$AAs?$AAm?$AAj?$AA?9?$AAn?$AAo@ 00000001400401f0     libcpmt:winapinls.obj
 0002:00006200       ??_C@_1O@CLEPOGCA@?$AAs?$AAm?$AAj?$AA?9?$AAs?$AAe@ 0000000140040200     libcpmt:winapinls.obj
 0002:00006210       ??_C@_1O@DLGJGKMK@?$AAs?$AAm?$AAn?$AA?9?$AAf?$AAi@ 0000000140040210     libcpmt:winapinls.obj
 0002:00006220       ??_C@_1O@OJDJGAJC@?$AAs?$AAm?$AAs?$AA?9?$AAf?$AAi@ 0000000140040220     libcpmt:winapinls.obj
 0002:00006230       ??_C@_1M@BOFOGHPB@?$AAs?$AAq?$AA?9?$AAa?$AAl@ 0000000140040230     libcpmt:winapinls.obj
 0002:00006240       ??_C@_1BG@LJBBIPGB@?$AAs?$AAr?$AA?9?$AAb?$AAa?$AA?9?$AAc?$AAy?$AAr?$AAl@ 0000000140040240     libcpmt:winapinls.obj
 0002:00006258       ??_C@_1BG@JLBENFOE@?$AAs?$AAr?$AA?9?$AAb?$AAa?$AA?9?$AAl?$AAa?$AAt?$AAn@ 0000000140040258     libcpmt:winapinls.obj
 0002:00006270       ??_C@_1BG@KODPNHE@?$AAs?$AAr?$AA?9?$AAs?$AAp?$AA?9?$AAc?$AAy?$AAr?$AAl@ 0000000140040270     libcpmt:winapinls.obj
 0002:00006288       ??_C@_1BG@CIOGKHPB@?$AAs?$AAr?$AA?9?$AAs?$AAp?$AA?9?$AAl?$AAa?$AAt?$AAn@ 0000000140040288     libcpmt:winapinls.obj
 0002:000062a0       ??_C@_1M@NGFJLMAC@?$AAs?$AAv?$AA?9?$AAf?$AAi@ 00000001400402a0     libcpmt:winapinls.obj
 0002:000062b0       ??_C@_1M@MPJEJAJC@?$AAs?$AAv?$AA?9?$AAs?$AAe@ 00000001400402b0     libcpmt:winapinls.obj
 0002:000062c0       ??_C@_1M@MPNDHLFK@?$AAs?$AAw?$AA?9?$AAk?$AAe@ 00000001400402c0     libcpmt:winapinls.obj
 0002:000062d0       ??_C@_1O@KOHBJJI@?$AAs?$AAy?$AAr?$AA?9?$AAs?$AAy@ 00000001400402d0     libcpmt:winapinls.obj
 0002:000062e0       ??_C@_1M@LDCEFHA@?$AAt?$AAa?$AA?9?$AAi?$AAn@ 00000001400402e0     libcpmt:winapinls.obj
 0002:000062f0       ??_C@_1M@CNJOFAK@?$AAt?$AAe?$AA?9?$AAi?$AAn@ 00000001400402f0     libcpmt:winapinls.obj
 0002:00006300       ??_C@_1M@GNAECACD@?$AAt?$AAh?$AA?9?$AAt?$AAh@ 0000000140040300     libcpmt:winapinls.obj
 0002:00006310       ??_C@_1M@CHBIHOJO@?$AAt?$AAn?$AA?9?$AAz?$AAa@ 0000000140040310     libcpmt:winapinls.obj
 0002:00006320       ??_C@_1M@GCCMIGPJ@?$AAt?$AAr?$AA?9?$AAt?$AAr@ 0000000140040320     libcpmt:winapinls.obj
 0002:00006330       ??_C@_1M@CELMCNBK@?$AAt?$AAt?$AA?9?$AAr?$AAu@ 0000000140040330     libcpmt:winapinls.obj
 0002:00006340       ??_C@_1M@KLMCELGA@?$AAu?$AAk?$AA?9?$AAu?$AAa@ 0000000140040340     libcpmt:winapinls.obj
 0002:00006350       ??_C@_1M@EPAJJAJF@?$AAu?$AAr?$AA?9?$AAp?$AAk@ 0000000140040350     libcpmt:winapinls.obj
 0002:00006360       ??_C@_1BG@GEGPMCDJ@?$AAu?$AAz?$AA?9?$AAu?$AAz?$AA?9?$AAc?$AAy?$AAr?$AAl@ 0000000140040360     libcpmt:winapinls.obj
 0002:00006378       ??_C@_1BG@EGGKJILM@?$AAu?$AAz?$AA?9?$AAu?$AAz?$AA?9?$AAl?$AAa?$AAt?$AAn@ 0000000140040378     libcpmt:winapinls.obj
 0002:00006390       ??_C@_1M@GFOCLFF@?$AAv?$AAi?$AA?9?$AAv?$AAn@ 0000000140040390     libcpmt:winapinls.obj
 0002:000063a0       ??_C@_1M@CPAMEDFI@?$AAx?$AAh?$AA?9?$AAz?$AAa@ 00000001400403a0     libcpmt:winapinls.obj
 0002:000063b0       ??_C@_1O@EBKIFIGN@?$AAz?$AAh?$AA?9?$AAc?$AAh?$AAs@ 00000001400403b0     libcpmt:winapinls.obj
 0002:000063c0       ??_C@_1O@NMHPGANE@?$AAz?$AAh?$AA?9?$AAc?$AAh?$AAt@ 00000001400403c0     libcpmt:winapinls.obj
 0002:000063d0       ??_C@_1M@LPINJOMC@?$AAz?$AAh?$AA?9?$AAc?$AAn@ 00000001400403d0     libcpmt:winapinls.obj
 0002:000063e0       ??_C@_1M@OCJEJODD@?$AAz?$AAh?$AA?9?$AAh?$AAk@ 00000001400403e0     libcpmt:winapinls.obj
 0002:000063f0       ??_C@_1M@DNDLJINH@?$AAz?$AAh?$AA?9?$AAm?$AAo@ 00000001400403f0     libcpmt:winapinls.obj
 0002:00006400       ??_C@_1M@MBFDNDND@?$AAz?$AAh?$AA?9?$AAs?$AAg@ 0000000140040400     libcpmt:winapinls.obj
 0002:00006410       ??_C@_1M@IMEPLEPE@?$AAz?$AAh?$AA?9?$AAt?$AAw@ 0000000140040410     libcpmt:winapinls.obj
 0002:00006420       ??_C@_1M@BBGHNHJP@?$AAz?$AAu?$AA?9?$AAz?$AAa@ 0000000140040420     libcpmt:winapinls.obj
 0002:00006438       ??_7type_info@@6B@         0000000140040438     LIBCMT:std_type_info_static.obj
 0002:00006440       __xmm@ffffffffffffffffffffffffffffffff 0000000140040440     LIBCMT:utility.obj
 0002:00006460       ?s_negLengthTab@FH4@@3QBCB 0000000140040460     libvcruntime:risctrnsctrl.obj
 0002:00006470       ?s_shiftTab@FH4@@3QBEB     0000000140040470     libvcruntime:risctrnsctrl.obj
 0002:000065b8       _pDestructExceptionObject  00000001400405b8     libvcruntime:ehhelpers.obj
 0002:000065c8       ??_7bad_exception@std@@6B@ 00000001400405c8     libvcruntime:frame.obj
 0002:000065d8       ??_C@_0O@DPKOEFFH@bad?5exception@ 00000001400405d8     libvcruntime:frame.obj
 0002:00006cf0       ??_C@_08EHJDFFNH@__based?$CI@ 0000000140040cf0     libvcruntime:undname.obj
 0002:00006d00       ??_C@_07KOLFKCDI@__cdecl@  0000000140040d00     libvcruntime:undname.obj
 0002:00006d08       ??_C@_08GHMPAG@__pascal@   0000000140040d08     libvcruntime:undname.obj
 0002:00006d18       ??_C@_09IFJBGAPI@__stdcall@ 0000000140040d18     libvcruntime:undname.obj
 0002:00006d28       ??_C@_0L@NPHFGOKO@__thiscall@ 0000000140040d28     libvcruntime:undname.obj
 0002:00006d38       ??_C@_0L@JMKHOMEK@__fastcall@ 0000000140040d38     libvcruntime:undname.obj
 0002:00006d48       ??_C@_0N@BCKKPABJ@__vectorcall@ 0000000140040d48     libvcruntime:undname.obj
 0002:00006d58       ??_C@_09HIJEGCPM@__clrcall@ 0000000140040d58     libvcruntime:undname.obj
 0002:00006d64       ??_C@_06GHPCKEAG@__eabi@   0000000140040d64     libvcruntime:undname.obj
 0002:00006d70       ??_C@_09IOPIDJLG@__swift_1@ 0000000140040d70     libvcruntime:undname.obj
 0002:00006d80       ??_C@_09KFNFGKHF@__swift_2@ 0000000140040d80     libvcruntime:undname.obj
 0002:00006d90       ??_C@_07JOMMBBKO@__ptr64@  0000000140040d90     libvcruntime:undname.obj
 0002:00006d98       ??_C@_0L@PILCLIHE@__restrict@ 0000000140040d98     libvcruntime:undname.obj
 0002:00006da8       ??_C@_0M@GFIIJFMG@__unaligned@ 0000000140040da8     libvcruntime:undname.obj
 0002:00006db8       ??_C@_09DHDLOLLB@restrict?$CI@ 0000000140040db8     libvcruntime:undname.obj
 0002:00006dc4       ??_C@_04NIHEBCM@?5new@     0000000140040dc4     libvcruntime:undname.obj
 0002:00006dd0       ??_C@_07FPCDHGMM@?5delete@ 0000000140040dd0     libvcruntime:undname.obj
 0002:00006dd8       ??_C@_01NEMOKFLO@?$DN@     0000000140040dd8     libvcruntime:undname.obj
 0002:00006ddc       ??_C@_02GPIOPFAK@?$DO?$DO@ 0000000140040ddc     libvcruntime:undname.obj
 0002:00006de0       ??_C@_02FODMEDOG@?$DM?$DM@ 0000000140040de0     libvcruntime:undname.obj
 0002:00006de4       ??_C@_01DCLJPIOD@?$CB@     0000000140040de4     libvcruntime:undname.obj
 0002:00006de8       ??_C@_02EGOFBIJA@?$DN?$DN@ 0000000140040de8     libvcruntime:undname.obj
 0002:00006dec       ??_C@_02FDNJECIE@?$CB?$DN@ 0000000140040dec     libvcruntime:undname.obj
 0002:00006df0       ??_C@_02GPECMEKF@?$FL?$FN@ 0000000140040df0     libvcruntime:undname.obj
 0002:00006df8       ??_C@_08LHJFAFGD@operator@ 0000000140040df8     libvcruntime:undname.obj
 0002:00006e04       ??_C@_02HBOOOICD@?9?$DO@   0000000140040e04     libvcruntime:undname.obj
 0002:00006e08       ??_C@_02ECNGHCIF@?$CL?$CL@ 0000000140040e08     libvcruntime:undname.obj
 0002:00006e0c       ??_C@_02BAABKJLB@?9?9@     0000000140040e0c     libvcruntime:undname.obj
 0002:00006e10       ??_C@_01MIFGBAGJ@?$CL@     0000000140040e10     libvcruntime:undname.obj
 0002:00006e14       ??_C@_01HNPIGOCE@?$CG@     0000000140040e14     libvcruntime:undname.obj
 0002:00006e18       ??_C@_03MNHNFDLC@?9?$DO?$CK@ 0000000140040e18     libvcruntime:undname.obj
 0002:00006e1c       ??_C@_01KMDKNFGN@?1@       0000000140040e1c     libvcruntime:undname.obj
 0002:00006e20       ??_C@_01FGNFDNOH@?$CF@     0000000140040e20     libvcruntime:undname.obj
 0002:00006e24       ??_C@_01MNNFJEPP@?$DM@     0000000140040e24     libvcruntime:undname.obj
 0002:00006e28       ??_C@_02EHCHHCKH@?$DM?$DN@ 0000000140040e28     libvcruntime:undname.obj
 0002:00006e2c       ??_C@_01PPODPGHN@?$DO@     0000000140040e2c     libvcruntime:undname.obj
 0002:00006e30       ??_C@_02EEKDKGMJ@?$DO?$DN@ 0000000140040e30     libvcruntime:undname.obj
 0002:00006e34       ??_C@_01IHBHIGKO@?0@       0000000140040e34     libvcruntime:undname.obj
 0002:00006e38       ??_C@_02HCKGKOFO@?$CI?$CJ@ 0000000140040e38     libvcruntime:undname.obj
 0002:00006e3c       ??_C@_01PJKLJHI@?$HO@      0000000140040e3c     libvcruntime:undname.obj
 0002:00006e40       ??_C@_01JKBOJNNK@?$FO@     0000000140040e40     libvcruntime:undname.obj
 0002:00006e44       ??_C@_01DNKMNLPK@?$HM@     0000000140040e44     libvcruntime:undname.obj
 0002:00006e48       ??_C@_02PPKAJPJL@?$CG?$CG@ 0000000140040e48     libvcruntime:undname.obj
 0002:00006e4c       ??_C@_02NONPIBCD@?$HM?$HM@ 0000000140040e4c     libvcruntime:undname.obj
 0002:00006e50       ??_C@_02FPIMKNGF@?$CK?$DN@ 0000000140040e50     libvcruntime:undname.obj
 0002:00006e54       ??_C@_02FOEOMHFC@?$CL?$DN@ 0000000140040e54     libvcruntime:undname.obj
 0002:00006e58       ??_C@_02FKMDLLOA@?9?$DN@   0000000140040e58     libvcruntime:undname.obj
 0002:00006e5c       ??_C@_02FJEHGPIO@?1?$DN@   0000000140040e5c     libvcruntime:undname.obj
 0002:00006e60       ??_C@_02FENAOKFI@?$CF?$DN@ 0000000140040e60     libvcruntime:undname.obj
 0002:00006e64       ??_C@_03IKFCCPFF@?$DO?$DO?$DN@ 0000000140040e64     libvcruntime:undname.obj
 0002:00006e68       ??_C@_03CDNPDDLA@?$DM?$DM?$DN@ 0000000140040e68     libvcruntime:undname.obj
 0002:00006e6c       ??_C@_02FGJGFEAB@?$CG?$DN@ 0000000140040e6c     libvcruntime:undname.obj
 0002:00006e70       ??_C@_02DHLNPPGH@?$HM?$DN@ 0000000140040e70     libvcruntime:undname.obj
 0002:00006e74       ??_C@_02MHEGNOJ@?$FO?$DN@  0000000140040e74     libvcruntime:undname.obj
 0002:00006e78       ??_C@_09IFPLHPGF@?$GAvftable?8@ 0000000140040e78     libvcruntime:undname.obj
 0002:00006e88       ??_C@_09BLBHBJP@?$GAvbtable?8@ 0000000140040e88     libvcruntime:undname.obj
 0002:00006e98       ??_C@_07FEEIOKP@?$GAvcall?8@ 0000000140040e98     libvcruntime:undname.obj
 0002:00006ea0       ??_C@_08LLFFHHDJ@?$GAtypeof?8@ 0000000140040ea0     libvcruntime:undname.obj
 0002:00006eb0       ??_C@_0BF@KDPPACIK@?$GAlocal?5static?5guard?8@ 0000000140040eb0     libvcruntime:undname.obj
 0002:00006ec8       ??_C@_08OBABFOLI@?$GAstring?8@ 0000000140040ec8     libvcruntime:undname.obj
 0002:00006ed8       ??_C@_0BD@JDLKDPAB@?$GAvbase?5destructor?8@ 0000000140040ed8     libvcruntime:undname.obj
 0002:00006ef0       ??_C@_0BN@DEGPLNFK@?$GAvector?5deleting?5destructor?8@ 0000000140040ef0     libvcruntime:undname.obj
 0002:00006f10       ??_C@_0BO@OBMKPJIG@?$GAdefault?5constructor?5closure?8@ 0000000140040f10     libvcruntime:undname.obj
 0002:00006f30       ??_C@_0BN@IMDCHIKM@?$GAscalar?5deleting?5destructor?8@ 0000000140040f30     libvcruntime:undname.obj
 0002:00006f50       ??_C@_0BO@PFGOCPJJ@?$GAvector?5constructor?5iterator?8@ 0000000140040f50     libvcruntime:undname.obj
 0002:00006f70       ??_C@_0BN@LFPFMEDL@?$GAvector?5destructor?5iterator?8@ 0000000140040f70     libvcruntime:undname.obj
 0002:00006f90       ??_C@_0CE@IKBNEHA@?$GAvector?5vbase?5constructor?5itera@ 0000000140040f90     libvcruntime:undname.obj
 0002:00006fb8       ??_C@_0BL@NILFHHPC@?$GAvirtual?5displacement?5map?8@ 0000000140040fb8     libvcruntime:undname.obj
 0002:00006fd8       ??_C@_0CB@JONCMFFK@?$GAeh?5vector?5constructor?5iterator@ 0000000140040fd8     libvcruntime:undname.obj
 0002:00007000       ??_C@_0CA@GCEOPDGL@?$GAeh?5vector?5destructor?5iterator?8@ 0000000140041000     libvcruntime:undname.obj
 0002:00007020       ??_C@_0CH@OOJPLCPH@?$GAeh?5vector?5vbase?5constructor?5it@ 0000000140041020     libvcruntime:undname.obj
 0002:00007048       ??_C@_0BL@LLKPOHJI@?$GAcopy?5constructor?5closure?8@ 0000000140041048     libvcruntime:undname.obj
 0002:00007068       ??_C@_0BA@KBCDOMBN@?$GAudt?5returning?8@ 0000000140041068     libvcruntime:undname.obj
 0002:00007078       ??_C@_03KLGMFNMG@?$GAEH@   0000000140041078     libvcruntime:undname.obj
 0002:0000707c       ??_C@_05KHLCHHI@?$GARTTI@  000000014004107c     libvcruntime:undname.obj
 0002:00007088       ??_C@_0BA@KKLDJDLB@?$GAlocal?5vftable?8@ 0000000140041088     libvcruntime:undname.obj
 0002:00007098       ??_C@_0CE@IIHCMGGL@?$GAlocal?5vftable?5constructor?5clos@ 0000000140041098     libvcruntime:undname.obj
 0002:000070bc       ??_C@_06FHBGPFGH@?5new?$FL?$FN@ 00000001400410bc     libvcruntime:undname.obj
 0002:000070c8       ??_C@_09LBNFPBCA@?5delete?$FL?$FN@ 00000001400410c8     libvcruntime:undname.obj
 0002:000070d8       ??_C@_0P@HJKNJFNN@?$GAomni?5callsig?8@ 00000001400410d8     libvcruntime:undname.obj
 0002:000070e8       ??_C@_0BL@CNOONJFP@?$GAplacement?5delete?5closure?8@ 00000001400410e8     libvcruntime:undname.obj
 0002:00007108       ??_C@_0BN@CKNJLHMB@?$GAplacement?5delete?$FL?$FN?5closure?8@ 0000000140041108     libvcruntime:undname.obj
 0002:00007128       ??_C@_0CG@CFDHKGGD@?$GAmanaged?5vector?5constructor?5ite@ 0000000140041128     libvcruntime:undname.obj
 0002:00007150       ??_C@_0CF@IMGKMJNO@?$GAmanaged?5vector?5destructor?5iter@ 0000000140041150     libvcruntime:undname.obj
 0002:00007178       ??_C@_0CG@HLDDJMAG@?$GAeh?5vector?5copy?5constructor?5ite@ 0000000140041178     libvcruntime:undname.obj
 0002:000071a0       ??_C@_0CM@FCBBDIGB@?$GAeh?5vector?5vbase?5copy?5construct@ 00000001400411a0     libvcruntime:undname.obj
 0002:000071d0       ??_C@_0BL@CLIPGLGB@?$GAdynamic?5initializer?5for?5?8@ 00000001400411d0     libvcruntime:undname.obj
 0002:000071f0       ??_C@_0CB@PDBIFEP@?$GAdynamic?5atexit?5destructor?5for?5@ 00000001400411f0     libvcruntime:undname.obj
 0002:00007218       ??_C@_0CD@CGAJBKEJ@?$GAvector?5copy?5constructor?5iterat@ 0000000140041218     libvcruntime:undname.obj
 0002:00007240       ??_C@_0CJ@GJELGAMM@?$GAvector?5vbase?5copy?5constructor?5@ 0000000140041240     libvcruntime:undname.obj
 0002:00007270       ??_C@_0CL@FGIJHLCE@?$GAmanaged?5vector?5copy?5constructo@ 0000000140041270     libvcruntime:undname.obj
 0002:000072a0       ??_C@_0BM@PMGGMLDN@?$GAlocal?5static?5thread?5guard?8@ 00000001400412a0     libvcruntime:undname.obj
 0002:000072c0       ??_C@_0N@BDNMDMOL@operator?5?$CC?$CC?5@ 00000001400412c0     libvcruntime:undname.obj
 0002:000072d0       ??_C@_0BC@GGEBGALA@operator?5co_await@ 00000001400412d0     libvcruntime:undname.obj
 0002:000072e8       ??_C@_0M@GAAIMMOH@operator?$DM?$DN?$DO@ 00000001400412e8     libvcruntime:undname.obj
 0002:000072f8       ??_C@_0BC@DAFEJGAK@?5Type?5Descriptor?8@ 00000001400412f8     libvcruntime:undname.obj
 0002:00007310       ??_C@_0BM@LDKODKLH@?5Base?5Class?5Descriptor?5at?5?$CI@ 0000000140041310     libvcruntime:undname.obj
 0002:00007330       ??_C@_0BD@LGICGFMM@?5Base?5Class?5Array?8@ 0000000140041330     libvcruntime:undname.obj
 0002:00007348       ??_C@_0BN@MECKDCOJ@?5Class?5Hierarchy?5Descriptor?8@ 0000000140041348     libvcruntime:undname.obj
 0002:00007368       ??_C@_0BK@CFCOFLF@?5Complete?5Object?5Locator?8@ 0000000140041368     libvcruntime:undname.obj
 0002:00007388       ??_C@_0BG@JNJLAMPM@?$GAanonymous?5namespace?8@ 0000000140041388     libvcruntime:undname.obj
 0002:000073b8       ??_C@_1DM@KHCHBNEB@?$AAa?$AAp?$AAi?$AA?9?$AAm?$AAs?$AA?9?$AAw?$AAi?$AAn?$AA?9?$AAc?$AAo?$AAr?$AAe@ 00000001400413b8     libvcruntime:winapi_downlevel.obj
 0002:000073f8       ??_C@_1DK@LPPGFMPP@?$AAa?$AAp?$AAi?$AA?9?$AAm?$AAs?$AA?9?$AAw?$AAi?$AAn?$AA?9?$AAc?$AAo?$AAr?$AAe@ 00000001400413f8     libvcruntime:winapi_downlevel.obj
 0002:00007438       ??_C@_1BC@GDMECMAK@?$AAk?$AAe?$AAr?$AAn?$AAe?$AAl?$AA3?$AA2@ 0000000140041438     libvcruntime:winapi_downlevel.obj
 0002:00007450       ??_C@_1BA@PFFKHIOG@?$AAa?$AAp?$AAi?$AA?9?$AAm?$AAs?$AA?9@ 0000000140041450     libvcruntime:winapi_downlevel.obj
 0002:00007490       standard_lookup_table      0000000140041490     libucrt:output.obj
 0002:000074f0       format_validation_lookup_table 00000001400414f0     libucrt:output.obj
 0002:00007550       ??_C@_1O@CEDCILHN@?$AA?$CI?$AAn?$AAu?$AAl?$AAl?$AA?$CJ@ 0000000140041550     libucrt:output.obj
 0002:00007560       ??_C@_06OJHGLDPL@?$CInull?$CJ@ 0000000140041560     libucrt:output.obj
 0002:00007570       ?large_power_data@?1??multiply_by_power_of_ten@__crt_strtox@@YA_NAEAUbig_integer@2@I@Z@4QBIB 0000000140041570     libucrt:atof.obj
 0002:00007f18       ?small_powers_of_ten@?1??multiply_by_power_of_ten@__crt_strtox@@YA_NAEAUbig_integer@2@I@Z@4QBIB 0000000140041f18     libucrt:atof.obj
 0002:00007f40       ??_C@_1GE@DPGDJKLM@?$AAm?$AAi?$AAn?$AAk?$AAe?$AAr?$AAn?$AAe?$AAl?$AA?2?$AAc?$AAr?$AAt?$AAs?$AA?2@ 0000000140041f40     libucrt:atof.obj
 0002:00007fb0       ??_C@_1FM@FELNCOBF@?$AA_?$AA_?$AAc?$AAr?$AAt?$AA_?$AAs?$AAt?$AAr?$AAt?$AAo?$AAx?$AA?3?$AA?3?$AAf@ 0000000140041fb0     libucrt:atof.obj
 0002:00008010       ??_C@_1BG@GEMHBGAF@?$AA_?$AAi?$AAs?$AA_?$AAd?$AAo?$AAu?$AAb?$AAl?$AAe@ 0000000140042010     libucrt:atof.obj
 0002:00008030       ??_C@_1FK@JOJELFFO@?$AA_?$AA_?$AAc?$AAr?$AAt?$AA_?$AAs?$AAt?$AAr?$AAt?$AAo?$AAx?$AA?3?$AA?3?$AAf@ 0000000140042030     libucrt:atof.obj
 0002:00008090       ??_C@_1BI@BANMPGJI@?$AA?$CB?$AA_?$AAi?$AAs?$AA_?$AAd?$AAo?$AAu?$AAb?$AAl?$AAe@ 0000000140042090     libucrt:atof.obj
 0002:000080a8       ?inf_uppercase@?1???$parse_floating_point_possible_infinity@DV?$c_string_character_source@D@__crt_strtox@@PEBD@__crt_strtox@@YA?AW4floating_point_parse_result@1@AEADAEAV?$c_string_character_source@D@1@PEBD@Z@4QBDB 00000001400420a8     libucrt:atof.obj
 0002:000080ac       ?inf_lowercase@?1???$parse_floating_point_possible_infinity@DV?$c_string_character_source@D@__crt_strtox@@PEBD@__crt_strtox@@YA?AW4floating_point_parse_result@1@AEADAEAV?$c_string_character_source@D@1@PEBD@Z@4QBDB 00000001400420ac     libucrt:atof.obj
 0002:000080b0       ?inity_uppercase@?1???$parse_floating_point_possible_infinity@DV?$c_string_character_source@D@__crt_strtox@@PEBD@__crt_strtox@@YA?AW4floating_point_parse_result@1@AEADAEAV?$c_string_character_source@D@1@PEBD@Z@4QBDB 00000001400420b0     libucrt:atof.obj
 0002:000080b8       ?inity_lowercase@?1???$parse_floating_point_possible_infinity@DV?$c_string_character_source@D@__crt_strtox@@PEBD@__crt_strtox@@YA?AW4floating_point_parse_result@1@AEADAEAV?$c_string_character_source@D@1@PEBD@Z@4QBDB 00000001400420b8     libucrt:atof.obj
 0002:000080c0       ?uppercase@?1???$parse_floating_point_possible_nan@DV?$c_string_character_source@D@__crt_strtox@@PEBD@__crt_strtox@@YA?AW4floating_point_parse_result@1@AEADAEAV?$c_string_character_source@D@1@PEBD@Z@4QBDB 00000001400420c0     libucrt:atof.obj
 0002:000080c4       ?lowercase@?1???$parse_floating_point_possible_nan@DV?$c_string_character_source@D@__crt_strtox@@PEBD@__crt_strtox@@YA?AW4floating_point_parse_result@1@AEADAEAV?$c_string_character_source@D@1@PEBD@Z@4QBDB 00000001400420c4     libucrt:atof.obj
 0002:000080c8       ?uppercase@?1???$parse_floating_point_possible_nan_is_snan@DV?$c_string_character_source@D@__crt_strtox@@@__crt_strtox@@YA_NAEADAEAV?$c_string_character_source@D@1@@Z@4QBDB 00000001400420c8     libucrt:atof.obj
 0002:000080d0       ?lowercase@?1???$parse_floating_point_possible_nan_is_snan@DV?$c_string_character_source@D@__crt_strtox@@@__crt_strtox@@YA_NAEADAEAV?$c_string_character_source@D@1@@Z@4QBDB 00000001400420d0     libucrt:atof.obj
 0002:000080d8       ?uppercase@?1???$parse_floating_point_possible_nan_is_ind@DV?$c_string_character_source@D@__crt_strtox@@@__crt_strtox@@YA_NAEADAEAV?$c_string_character_source@D@1@@Z@4QBDB 00000001400420d8     libucrt:atof.obj
 0002:000080dc       ?lowercase@?1???$parse_floating_point_possible_nan_is_ind@DV?$c_string_character_source@D@__crt_strtox@@@__crt_strtox@@YA_NAEADAEAV?$c_string_character_source@D@1@@Z@4QBDB 00000001400420dc     libucrt:atof.obj
 0002:000080e0       __real@0000000000000000    00000001400420e0     libucrt:frexp.obj
 0002:000080e8       __real@8000000000000000    00000001400420e8     libucrt:frexp.obj
 0002:00009760       __newctype                 0000000140043760     libucrt:ctype.obj
 0002:00009a60       __newclmap                 0000000140043a60     libucrt:ctype.obj
 0002:00009be0       __newcumap                 0000000140043be0     libucrt:ctype.obj
 0002:00009d60       _wctype                    0000000140043d60     libucrt:ctype.obj
 0002:0000a9e0       __acrt_exception_action_table 00000001400449e0     libucrt:exception_filter.obj
 0002:0000aaa0       __acrt_signal_action_table_count 0000000140044aa0     libucrt:exception_filter.obj
 0002:0000aaa8       __acrt_signal_action_first_fpe_index 0000000140044aa8     libucrt:exception_filter.obj
 0002:0000aab0       __acrt_signal_action_fpe_count 0000000140044ab0     libucrt:exception_filter.obj
 0002:0000aab8       ??_C@_1BI@BGOHAHKC@?$AAm?$AAs?$AAc?$AAo?$AAr?$AAe?$AAe?$AA?4?$AAd?$AAl?$AAl@ 0000000140044ab8     libucrt:exit.obj
 0002:0000aad0       ??_C@_0P@MIGLKIOC@CorExitProcess@ 0000000140044ad0     libucrt:exit.obj
 0002:0000ab60       __lc_category              0000000140044b60     libucrt:wsetlocale.obj
 0002:0000abf0       ??_C@_1O@GIFLHMA@?$AAL?$AAC?$AA_?$AAA?$AAL?$AAL@ 0000000140044bf0     libucrt:wsetlocale.obj
 0002:0000ac00       ??_C@_1BG@PPOMIBNJ@?$AAL?$AAC?$AA_?$AAC?$AAO?$AAL?$AAL?$AAA?$AAT?$AAE@ 0000000140044c00     libucrt:wsetlocale.obj
 0002:0000ac18       ??_C@_1BC@FFJGAPJM@?$AAL?$AAC?$AA_?$AAC?$AAT?$AAY?$AAP?$AAE@ 0000000140044c18     libucrt:wsetlocale.obj
 0002:0000ac30       ??_C@_1BI@PCKFNJFB@?$AAL?$AAC?$AA_?$AAM?$AAO?$AAN?$AAE?$AAT?$AAA?$AAR?$AAY@ 0000000140044c30     libucrt:wsetlocale.obj
 0002:0000ac48       ??_C@_1BG@ENIEDKID@?$AAL?$AAC?$AA_?$AAN?$AAU?$AAM?$AAE?$AAR?$AAI?$AAC@ 0000000140044c48     libucrt:wsetlocale.obj
 0002:0000ac60       ??_C@_1BA@HAAOMIIG@?$AAL?$AAC?$AA_?$AAT?$AAI?$AAM?$AAE@ 0000000140044c60     libucrt:wsetlocale.obj
 0002:0000ac70       ??_C@_15NBPDDFIP@?$AA?$DN?$AA?$DL@ 0000000140044c70     libucrt:wsetlocale.obj
 0002:0000ac78       ??_C@_13PJJBFPED@?$AA?$DL@ 0000000140044c78     libucrt:wsetlocale.obj
 0002:0000ac7c       ??_C@_13NMPKAAJP@?$AA?$DN@ 0000000140044c7c     libucrt:wsetlocale.obj
 0002:0000ac80       ??_C@_17EFJLDFDO@?$AA?9?$AA_?$AA?4@ 0000000140044c80     libucrt:wsetlocale.obj
 0002:0000ac88       ??_C@_13FHBKNHDA@?$AAC@    0000000140044c88     libucrt:wsetlocale.obj
 0002:0000ac90       ??_C@_17MBJJLFDM@?$AA_?$AA?4?$AA?0@ 0000000140044c90     libucrt:wsetlocale.obj
 0002:0000ac98       ??_C@_13ENNFDPBH@?$AA_@    0000000140044c98     libucrt:wsetlocale.obj
 0002:0000ac9c       ??_C@_13JOFGPIOO@?$AA?4@   0000000140044c9c     libucrt:wsetlocale.obj
 0002:0000ae40       ??_C@_1EA@JGEFHKEI@?$AAa?$AAp?$AAi?$AA?9?$AAm?$AAs?$AA?9?$AAw?$AAi?$AAn?$AA?9?$AAc?$AAo?$AAr?$AAe@ 0000000140044e40     libucrt:winapi_thunks.obj
 0002:0000ae80       ??_C@_1DI@IJCEHOCB@?$AAa?$AAp?$AAi?$AA?9?$AAm?$AAs?$AA?9?$AAw?$AAi?$AAn?$AA?9?$AAc?$AAo?$AAr?$AAe@ 0000000140044e80     libucrt:winapi_thunks.obj
 0002:0000aec0       ??_C@_1EI@MPIAOHOC@?$AAa?$AAp?$AAi?$AA?9?$AAm?$AAs?$AA?9?$AAw?$AAi?$AAn?$AA?9?$AAc?$AAo?$AAr?$AAe@ 0000000140044ec0     libucrt:winapi_thunks.obj
 0002:0000af10       ??_C@_1FK@FPHCKFIE@?$AAa?$AAp?$AAi?$AA?9?$AAm?$AAs?$AA?9?$AAw?$AAi?$AAn?$AA?9?$AAc?$AAo?$AAr?$AAe@ 0000000140044f10     libucrt:winapi_thunks.obj
 0002:0000af70       ??_C@_1EM@DILCGIIO@?$AAa?$AAp?$AAi?$AA?9?$AAm?$AAs?$AA?9?$AAw?$AAi?$AAn?$AA?9?$AAc?$AAo?$AAr?$AAe@ 0000000140044f70     libucrt:winapi_thunks.obj
 0002:0000afc0       ??_C@_1DM@LNCGDDPN@?$AAa?$AAp?$AAi?$AA?9?$AAm?$AAs?$AA?9?$AAw?$AAi?$AAn?$AA?9?$AAc?$AAo?$AAr?$AAe@ 0000000140044fc0     libucrt:winapi_thunks.obj
 0002:0000b000       ??_C@_1DO@FPAPJEMD@?$AAa?$AAp?$AAi?$AA?9?$AAm?$AAs?$AA?9?$AAw?$AAi?$AAn?$AA?9?$AAc?$AAo?$AAr?$AAe@ 0000000140045000     libucrt:winapi_thunks.obj
 0002:0000b040       ??_C@_1DK@NDHNAHIO@?$AAa?$AAp?$AAi?$AA?9?$AAm?$AAs?$AA?9?$AAw?$AAi?$AAn?$AA?9?$AAc?$AAo?$AAr?$AAe@ 0000000140045040     libucrt:winapi_thunks.obj
 0002:0000b080       ??_C@_1DM@KGHDGBCM@?$AAa?$AAp?$AAi?$AA?9?$AAm?$AAs?$AA?9?$AAw?$AAi?$AAn?$AA?9?$AAc?$AAo?$AAr?$AAe@ 0000000140045080     libucrt:winapi_thunks.obj
 0002:0000b0c0       ??_C@_1EO@IJIOEFOH@?$AAa?$AAp?$AAi?$AA?9?$AAm?$AAs?$AA?9?$AAw?$AAi?$AAn?$AA?9?$AAr?$AAt?$AAc?$AAo@ 00000001400450c0     libucrt:winapi_thunks.obj
 0002:0000b110       ??_C@_1FG@HHGEKANL@?$AAa?$AAp?$AAi?$AA?9?$AAm?$AAs?$AA?9?$AAw?$AAi?$AAn?$AA?9?$AAs?$AAe?$AAc?$AAu@ 0000000140045110     libucrt:winapi_thunks.obj
 0002:0000b170       ??_C@_1EG@DBIOJECG@?$AAe?$AAx?$AAt?$AA?9?$AAm?$AAs?$AA?9?$AAw?$AAi?$AAn?$AA?9?$AAn?$AAt?$AAu?$AAs@ 0000000140045170     libucrt:winapi_thunks.obj
 0002:0000b1c0       ??_C@_1EO@FIHMJCLF@?$AAe?$AAx?$AAt?$AA?9?$AAm?$AAs?$AA?9?$AAw?$AAi?$AAn?$AA?9?$AAn?$AAt?$AAu?$AAs@ 00000001400451c0     libucrt:winapi_thunks.obj
 0002:0000b210       ??_C@_1BC@DNHGCMLG@?$AAa?$AAd?$AAv?$AAa?$AAp?$AAi?$AA3?$AA2@ 0000000140045210     libucrt:winapi_thunks.obj
 0002:0000b228       ??_C@_1M@OAIMIKLP@?$AAn?$AAt?$AAd?$AAl?$AAl@ 0000000140045228     libucrt:winapi_thunks.obj
 0002:0000b240       ??_C@_1EG@DPGNFKGC@?$AAa?$AAp?$AAi?$AA?9?$AAm?$AAs?$AA?9?$AAw?$AAi?$AAn?$AA?9?$AAa?$AAp?$AAp?$AAm@ 0000000140045240     libucrt:winapi_thunks.obj
 0002:0000b288       ??_C@_1O@BCCLBEOE@?$AAu?$AAs?$AAe?$AAr?$AA3?$AA2@ 0000000140045288     libucrt:winapi_thunks.obj
 0002:0000b298       ??_C@_1BA@IAIFMGEF@?$AAe?$AAx?$AAt?$AA?9?$AAm?$AAs?$AA?9@ 0000000140045298     libucrt:winapi_thunks.obj
 0002:0000b2b0       ??_C@_0BA@FHFNEAED@AreFileApisANSI@ 00000001400452b0     libucrt:winapi_thunks.obj
 0002:0000b2d0       ??_C@_0BE@LJANKFHF@EnumSystemLocalesEx@ 00000001400452d0     libucrt:winapi_thunks.obj
 0002:0000b310       ??_C@_0BA@EPCJIIPD@GetDateFormatEx@ 0000000140045310     libucrt:winapi_thunks.obj
 0002:0000b330       ??_C@_0BA@CIJJKCJJ@GetTimeFormatEx@ 0000000140045330     libucrt:winapi_thunks.obj
 0002:0000b348       ??_C@_0BJ@PBCCBIPI@GetUserDefaultLocaleName@ 0000000140045348     libucrt:winapi_thunks.obj
 0002:0000b378       ??_C@_0BC@CELBKLLA@IsValidLocaleName@ 0000000140045378     libucrt:winapi_thunks.obj
 0002:0000b3a0       ??_C@_0BB@CDHDDLLP@LCIDToLocaleName@ 00000001400453a0     libucrt:winapi_thunks.obj
 0002:0000b3c0       ??_C@_0BB@HBDEELFH@LocaleNameToLCID@ 00000001400453c0     libucrt:winapi_thunks.obj
 0002:0000b3d8       ??_C@_0CF@OJOFEIGO@AppPolicyGetProcessTerminationM@ 00000001400453d8     libucrt:winapi_thunks.obj
 0002:0000b480       ??_C@_03OEIAHPBN@INF@      0000000140045480     libucrt:cvt.obj
 0002:0000b484       ??_C@_03OJHLLCGB@inf@      0000000140045484     libucrt:cvt.obj
 0002:0000b488       ??_C@_03LKNCIKJB@NAN@      0000000140045488     libucrt:cvt.obj
 0002:0000b48c       ??_C@_03LHCJEHON@nan@      000000014004548c     libucrt:cvt.obj
 0002:0000b490       ??_C@_09OFJJIMPC@NAN?$CISNAN?$CJ@ 0000000140045490     libucrt:cvt.obj
 0002:0000b4a0       ??_C@_09IPFBKMDL@nan?$CIsnan?$CJ@ 00000001400454a0     libucrt:cvt.obj
 0002:0000b4b0       ??_C@_08IKHNHAJ@NAN?$CIIND?$CJ@ 00000001400454b0     libucrt:cvt.obj
 0002:0000b4c0       ??_C@_08OFCDMILK@nan?$CIind?$CJ@ 00000001400454c0     libucrt:cvt.obj
 0002:0000b4cc       ??_C@_05KLBDPFGC@e?$CL000@ 00000001400454cc     libucrt:cvt.obj
 0002:0000b4e0       __lc_time_c                00000001400454e0     libucrt:nlsdata.obj
 0002:0000b7a0       ??_C@_03KOEHGMDN@Sun@      00000001400457a0     libucrt:nlsdata.obj
 0002:0000b7a4       ??_C@_03PDAGKDH@Mon@       00000001400457a4     libucrt:nlsdata.obj
 0002:0000b7a8       ??_C@_03NAGEINEP@Tue@      00000001400457a8     libucrt:nlsdata.obj
 0002:0000b7ac       ??_C@_03MHOMLAJA@Wed@      00000001400457ac     libucrt:nlsdata.obj
 0002:0000b7b0       ??_C@_03IOFIKPDN@Thu@      00000001400457b0     libucrt:nlsdata.obj
 0002:0000b7b4       ??_C@_03IDIOELNC@Fri@      00000001400457b4     libucrt:nlsdata.obj
 0002:0000b7b8       ??_C@_03FEFJNEK@Sat@       00000001400457b8     libucrt:nlsdata.obj
 0002:0000b7bc       ??_C@_06OOPIFAJ@Sunday@    00000001400457bc     libucrt:nlsdata.obj
 0002:0000b7c4       ??_C@_06JLEDEDGH@Monday@   00000001400457c4     libucrt:nlsdata.obj
 0002:0000b7d0       ??_C@_07BAAGCFCM@Tuesday@  00000001400457d0     libucrt:nlsdata.obj
 0002:0000b7d8       ??_C@_09DLIGFAKA@Wednesday@ 00000001400457d8     libucrt:nlsdata.obj
 0002:0000b7e8       ??_C@_08HACCIKIA@Thursday@ 00000001400457e8     libucrt:nlsdata.obj
 0002:0000b7f4       ??_C@_06JECMNKMI@Friday@   00000001400457f4     libucrt:nlsdata.obj
 0002:0000b800       ??_C@_08INBOOONO@Saturday@ 0000000140045800     libucrt:nlsdata.obj
 0002:0000b80c       ??_C@_03JIHJHPIE@Jan@      000000014004580c     libucrt:nlsdata.obj
 0002:0000b810       ??_C@_03HJBDCHOM@Feb@      0000000140045810     libucrt:nlsdata.obj
 0002:0000b814       ??_C@_03ODNJBKGA@Mar@      0000000140045814     libucrt:nlsdata.obj
 0002:0000b818       ??_C@_03LEOLGMJP@Apr@      0000000140045818     libucrt:nlsdata.obj
 0002:0000b81c       ??_C@_03CNMDKL@May@        000000014004581c     libucrt:nlsdata.obj
 0002:0000b820       ??_C@_03IDFGHECI@Jun@      0000000140045820     libucrt:nlsdata.obj
 0002:0000b824       ??_C@_03LBGABGKK@Jul@      0000000140045824     libucrt:nlsdata.obj
 0002:0000b828       ??_C@_03IFJFEIGA@Aug@      0000000140045828     libucrt:nlsdata.obj
 0002:0000b82c       ??_C@_03GGCAPAJC@Sep@      000000014004582c     libucrt:nlsdata.obj
 0002:0000b830       ??_C@_03BMAOKBAD@Oct@      0000000140045830     libucrt:nlsdata.obj
 0002:0000b834       ??_C@_03JPJOFNIA@Nov@      0000000140045834     libucrt:nlsdata.obj
 0002:0000b838       ??_C@_03MKABNOCG@Dec@      0000000140045838     libucrt:nlsdata.obj
 0002:0000b840       ??_C@_07CGJPFGJA@January@  0000000140045840     libucrt:nlsdata.obj
 0002:0000b848       ??_C@_08GNJGEPFN@February@ 0000000140045848     libucrt:nlsdata.obj
 0002:0000b854       ??_C@_05HPCKOFNC@March@    0000000140045854     libucrt:nlsdata.obj
 0002:0000b85c       ??_C@_05DMJDNLEJ@April@    000000014004585c     libucrt:nlsdata.obj
 0002:0000b864       ??_C@_04CNLMGBGM@June@     0000000140045864     libucrt:nlsdata.obj
 0002:0000b86c       ??_C@_04MIEPOIFP@July@     000000014004586c     libucrt:nlsdata.obj
 0002:0000b874       ??_C@_06LBBHFDDG@August@   0000000140045874     libucrt:nlsdata.obj
 0002:0000b880       ??_C@_09BHHEALKD@September@ 0000000140045880     libucrt:nlsdata.obj
 0002:0000b890       ??_C@_07JJNFCEND@October@  0000000140045890     libucrt:nlsdata.obj
 0002:0000b898       ??_C@_08HCHEGEOA@November@ 0000000140045898     libucrt:nlsdata.obj
 0002:0000b8a8       ??_C@_08EDHMEBNP@December@ 00000001400458a8     libucrt:nlsdata.obj
 0002:0000b8b4       ??_C@_02DEDBPAFC@AM@       00000001400458b4     libucrt:nlsdata.obj
 0002:0000b8b8       ??_C@_02CJNFDJBF@PM@       00000001400458b8     libucrt:nlsdata.obj
 0002:0000b8c0       ??_C@_08BPBNCDIB@MM?1dd?1yy@ 00000001400458c0     libucrt:nlsdata.obj
 0002:0000b8d0       ??_C@_0BE@CKGJFCPC@dddd?0?5MMMM?5dd?0?5yyyy@ 00000001400458d0     libucrt:nlsdata.obj
 0002:0000b8e8       ??_C@_08JCCMCCIL@HH?3mm?3ss@ 00000001400458e8     libucrt:nlsdata.obj
 0002:0000b8f8       ??_C@_17MBGCMIPB@?$AAS?$AAu?$AAn@ 00000001400458f8     libucrt:nlsdata.obj
 0002:0000b900       ??_C@_17KBOMKBF@?$AAM?$AAo?$AAn@ 0000000140045900     libucrt:nlsdata.obj
 0002:0000b908       ??_C@_17BMKGEGOJ@?$AAT?$AAu?$AAe@ 0000000140045908     libucrt:nlsdata.obj
 0002:0000b910       ??_C@_17CJEDCEPE@?$AAW?$AAe?$AAd@ 0000000140045910     libucrt:nlsdata.obj
 0002:0000b918       ??_C@_17PDPHAADD@?$AAT?$AAh?$AAu@ 0000000140045918     libucrt:nlsdata.obj
 0002:0000b920       ??_C@_17HFOLPPLP@?$AAF?$AAr?$AAi@ 0000000140045920     libucrt:nlsdata.obj
 0002:0000b928       ??_C@_17GGIBDPIH@?$AAS?$AAa?$AAt@ 0000000140045928     libucrt:nlsdata.obj
 0002:0000b930       ??_C@_1O@IHNHDHPB@?$AAS?$AAu?$AAn?$AAd?$AAa?$AAy@ 0000000140045930     libucrt:nlsdata.obj
 0002:0000b940       ??_C@_1O@MMNBFLIA@?$AAM?$AAo?$AAn?$AAd?$AAa?$AAy@ 0000000140045940     libucrt:nlsdata.obj
 0002:0000b950       ??_C@_1BA@ENFBFFEK@?$AAT?$AAu?$AAe?$AAs?$AAd?$AAa?$AAy@ 0000000140045950     libucrt:nlsdata.obj
 0002:0000b960       ??_C@_1BE@EBOGMDOH@?$AAW?$AAe?$AAd?$AAn?$AAe?$AAs?$AAd?$AAa?$AAy@ 0000000140045960     libucrt:nlsdata.obj
 0002:0000b978       ??_C@_1BC@HHMNLIHE@?$AAT?$AAh?$AAu?$AAr?$AAs?$AAd?$AAa?$AAy@ 0000000140045978     libucrt:nlsdata.obj
 0002:0000b990       ??_C@_1O@PDICJHAG@?$AAF?$AAr?$AAi?$AAd?$AAa?$AAy@ 0000000140045990     libucrt:nlsdata.obj
 0002:0000b9a0       ??_C@_1BC@ENMNNPAJ@?$AAS?$AAa?$AAt?$AAu?$AAr?$AAd?$AAa?$AAy@ 00000001400459a0     libucrt:nlsdata.obj
 0002:0000b9b8       ??_C@_17DKNBKCHM@?$AAJ?$AAa?$AAn@ 00000001400459b8     libucrt:nlsdata.obj
 0002:0000b9c0       ??_C@_17LMDJEKJN@?$AAF?$AAe?$AAb@ 00000001400459c0     libucrt:nlsdata.obj
 0002:0000b9c8       ??_C@_17CKNLEDEC@?$AAM?$AAa?$AAr@ 00000001400459c8     libucrt:nlsdata.obj
 0002:0000b9d0       ??_C@_17LFPOIHDD@?$AAA?$AAp?$AAr@ 00000001400459d0     libucrt:nlsdata.obj
 0002:0000b9d8       ??_C@_17PNNKMEED@?$AAM?$AAa?$AAy@ 00000001400459d8     libucrt:nlsdata.obj
 0002:0000b9e0       ??_C@_17KCJGOCPB@?$AAJ?$AAu?$AAn@ 00000001400459e0     libucrt:nlsdata.obj
 0002:0000b9e8       ??_C@_17IJPCKHK@?$AAJ?$AAu?$AAl@ 00000001400459e8     libucrt:nlsdata.obj
 0002:0000b9f0       ??_C@_17ICPELBCN@?$AAA?$AAu?$AAg@ 00000001400459f0     libucrt:nlsdata.obj
 0002:0000b9f8       ??_C@_17HCHCOKMG@?$AAS?$AAe?$AAp@ 00000001400459f8     libucrt:nlsdata.obj
 0002:0000ba00       ??_C@_17FNLKOI@?$AAO?$AAc?$AAt@ 0000000140045a00     libucrt:nlsdata.obj
 0002:0000ba08       ??_C@_17BBDMLCIG@?$AAN?$AAo?$AAv@ 0000000140045a08     libucrt:nlsdata.obj
 0002:0000ba10       ??_C@_17EGKACKIF@?$AAD?$AAe?$AAc@ 0000000140045a10     libucrt:nlsdata.obj
 0002:0000ba18       ??_C@_1BA@EFMEIEBA@?$AAJ?$AAa?$AAn?$AAu?$AAa?$AAr?$AAy@ 0000000140045a18     libucrt:nlsdata.obj
 0002:0000ba28       ??_C@_1BC@JGDDFFAM@?$AAF?$AAe?$AAb?$AAr?$AAu?$AAa?$AAr?$AAy@ 0000000140045a28     libucrt:nlsdata.obj
 0002:0000ba40       ??_C@_1M@IKEENEDF@?$AAM?$AAa?$AAr?$AAc?$AAh@ 0000000140045a40     libucrt:nlsdata.obj
 0002:0000ba50       ??_C@_1M@GJNLMHFD@?$AAA?$AAp?$AAr?$AAi?$AAl@ 0000000140045a50     libucrt:nlsdata.obj
 0002:0000ba60       ??_C@_19EPFLPGAP@?$AAJ?$AAu?$AAn?$AAe@ 0000000140045a60     libucrt:nlsdata.obj
 0002:0000ba70       ??_C@_19BIFMLPCD@?$AAJ?$AAu?$AAl?$AAy@ 0000000140045a70     libucrt:nlsdata.obj
 0002:0000ba80       ??_C@_1O@PAHLKOAC@?$AAA?$AAu?$AAg?$AAu?$AAs?$AAt@ 0000000140045a80     libucrt:nlsdata.obj
 0002:0000ba90       ??_C@_1BE@DKAAMBJL@?$AAS?$AAe?$AAp?$AAt?$AAe?$AAm?$AAb?$AAe?$AAr@ 0000000140045a90     libucrt:nlsdata.obj
 0002:0000baa8       ??_C@_1BA@EPANDLNG@?$AAO?$AAc?$AAt?$AAo?$AAb?$AAe?$AAr@ 0000000140045aa8     libucrt:nlsdata.obj
 0002:0000bab8       ??_C@_1BC@BGLIFPF@?$AAN?$AAo?$AAv?$AAe?$AAm?$AAb?$AAe?$AAr@ 0000000140045ab8     libucrt:nlsdata.obj
 0002:0000bad0       ??_C@_1BC@FEMKIFH@?$AAD?$AAe?$AAc?$AAe?$AAm?$AAb?$AAe?$AAr@ 0000000140045ad0     libucrt:nlsdata.obj
 0002:0000bae4       ??_C@_15ODEHAHHF@?$AAA?$AAM@ 0000000140045ae4     libucrt:nlsdata.obj
 0002:0000baec       ??_C@_15CLMNNGEL@?$AAP?$AAM@ 0000000140045aec     libucrt:nlsdata.obj
 0002:0000baf8       ??_C@_1BC@IEBCMHCM@?$AAM?$AAM?$AA?1?$AAd?$AAd?$AA?1?$AAy?$AAy@ 0000000140045af8     libucrt:nlsdata.obj
 0002:0000bb10       ??_C@_1CI@KNAKOEBC@?$AAd?$AAd?$AAd?$AAd?$AA?0?$AA?5?$AAM?$AAM?$AAM?$AAM?$AA?5?$AAd?$AAd?$AA?0?$AA?5@ 0000000140045b10     libucrt:nlsdata.obj
 0002:0000bb38       ??_C@_1BC@GDGBMEMK@?$AAH?$AAH?$AA?3?$AAm?$AAm?$AA?3?$AAs?$AAs@ 0000000140045b38     libucrt:nlsdata.obj
 0002:0000bb4c       ?ccs@?1???$__acrt_stdio_parse_mode@D@@YA?AU__acrt_stdio_stream_mode@@QEBD@Z@4QBDB 0000000140045b4c     libucrt:openfile.obj
 0002:0000bb50       ?utf8_encoding@?1???$__acrt_stdio_parse_mode@D@@YA?AU__acrt_stdio_stream_mode@@QEBD@Z@4QBDB 0000000140045b50     libucrt:openfile.obj
 0002:0000bb58       ?utf16_encoding@?1???$__acrt_stdio_parse_mode@D@@YA?AU__acrt_stdio_stream_mode@@QEBD@Z@4QBDB 0000000140045b58     libucrt:openfile.obj
 0002:0000bb60       ?unicode_encoding@?1???$__acrt_stdio_parse_mode@D@@YA?AU__acrt_stdio_stream_mode@@QEBD@Z@4QBDB 0000000140045b60     libucrt:openfile.obj
 0002:0000bd40       ??_C@_03KHJOGHMM@exp@      0000000140045d40     libucrt:fpexcept.obj
 0002:0000bd44       ??_C@_03JGHBODFD@pow@      0000000140045d44     libucrt:fpexcept.obj
 0002:0000bd48       ??_C@_03MGHMBJCF@log@      0000000140045d48     libucrt:fpexcept.obj
 0002:0000bd4c       ??_C@_05HGHHAHAP@log10@    0000000140045d4c     libucrt:fpexcept.obj
 0002:0000bd54       ??_C@_04COOMCNPB@sinh@     0000000140045d54     libucrt:fpexcept.obj
 0002:0000bd5c       ??_C@_04HPJJNFIM@cosh@     0000000140045d5c     libucrt:fpexcept.obj
 0002:0000bd64       ??_C@_04FJHINJAO@tanh@     0000000140045d64     libucrt:fpexcept.obj
 0002:0000bd6c       ??_C@_04FIHNOPOL@asin@     0000000140045d6c     libucrt:fpexcept.obj
 0002:0000bd74       ??_C@_04PDIFKINK@acos@     0000000140045d74     libucrt:fpexcept.obj
 0002:0000bd7c       ??_C@_04MLLJIGOK@atan@     0000000140045d7c     libucrt:fpexcept.obj
 0002:0000bd84       ??_C@_05KNGEOGJB@atan2@    0000000140045d84     libucrt:fpexcept.obj
 0002:0000bd8c       ??_C@_04EIAKFFMI@sqrt@     0000000140045d8c     libucrt:fpexcept.obj
 0002:0000bd94       ??_C@_03BLEJJJBH@sin@      0000000140045d94     libucrt:fpexcept.obj
 0002:0000bd98       ??_C@_03LALBNOCG@cos@      0000000140045d98     libucrt:fpexcept.obj
 0002:0000bd9c       ??_C@_03IIINPABG@tan@      0000000140045d9c     libucrt:fpexcept.obj
 0002:0000bda0       ??_C@_04GFPJNGEK@ceil@     0000000140045da0     libucrt:fpexcept.obj
 0002:0000bda8       ??_C@_05PBJFFIGL@floor@    0000000140045da8     libucrt:fpexcept.obj
 0002:0000bdb0       ??_C@_04ODHECPBC@fabs@     0000000140045db0     libucrt:fpexcept.obj
 0002:0000bdb8       ??_C@_04EHEDPDJG@modf@     0000000140045db8     libucrt:fpexcept.obj
 0002:0000bdc0       ??_C@_05CEJMAHNP@ldexp@    0000000140045dc0     libucrt:fpexcept.obj
 0002:0000bdc8       ??_C@_05KBKMEMPO@_cabs@    0000000140045dc8     libucrt:fpexcept.obj
 0002:0000bdd0       ??_C@_06MEIMCGCF@_hypot@   0000000140045dd0     libucrt:fpexcept.obj
 0002:0000bdd8       ??_C@_04KEPJIHGP@fmod@     0000000140045dd8     libucrt:fpexcept.obj
 0002:0000bde0       ??_C@_05GKKHEGJL@frexp@    0000000140045de0     libucrt:fpexcept.obj
 0002:0000bde8       ??_C@_03MJLDFKDL@_y0@      0000000140045de8     libucrt:fpexcept.obj
 0002:0000bdec       ??_C@_03NAKIGLHK@_y1@      0000000140045dec     libucrt:fpexcept.obj
 0002:0000bdf0       ??_C@_03ONILCKOB@_yn@      0000000140045df0     libucrt:fpexcept.obj
 0002:0000bdf4       ??_C@_05JGDBENOH@_logb@    0000000140045df4     libucrt:fpexcept.obj
 0002:0000be00       ??_C@_0L@KDOEJCKC@_nextafter@ 0000000140045e00     libucrt:fpexcept.obj
 0002:0000be10       _d_inf                     0000000140045e10     libucrt:util.obj
 0002:0000be18       _d_max                     0000000140045e18     libucrt:util.obj
 0002:0000be20       __two_to_jby64_table       0000000140045e20     libucrt:two_to_jby64_table.obj
 0002:0000c020       __two_to_jby64_head_table  0000000140046020     libucrt:two_to_jby64_head_tail_table.obj
 0002:0000c220       __two_to_jby64_tail_table  0000000140046220     libucrt:two_to_jby64_head_tail_table.obj
 0002:0000c420       __Lcosarray                0000000140046420     libucrt:lsincos_array.obj
 0002:0000c480       __Lsinarray                0000000140046480     libucrt:lsincos_array.obj
 0002:0000c800       __log_256_lead             0000000140046800     libucrt:log_256_lead_tail_table.obj
 0002:0000d010       __log_256_tail             0000000140047010     libucrt:log_256_lead_tail_table.obj
 0002:0000d820       ??_C@_04MBFDLNIM@powf@     0000000140047820     libucrt:pow_special.obj
 0002:0000d850       __log_F_inv_qword          0000000140047850     libucrt:log_f_inv_qword_table.obj
 0002:0000e080       __acrt_rg_language         0000000140048080     libucrt:get_qualified_locale.obj
 0002:0000e490       __acrt_rg_language_count   0000000140048490     libucrt:get_qualified_locale.obj
 0002:0000e4a0       __acrt_rg_country          00000001400484a0     libucrt:get_qualified_locale.obj
 0002:0000e610       __acrt_rg_country_count    0000000140048610     libucrt:get_qualified_locale.obj
 0002:0000e618       ??_C@_1BC@LLOKLNP@?$AAa?$AAm?$AAe?$AAr?$AAi?$AAc?$AAa?$AAn@ 0000000140048618     libucrt:get_qualified_locale.obj
 0002:0000e630       ??_C@_1CC@HEIGCDGG@?$AAa?$AAm?$AAe?$AAr?$AAi?$AAc?$AAa?$AAn?$AA?5?$AAe?$AAn?$AAg?$AAl?$AAi?$AAs@ 0000000140048630     libucrt:get_qualified_locale.obj
 0002:0000e658       ??_C@_1CC@IHCNOMIN@?$AAa?$AAm?$AAe?$AAr?$AAi?$AAc?$AAa?$AAn?$AA?9?$AAe?$AAn?$AAg?$AAl?$AAi?$AAs@ 0000000140048658     libucrt:get_qualified_locale.obj
 0002:0000e680       ??_C@_1BG@GKAGPCGG@?$AAa?$AAu?$AAs?$AAt?$AAr?$AAa?$AAl?$AAi?$AAa?$AAn@ 0000000140048680     libucrt:get_qualified_locale.obj
 0002:0000e698       ??_C@_1BA@GMENCENF@?$AAb?$AAe?$AAl?$AAg?$AAi?$AAa?$AAn@ 0000000140048698     libucrt:get_qualified_locale.obj
 0002:0000e6a8       ??_C@_1BC@PJMIIAAN@?$AAc?$AAa?$AAn?$AAa?$AAd?$AAi?$AAa?$AAn@ 00000001400486a8     libucrt:get_qualified_locale.obj
 0002:0000e6c0       ??_C@_17NOIMNFBF@?$AAc?$AAh?$AAh@ 00000001400486c0     libucrt:get_qualified_locale.obj
 0002:0000e6c8       ??_C@_17GGDALCHA@?$AAc?$AAh?$AAi@ 00000001400486c8     libucrt:get_qualified_locale.obj
 0002:0000e6d0       ??_C@_1BA@NPNJKIBL@?$AAc?$AAh?$AAi?$AAn?$AAe?$AAs?$AAe@ 00000001400486d0     libucrt:get_qualified_locale.obj
 0002:0000e6e0       ??_C@_1CC@DINBAMMJ@?$AAc?$AAh?$AAi?$AAn?$AAe?$AAs?$AAe?$AA?9?$AAh?$AAo?$AAn?$AAg?$AAk?$AAo?$AAn@ 00000001400486e0     libucrt:get_qualified_locale.obj
 0002:0000e708       ??_C@_1CG@IOBJPACO@?$AAc?$AAh?$AAi?$AAn?$AAe?$AAs?$AAe?$AA?9?$AAs?$AAi?$AAm?$AAp?$AAl?$AAi?$AAf@ 0000000140048708     libucrt:get_qualified_locale.obj
 0002:0000e730       ??_C@_1CE@GAJNDCKG@?$AAc?$AAh?$AAi?$AAn?$AAe?$AAs?$AAe?$AA?9?$AAs?$AAi?$AAn?$AAg?$AAa?$AAp?$AAo@ 0000000140048730     libucrt:get_qualified_locale.obj
 0002:0000e758       ??_C@_1CI@PAJPIOOD@?$AAc?$AAh?$AAi?$AAn?$AAe?$AAs?$AAe?$AA?9?$AAt?$AAr?$AAa?$AAd?$AAi?$AAt?$AAi@ 0000000140048758     libucrt:get_qualified_locale.obj
 0002:0000e780       ??_C@_1BM@NILJBMMD@?$AAd?$AAu?$AAt?$AAc?$AAh?$AA?9?$AAb?$AAe?$AAl?$AAg?$AAi?$AAa?$AAn@ 0000000140048780     libucrt:get_qualified_locale.obj
 0002:0000e7a0       ??_C@_1CC@OOJPJNEJ@?$AAe?$AAn?$AAg?$AAl?$AAi?$AAs?$AAh?$AA?9?$AAa?$AAm?$AAe?$AAr?$AAi?$AAc?$AAa@ 00000001400487a0     libucrt:get_qualified_locale.obj
 0002:0000e7c8       ??_C@_1BI@IOLFEEM@?$AAe?$AAn?$AAg?$AAl?$AAi?$AAs?$AAh?$AA?9?$AAa?$AAu?$AAs@ 00000001400487c8     libucrt:get_qualified_locale.obj
 0002:0000e7e0       ??_C@_1BO@HFFNLENJ@?$AAe?$AAn?$AAg?$AAl?$AAi?$AAs?$AAh?$AA?9?$AAb?$AAe?$AAl?$AAi?$AAz?$AAe@ 00000001400487e0     libucrt:get_qualified_locale.obj
 0002:0000e800       ??_C@_1BI@HAPKJMPO@?$AAe?$AAn?$AAg?$AAl?$AAi?$AAs?$AAh?$AA?9?$AAc?$AAa?$AAn@ 0000000140048800     libucrt:get_qualified_locale.obj
 0002:0000e818       ??_C@_1CE@HLNDMIOJ@?$AAe?$AAn?$AAg?$AAl?$AAi?$AAs?$AAh?$AA?9?$AAc?$AAa?$AAr?$AAi?$AAb?$AAb?$AAe@ 0000000140048818     libucrt:get_qualified_locale.obj
 0002:0000e840       ??_C@_1BI@LDHJHHAC@?$AAe?$AAn?$AAg?$AAl?$AAi?$AAs?$AAh?$AA?9?$AAi?$AAr?$AAe@ 0000000140048840     libucrt:get_qualified_locale.obj
 0002:0000e858       ??_C@_1CA@NJMMCFOC@?$AAe?$AAn?$AAg?$AAl?$AAi?$AAs?$AAh?$AA?9?$AAj?$AAa?$AAm?$AAa?$AAi?$AAc?$AAa@ 0000000140048858     libucrt:get_qualified_locale.obj
 0002:0000e878       ??_C@_1BG@BHJEBBGG@?$AAe?$AAn?$AAg?$AAl?$AAi?$AAs?$AAh?$AA?9?$AAn?$AAz@ 0000000140048878     libucrt:get_qualified_locale.obj
 0002:0000e890       ??_C@_1CK@FGOEJJCO@?$AAe?$AAn?$AAg?$AAl?$AAi?$AAs?$AAh?$AA?9?$AAs?$AAo?$AAu?$AAt?$AAh?$AA?5?$AAa@ 0000000140048890     libucrt:get_qualified_locale.obj
 0002:0000e8c0       ??_C@_1DE@PDBJPCJ@?$AAe?$AAn?$AAg?$AAl?$AAi?$AAs?$AAh?$AA?9?$AAt?$AAr?$AAi?$AAn?$AAi?$AAd?$AAa@ 00000001400488c0     libucrt:get_qualified_locale.obj
 0002:0000e8f8       ??_C@_1BG@JGCANDME@?$AAe?$AAn?$AAg?$AAl?$AAi?$AAs?$AAh?$AA?9?$AAu?$AAk@ 00000001400488f8     libucrt:get_qualified_locale.obj
 0002:0000e910       ??_C@_1BG@DINKMLE@?$AAe?$AAn?$AAg?$AAl?$AAi?$AAs?$AAh?$AA?9?$AAu?$AAs@ 0000000140048910     libucrt:get_qualified_locale.obj
 0002:0000e928       ??_C@_1BI@NMFDBHJE@?$AAe?$AAn?$AAg?$AAl?$AAi?$AAs?$AAh?$AA?9?$AAu?$AAs?$AAa@ 0000000140048928     libucrt:get_qualified_locale.obj
 0002:0000e940       ??_C@_1BO@OIHKJKII@?$AAf?$AAr?$AAe?$AAn?$AAc?$AAh?$AA?9?$AAb?$AAe?$AAl?$AAg?$AAi?$AAa?$AAn@ 0000000140048940     libucrt:get_qualified_locale.obj
 0002:0000e960       ??_C@_1CA@NKAELJKI@?$AAf?$AAr?$AAe?$AAn?$AAc?$AAh?$AA?9?$AAc?$AAa?$AAn?$AAa?$AAd?$AAi?$AAa?$AAn@ 0000000140048960     libucrt:get_qualified_locale.obj
 0002:0000e980       ??_C@_1CE@MGKCNLGN@?$AAf?$AAr?$AAe?$AAn?$AAc?$AAh?$AA?9?$AAl?$AAu?$AAx?$AAe?$AAm?$AAb?$AAo?$AAu@ 0000000140048980     libucrt:get_qualified_locale.obj
 0002:0000e9a8       ??_C@_1BK@CEGEAILM@?$AAf?$AAr?$AAe?$AAn?$AAc?$AAh?$AA?9?$AAs?$AAw?$AAi?$AAs?$AAs@ 00000001400489a8     libucrt:get_qualified_locale.obj
 0002:0000e9c8       ??_C@_1CA@PAFKEOCC@?$AAg?$AAe?$AAr?$AAm?$AAa?$AAn?$AA?9?$AAa?$AAu?$AAs?$AAt?$AAr?$AAi?$AAa?$AAn@ 00000001400489c8     libucrt:get_qualified_locale.obj
 0002:0000e9e8       ??_C@_1CI@HCFHGOFD@?$AAg?$AAe?$AAr?$AAm?$AAa?$AAn?$AA?9?$AAl?$AAi?$AAc?$AAh?$AAt?$AAe?$AAn?$AAs@ 00000001400489e8     libucrt:get_qualified_locale.obj
 0002:0000ea10       ??_C@_1CE@FEDDNPDG@?$AAg?$AAe?$AAr?$AAm?$AAa?$AAn?$AA?9?$AAl?$AAu?$AAx?$AAe?$AAm?$AAb?$AAo?$AAu@ 0000000140048a10     libucrt:get_qualified_locale.obj
 0002:0000ea38       ??_C@_1BK@LIMINNMN@?$AAg?$AAe?$AAr?$AAm?$AAa?$AAn?$AA?9?$AAs?$AAw?$AAi?$AAs?$AAs@ 0000000140048a38     libucrt:get_qualified_locale.obj
 0002:0000ea58       ??_C@_1BM@LGMDBEPD@?$AAi?$AAr?$AAi?$AAs?$AAh?$AA?9?$AAe?$AAn?$AAg?$AAl?$AAi?$AAs?$AAh@ 0000000140048a58     libucrt:get_qualified_locale.obj
 0002:0000ea78       ??_C@_1BM@NNCFBAEE@?$AAi?$AAt?$AAa?$AAl?$AAi?$AAa?$AAn?$AA?9?$AAs?$AAw?$AAi?$AAs?$AAs@ 0000000140048a78     libucrt:get_qualified_locale.obj
 0002:0000ea98       ??_C@_1BE@FEDJNPIB@?$AAn?$AAo?$AAr?$AAw?$AAe?$AAg?$AAi?$AAa?$AAn@ 0000000140048a98     libucrt:get_qualified_locale.obj
 0002:0000eab0       ??_C@_1CC@CILKDEIE@?$AAn?$AAo?$AAr?$AAw?$AAe?$AAg?$AAi?$AAa?$AAn?$AA?9?$AAb?$AAo?$AAk?$AAm?$AAa@ 0000000140048ab0     libucrt:get_qualified_locale.obj
 0002:0000ead8       ??_C@_1CE@DHMMHEPL@?$AAn?$AAo?$AAr?$AAw?$AAe?$AAg?$AAi?$AAa?$AAn?$AA?9?$AAn?$AAy?$AAn?$AAo?$AAr@ 0000000140048ad8     libucrt:get_qualified_locale.obj
 0002:0000eb00       ??_C@_1CK@OPNMHECD@?$AAp?$AAo?$AAr?$AAt?$AAu?$AAg?$AAu?$AAe?$AAs?$AAe?$AA?9?$AAb?$AAr?$AAa?$AAz@ 0000000140048b00     libucrt:get_qualified_locale.obj
 0002:0000eb30       ??_C@_1CE@KEEHCDB@?$AAs?$AAp?$AAa?$AAn?$AAi?$AAs?$AAh?$AA?9?$AAa?$AAr?$AAg?$AAe?$AAn?$AAt?$AAi@ 0000000140048b30     libucrt:get_qualified_locale.obj
 0002:0000eb58       ??_C@_1CA@GIAOLHJD@?$AAs?$AAp?$AAa?$AAn?$AAi?$AAs?$AAh?$AA?9?$AAb?$AAo?$AAl?$AAi?$AAv?$AAi?$AAa@ 0000000140048b58     libucrt:get_qualified_locale.obj
 0002:0000eb78       ??_C@_1BM@OJNDFNPD@?$AAs?$AAp?$AAa?$AAn?$AAi?$AAs?$AAh?$AA?9?$AAc?$AAh?$AAi?$AAl?$AAe@ 0000000140048b78     libucrt:get_qualified_locale.obj
 0002:0000eb98       ??_C@_1CC@OCOLPALL@?$AAs?$AAp?$AAa?$AAn?$AAi?$AAs?$AAh?$AA?9?$AAc?$AAo?$AAl?$AAo?$AAm?$AAb?$AAi@ 0000000140048b98     libucrt:get_qualified_locale.obj
 0002:0000ebc0       ??_C@_1CG@BPOFMKBB@?$AAs?$AAp?$AAa?$AAn?$AAi?$AAs?$AAh?$AA?9?$AAc?$AAo?$AAs?$AAt?$AAa?$AA?5?$AAr@ 0000000140048bc0     libucrt:get_qualified_locale.obj
 0002:0000ebe8       ??_C@_1DG@IGOBAPBB@?$AAs?$AAp?$AAa?$AAn?$AAi?$AAs?$AAh?$AA?9?$AAd?$AAo?$AAm?$AAi?$AAn?$AAi?$AAc@ 0000000140048be8     libucrt:get_qualified_locale.obj
 0002:0000ec20       ??_C@_1CA@JHAPGEGI@?$AAs?$AAp?$AAa?$AAn?$AAi?$AAs?$AAh?$AA?9?$AAe?$AAc?$AAu?$AAa?$AAd?$AAo?$AAr@ 0000000140048c20     libucrt:get_qualified_locale.obj
 0002:0000ec40       ??_C@_1CI@LAPALJPP@?$AAs?$AAp?$AAa?$AAn?$AAi?$AAs?$AAh?$AA?9?$AAe?$AAl?$AA?5?$AAs?$AAa?$AAl?$AAv@ 0000000140048c40     libucrt:get_qualified_locale.obj
 0002:0000ec68       ??_C@_1CE@PDGBOFOM@?$AAs?$AAp?$AAa?$AAn?$AAi?$AAs?$AAh?$AA?9?$AAg?$AAu?$AAa?$AAt?$AAe?$AAm?$AAa@ 0000000140048c68     libucrt:get_qualified_locale.obj
 0002:0000ec90       ??_C@_1CC@NBEBAODI@?$AAs?$AAp?$AAa?$AAn?$AAi?$AAs?$AAh?$AA?9?$AAh?$AAo?$AAn?$AAd?$AAu?$AAr?$AAa@ 0000000140048c90     libucrt:get_qualified_locale.obj
 0002:0000ecb8       ??_C@_1CA@LLKGHBMF@?$AAs?$AAp?$AAa?$AAn?$AAi?$AAs?$AAh?$AA?9?$AAm?$AAe?$AAx?$AAi?$AAc?$AAa?$AAn@ 0000000140048cb8     libucrt:get_qualified_locale.obj
 0002:0000ecd8       ??_C@_1BO@LKNDOIGD@?$AAs?$AAp?$AAa?$AAn?$AAi?$AAs?$AAh?$AA?9?$AAm?$AAo?$AAd?$AAe?$AAr?$AAn@ 0000000140048cd8     libucrt:get_qualified_locale.obj
 0002:0000ecf8       ??_C@_1CE@NMDMOEEB@?$AAs?$AAp?$AAa?$AAn?$AAi?$AAs?$AAh?$AA?9?$AAn?$AAi?$AAc?$AAa?$AAr?$AAa?$AAg@ 0000000140048cf8     libucrt:get_qualified_locale.obj
 0002:0000ed20       ??_C@_1BO@LLCBEJGB@?$AAs?$AAp?$AAa?$AAn?$AAi?$AAs?$AAh?$AA?9?$AAp?$AAa?$AAn?$AAa?$AAm?$AAa@ 0000000140048d20     libucrt:get_qualified_locale.obj
 0002:0000ed40       ??_C@_1CC@FKPGGIHO@?$AAs?$AAp?$AAa?$AAn?$AAi?$AAs?$AAh?$AA?9?$AAp?$AAa?$AAr?$AAa?$AAg?$AAu?$AAa@ 0000000140048d40     libucrt:get_qualified_locale.obj
 0002:0000ed68       ??_C@_1BK@CDEIHOOP@?$AAs?$AAp?$AAa?$AAn?$AAi?$AAs?$AAh?$AA?9?$AAp?$AAe?$AAr?$AAu@ 0000000140048d68     libucrt:get_qualified_locale.obj
 0002:0000ed88       ??_C@_1CI@GAHAKKGP@?$AAs?$AAp?$AAa?$AAn?$AAi?$AAs?$AAh?$AA?9?$AAp?$AAu?$AAe?$AAr?$AAt?$AAo?$AA?5@ 0000000140048d88     libucrt:get_qualified_locale.obj
 0002:0000edb0       ??_C@_1CA@NKJBCAGP@?$AAs?$AAp?$AAa?$AAn?$AAi?$AAs?$AAh?$AA?9?$AAu?$AAr?$AAu?$AAg?$AAu?$AAa?$AAy@ 0000000140048db0     libucrt:get_qualified_locale.obj
 0002:0000edd0       ??_C@_1CE@ODILCONM@?$AAs?$AAp?$AAa?$AAn?$AAi?$AAs?$AAh?$AA?9?$AAv?$AAe?$AAn?$AAe?$AAz?$AAu?$AAe@ 0000000140048dd0     libucrt:get_qualified_locale.obj
 0002:0000edf8       ??_C@_1CA@OBNMCGFO@?$AAs?$AAw?$AAe?$AAd?$AAi?$AAs?$AAh?$AA?9?$AAf?$AAi?$AAn?$AAl?$AAa?$AAn?$AAd@ 0000000140048df8     libucrt:get_qualified_locale.obj
 0002:0000ee18       ??_C@_1M@PIPDDPPI@?$AAs?$AAw?$AAi?$AAs?$AAs@ 0000000140048e18     libucrt:get_qualified_locale.obj
 0002:0000ee24       ??_C@_15GMFIMNFM@?$AAu?$AAs@ 0000000140048e24     libucrt:get_qualified_locale.obj
 0002:0000ee30       ??_C@_17HAEBFAGL@?$AAu?$AAs?$AAa@ 0000000140048e30     libucrt:get_qualified_locale.obj
 0002:0000ee38       ??_C@_1BA@DPFJEPHB@?$AAa?$AAm?$AAe?$AAr?$AAi?$AAc?$AAa@ 0000000140048e38     libucrt:get_qualified_locale.obj
 0002:0000ee48       ??_C@_1BA@ELOGGFK@?$AAb?$AAr?$AAi?$AAt?$AAa?$AAi?$AAn@ 0000000140048e48     libucrt:get_qualified_locale.obj
 0002:0000ee58       ??_C@_1M@GHBGIGDA@?$AAc?$AAh?$AAi?$AAn?$AAa@ 0000000140048e58     libucrt:get_qualified_locale.obj
 0002:0000ee68       ??_C@_1M@NCHEJOPO@?$AAc?$AAz?$AAe?$AAc?$AAh@ 0000000140048e68     libucrt:get_qualified_locale.obj
 0002:0000ee78       ??_C@_1BA@BKPAPBLA@?$AAe?$AAn?$AAg?$AAl?$AAa?$AAn?$AAd@ 0000000140048e78     libucrt:get_qualified_locale.obj
 0002:0000ee88       ??_C@_1BM@HKBCKIPC@?$AAg?$AAr?$AAe?$AAa?$AAt?$AA?5?$AAb?$AAr?$AAi?$AAt?$AAa?$AAi?$AAn@ 0000000140048e88     libucrt:get_qualified_locale.obj
 0002:0000eea8       ??_C@_1BA@PPCHPGJB@?$AAh?$AAo?$AAl?$AAl?$AAa?$AAn?$AAd@ 0000000140048ea8     libucrt:get_qualified_locale.obj
 0002:0000eeb8       ??_C@_1BE@JBMPEGDG@?$AAh?$AAo?$AAn?$AAg?$AA?9?$AAk?$AAo?$AAn?$AAg@ 0000000140048eb8     libucrt:get_qualified_locale.obj
 0002:0000eed0       ??_C@_1BI@KOELBBPJ@?$AAn?$AAe?$AAw?$AA?9?$AAz?$AAe?$AAa?$AAl?$AAa?$AAn?$AAd@ 0000000140048ed0     libucrt:get_qualified_locale.obj
 0002:0000eee8       ??_C@_15HIEBHAIO@?$AAn?$AAz@ 0000000140048ee8     libucrt:get_qualified_locale.obj
 0002:0000eef0       ??_C@_1BC@CHBCPFPI@?$AAp?$AAr?$AA?5?$AAc?$AAh?$AAi?$AAn?$AAa@ 0000000140048ef0     libucrt:get_qualified_locale.obj
 0002:0000ef08       ??_C@_1BC@JAOIIFKD@?$AAp?$AAr?$AA?9?$AAc?$AAh?$AAi?$AAn?$AAa@ 0000000140048f08     libucrt:get_qualified_locale.obj
 0002:0000ef20       ??_C@_1BI@BEHPPHKC@?$AAp?$AAu?$AAe?$AAr?$AAt?$AAo?$AA?9?$AAr?$AAi?$AAc?$AAo@ 0000000140048f20     libucrt:get_qualified_locale.obj
 0002:0000ef38       ??_C@_1O@PAEOFKDI@?$AAs?$AAl?$AAo?$AAv?$AAa?$AAk@ 0000000140048f38     libucrt:get_qualified_locale.obj
 0002:0000ef48       ??_C@_1BK@FIHMCKAM@?$AAs?$AAo?$AAu?$AAt?$AAh?$AA?5?$AAa?$AAf?$AAr?$AAi?$AAc?$AAa@ 0000000140048f48     libucrt:get_qualified_locale.obj
 0002:0000ef68       ??_C@_1BI@NAEOODKB@?$AAs?$AAo?$AAu?$AAt?$AAh?$AA?5?$AAk?$AAo?$AAr?$AAe?$AAa@ 0000000140048f68     libucrt:get_qualified_locale.obj
 0002:0000ef80       ??_C@_1BK@FBDGGIFF@?$AAs?$AAo?$AAu?$AAt?$AAh?$AA?9?$AAa?$AAf?$AAr?$AAi?$AAc?$AAa@ 0000000140048f80     libucrt:get_qualified_locale.obj
 0002:0000efa0       ??_C@_1BI@GHLEJDPK@?$AAs?$AAo?$AAu?$AAt?$AAh?$AA?9?$AAk?$AAo?$AAr?$AAe?$AAa@ 0000000140048fa0     libucrt:get_qualified_locale.obj
 0002:0000efb8       ??_C@_1CE@PLHLOMJF@?$AAt?$AAr?$AAi?$AAn?$AAi?$AAd?$AAa?$AAd?$AA?5?$AA?$CG?$AA?5?$AAt?$AAo?$AAb?$AAa@ 0000000140048fb8     libucrt:get_qualified_locale.obj
 0002:0000efe0       ??_C@_1BO@MODIMHHI@?$AAu?$AAn?$AAi?$AAt?$AAe?$AAd?$AA?9?$AAk?$AAi?$AAn?$AAg?$AAd?$AAo?$AAm@ 0000000140048fe0     libucrt:get_qualified_locale.obj
 0002:0000f000       ??_C@_1BM@FFHJONBJ@?$AAu?$AAn?$AAi?$AAt?$AAe?$AAd?$AA?9?$AAs?$AAt?$AAa?$AAt?$AAe?$AAs@ 0000000140049000     libucrt:get_qualified_locale.obj
 0002:0000f020       ??_C@_19MPDNHKDG@?$AAu?$AAt?$AAf?$AA8@ 0000000140049020     libucrt:get_qualified_locale.obj
 0002:0000f030       ??_C@_17DNCLJFIF@?$AAA?$AAC?$AAP@ 0000000140049030     libucrt:get_qualified_locale.obj
 0002:0000f038       ??_C@_1M@FPEIIFAM@?$AAu?$AAt?$AAf?$AA?9?$AA8@ 0000000140049038     libucrt:get_qualified_locale.obj
 0002:0000f048       ??_C@_17CIKBIHLH@?$AAO?$AAC?$AAP@ 0000000140049048     libucrt:get_qualified_locale.obj
 0002:0000f050       __rglangidNotDefault       0000000140049050     libucrt:getqloc_downlevel.obj
 0002:00010d88       ??_C@_01GBGANLPD@0@        000000014004ad88     libucrt:cfout.obj
 0002:00010d8c       ??_C@_05DNEBIAHO@1?$CDINF@ 000000014004ad8c     libucrt:cfout.obj
 0002:00010d94       ??_C@_06IMKFLFPG@1?$CDQNAN@ 000000014004ad94     libucrt:cfout.obj
 0002:00010d9c       ??_C@_06PGGFOGJG@1?$CDSNAN@ 000000014004ad9c     libucrt:cfout.obj
 0002:00010da4       ??_C@_05PHHOCPM@1?$CDIND@  000000014004ada4     libucrt:cfout.obj
 0002:00010dc0       __L_2_by_pi_bits           000000014004adc0     libucrt:l2_by_pi_bits.obj
 0002:00010e60       ??_C@_1BA@BALFACEM@?$AAC?$AAO?$AAN?$AAO?$AAU?$AAT?$AA$@ 000000014004ae60     libucrt:initcon.obj
 0002:000110c0       __log10_256_lead           000000014004b0c0     libucrt:log10_256_lead_tail_table.obj
 0002:000118d0       __log10_256_tail           000000014004b8d0     libucrt:log10_256_lead_tail_table.obj
 0002:00012100       _load_config_used          000000014004c100     LIBCMT:loadcfg.obj
 0002:00012210       ??_R4exception@std@@6B@    000000014004c210     RunParameters.obj
 0002:00012238       ??_R3exception@std@@8      000000014004c238     RunParameters.obj
 0002:00012250       ??_R2exception@std@@8      000000014004c250     RunParameters.obj
 0002:00012260       ??_R1A@?0A@EA@exception@std@@8 000000014004c260     RunParameters.obj
 0002:00012288       ??_R4bad_alloc@std@@6B@    000000014004c288     RunParameters.obj
 0002:000122b0       ??_R3bad_alloc@std@@8      000000014004c2b0     RunParameters.obj
 0002:000122c8       ??_R2bad_alloc@std@@8      000000014004c2c8     RunParameters.obj
 0002:000122e0       ??_R1A@?0A@EA@bad_alloc@std@@8 000000014004c2e0     RunParameters.obj
 0002:00012308       ??_R4bad_array_new_length@std@@6B@ 000000014004c308     RunParameters.obj
 0002:00012330       ??_R3bad_array_new_length@std@@8 000000014004c330     RunParameters.obj
 0002:00012348       ??_R2bad_array_new_length@std@@8 000000014004c348     RunParameters.obj
 0002:00012368       ??_R1A@?0A@EA@bad_array_new_length@std@@8 000000014004c368     RunParameters.obj
 0002:00012390       ??_R4runtime_error@std@@6B@ 000000014004c390     RunParameters.obj
 0002:000123b8       ??_R3runtime_error@std@@8  000000014004c3b8     RunParameters.obj
 0002:000123d0       ??_R2runtime_error@std@@8  000000014004c3d0     RunParameters.obj
 0002:000123e8       ??_R1A@?0A@EA@runtime_error@std@@8 000000014004c3e8     RunParameters.obj
 0002:00012410       ??_R4ios_base@std@@6B@     000000014004c410     WavFile.obj
 0002:00012438       ??_R3ios_base@std@@8       000000014004c438     WavFile.obj
 0002:00012450       ??_R2ios_base@std@@8       000000014004c450     WavFile.obj
 0002:00012468       ??_R1A@?0A@EA@ios_base@std@@8 000000014004c468     WavFile.obj
 0002:00012490       ??_R17?0A@EA@?$_Iosb@H@std@@8 000000014004c490     WavFile.obj
 0002:000124b8       ??_R3?$_Iosb@H@std@@8      000000014004c4b8     WavFile.obj
 0002:000124d0       ??_R2?$_Iosb@H@std@@8      000000014004c4d0     WavFile.obj
 0002:000124e0       ??_R1A@?0A@EA@?$_Iosb@H@std@@8 000000014004c4e0     WavFile.obj
 0002:00012508       ??_R4?$basic_ios@DU?$char_traits@D@std@@@std@@6B@ 000000014004c508     WavFile.obj
 0002:00012530       ??_R3?$basic_ios@DU?$char_traits@D@std@@@std@@8 000000014004c530     WavFile.obj
 0002:00012548       ??_R2?$basic_ios@DU?$char_traits@D@std@@@std@@8 000000014004c548     WavFile.obj
 0002:00012568       ??_R1A@?0A@EA@?$basic_ios@DU?$char_traits@D@std@@@std@@8 000000014004c568     WavFile.obj
 0002:00012590       ??_R4?$basic_streambuf@DU?$char_traits@D@std@@@std@@6B@ 000000014004c590     WavFile.obj
 0002:000125b8       ??_R3?$basic_streambuf@DU?$char_traits@D@std@@@std@@8 000000014004c5b8     WavFile.obj
 0002:000125d0       ??_R2?$basic_streambuf@DU?$char_traits@D@std@@@std@@8 000000014004c5d0     WavFile.obj
 0002:000125e0       ??_R1A@?0A@EA@?$basic_streambuf@DU?$char_traits@D@std@@@std@@8 000000014004c5e0     WavFile.obj
 0002:00012608       ??_R4?$basic_istream@DU?$char_traits@D@std@@@std@@6B@ 000000014004c608     WavFile.obj
 0002:00012630       ??_R3?$basic_istream@DU?$char_traits@D@std@@@std@@8 000000014004c630     WavFile.obj
 0002:00012648       ??_R2?$basic_istream@DU?$char_traits@D@std@@@std@@8 000000014004c648     WavFile.obj
 0002:00012670       ??_R1A@?0A@EA@?$basic_istream@DU?$char_traits@D@std@@@std@@8 000000014004c670     WavFile.obj
 0002:00012698       ??_R1A@A@3FA@?$basic_ios@DU?$char_traits@D@std@@@std@@8 000000014004c698     WavFile.obj
 0002:000126c0       ??_R1A@A@3EA@ios_base@std@@8 000000014004c6c0     WavFile.obj
 0002:000126e8       ??_R17A@3EA@?$_Iosb@H@std@@8 000000014004c6e8     WavFile.obj
 0002:00012710       ??_R4?$basic_ostream@DU?$char_traits@D@std@@@std@@6B@ 000000014004c710     WavFile.obj
 0002:00012738       ??_R3?$basic_ostream@DU?$char_traits@D@std@@@std@@8 000000014004c738     WavFile.obj
 0002:00012750       ??_R2?$basic_ostream@DU?$char_traits@D@std@@@std@@8 000000014004c750     WavFile.obj
 0002:00012778       ??_R1A@?0A@EA@?$basic_ostream@DU?$char_traits@D@std@@@std@@8 000000014004c778     WavFile.obj
 0002:000127a0       ??_R4?$basic_iostream@DU?$char_traits@D@std@@@std@@6B@ 000000014004c7a0     WavFile.obj
 0002:000127c8       ??_R3?$basic_iostream@DU?$char_traits@D@std@@@std@@8 000000014004c7c8     WavFile.obj
 0002:000127e0       ??_R2?$basic_iostream@DU?$char_traits@D@std@@@std@@8 000000014004c7e0     WavFile.obj
 0002:00012830       ??_R1A@?0A@EA@?$basic_iostream@DU?$char_traits@D@std@@@std@@8 000000014004c830     WavFile.obj
 0002:00012858       ??_R1BA@?0A@EA@?$basic_ostream@DU?$char_traits@D@std@@@std@@8 000000014004c858     WavFile.obj
 0002:00012880       ??_R4?$basic_stringbuf@DU?$char_traits@D@std@@V?$allocator@D@2@@std@@6B@ 000000014004c880     WavFile.obj
 0002:000128a8       ??_R3?$basic_stringbuf@DU?$char_traits@D@std@@V?$allocator@D@2@@std@@8 000000014004c8a8     WavFile.obj
 0002:000128c0       ??_R2?$basic_stringbuf@DU?$char_traits@D@std@@V?$allocator@D@2@@std@@8 000000014004c8c0     WavFile.obj
 0002:000128d8       ??_R1A@?0A@EA@?$basic_stringbuf@DU?$char_traits@D@std@@V?$allocator@D@2@@std@@8 000000014004c8d8     WavFile.obj
 0002:00012900       ??_R4?$basic_stringstream@DU?$char_traits@D@std@@V?$allocator@D@2@@std@@6B@ 000000014004c900     WavFile.obj
 0002:00012928       ??_R3?$basic_stringstream@DU?$char_traits@D@std@@V?$allocator@D@2@@std@@8 000000014004c928     WavFile.obj
 0002:00012940       ??_R2?$basic_stringstream@DU?$char_traits@D@std@@V?$allocator@D@2@@std@@8 000000014004c940     WavFile.obj
 0002:00012998       ??_R1A@?0A@EA@?$basic_stringstream@DU?$char_traits@D@std@@V?$allocator@D@2@@std@@8 000000014004c998     WavFile.obj
 0002:000129c0       ??_R3error_category@std@@8 000000014004c9c0     WavFile.obj
 0002:000129d8       ??_R2error_category@std@@8 000000014004c9d8     WavFile.obj
 0002:000129e8       ??_R1A@?0A@EA@error_category@std@@8 000000014004c9e8     WavFile.obj
 0002:00012a10       ??_R4_System_error@std@@6B@ 000000014004ca10     WavFile.obj
 0002:00012a38       ??_R3_System_error@std@@8  000000014004ca38     WavFile.obj
 0002:00012a50       ??_R2_System_error@std@@8  000000014004ca50     WavFile.obj
 0002:00012a70       ??_R1A@?0A@EA@_System_error@std@@8 000000014004ca70     WavFile.obj
 0002:00012a98       ??_R4system_error@std@@6B@ 000000014004ca98     WavFile.obj
 0002:00012ac0       ??_R3system_error@std@@8   000000014004cac0     WavFile.obj
 0002:00012ad8       ??_R2system_error@std@@8   000000014004cad8     WavFile.obj
 0002:00012b00       ??_R1A@?0A@EA@system_error@std@@8 000000014004cb00     WavFile.obj
 0002:00012b28       ??_R3_Generic_error_category@std@@8 000000014004cb28     WavFile.obj
 0002:00012b40       ??_R2_Generic_error_category@std@@8 000000014004cb40     WavFile.obj
 0002:00012b58       ??_R1A@?0A@EA@_Generic_error_category@std@@8 000000014004cb58     WavFile.obj
 0002:00012b80       ??_R4_Iostream_error_category@std@@6B@ 000000014004cb80     WavFile.obj
 0002:00012ba8       ??_R3_Iostream_error_category@std@@8 000000014004cba8     WavFile.obj
 0002:00012bc0       ??_R2_Iostream_error_category@std@@8 000000014004cbc0     WavFile.obj
 0002:00012be0       ??_R1A@?0A@EA@_Iostream_error_category@std@@8 000000014004cbe0     WavFile.obj
 0002:00012c08       ??_R4bad_cast@std@@6B@     000000014004cc08     WavFile.obj
 0002:00012c30       ??_R3bad_cast@std@@8       000000014004cc30     WavFile.obj
 0002:00012c48       ??_R2bad_cast@std@@8       000000014004cc48     WavFile.obj
 0002:00012c60       ??_R1A@?0A@EA@bad_cast@std@@8 000000014004cc60     WavFile.obj
 0002:00012c88       ??_R4_Facet_base@std@@6B@  000000014004cc88     WavFile.obj
 0002:00012cb0       ??_R3_Facet_base@std@@8    000000014004ccb0     WavFile.obj
 0002:00012cc8       ??_R2_Facet_base@std@@8    000000014004ccc8     WavFile.obj
 0002:00012cd8       ??_R1A@?0A@EA@_Facet_base@std@@8 000000014004ccd8     WavFile.obj
 0002:00012d00       ??_R1A@?0A@EA@facet@locale@std@@8 000000014004cd00     WavFile.obj
 0002:00012d28       ??_R3facet@locale@std@@8   000000014004cd28     WavFile.obj
 0002:00012d40       ??_R2facet@locale@std@@8   000000014004cd40     WavFile.obj
 0002:00012d60       ??_R17?0A@EA@_Crt_new_delete@std@@8 000000014004cd60     WavFile.obj
 0002:00012d88       ??_R3_Crt_new_delete@std@@8 000000014004cd88     WavFile.obj
 0002:00012da0       ??_R2_Crt_new_delete@std@@8 000000014004cda0     WavFile.obj
 0002:00012db0       ??_R1A@?0A@EA@_Crt_new_delete@std@@8 000000014004cdb0     WavFile.obj
 0002:00012dd8       ??_R3ctype_base@std@@8     000000014004cdd8     WavFile.obj
 0002:00012df0       ??_R2ctype_base@std@@8     000000014004cdf0     WavFile.obj
 0002:00012e18       ??_R1A@?0A@EA@ctype_base@std@@8 000000014004ce18     WavFile.obj
 0002:00012e40       ??_R4?$ctype@D@std@@6B@    000000014004ce40     WavFile.obj
 0002:00012e68       ??_R3?$ctype@D@std@@8      000000014004ce68     WavFile.obj
 0002:00012e80       ??_R2?$ctype@D@std@@8      000000014004ce80     WavFile.obj
 0002:00012eb0       ??_R1A@?0A@EA@?$ctype@D@std@@8 000000014004ceb0     WavFile.obj
 0002:00012ed8       ??_R4failure@ios_base@std@@6B@ 000000014004ced8     WavFile.obj
 0002:00012f00       ??_R3failure@ios_base@std@@8 000000014004cf00     WavFile.obj
 0002:00012f18       ??_R2failure@ios_base@std@@8 000000014004cf18     WavFile.obj
 0002:00012f48       ??_R1A@?0A@EA@failure@ios_base@std@@8 000000014004cf48     WavFile.obj
 0002:00012f70       ??_R4WavFileBase@@6B@      000000014004cf70     WavFile.obj
 0002:00012f98       ??_R3WavFileBase@@8        000000014004cf98     WavFile.obj
 0002:00012fb0       ??_R2WavFileBase@@8        000000014004cfb0     WavFile.obj
 0002:00012fc0       ??_R1A@?0A@EA@WavFileBase@@8 000000014004cfc0     WavFile.obj
 0002:00012fe8       ??_R4WavInFile@@6B@        000000014004cfe8     WavFile.obj
 0002:00013010       ??_R3WavInFile@@8          000000014004d010     WavFile.obj
 0002:00013028       ??_R2WavInFile@@8          000000014004d028     WavFile.obj
 0002:00013040       ??_R1A@?0A@EA@WavInFile@@8 000000014004d040     WavFile.obj
 0002:00013068       ??_R1A@?0A@EN@WavFileBase@@8 000000014004d068     WavFile.obj
 0002:00013090       ??_R4WavOutFile@@6B@       000000014004d090     WavFile.obj
 0002:000130b8       ??_R3WavOutFile@@8         000000014004d0b8     WavFile.obj
 0002:000130d0       ??_R2WavOutFile@@8         000000014004d0d0     WavFile.obj
 0002:000130e8       ??_R1A@?0A@EA@WavOutFile@@8 000000014004d0e8     WavFile.obj
 0002:00013110       ??_R4?$num_put@DV?$ostreambuf_iterator@DU?$char_traits@D@std@@@std@@@std@@6B@ 000000014004d110     WavFile.obj
 0002:00013138       ??_R3?$num_put@DV?$ostreambuf_iterator@DU?$char_traits@D@std@@@std@@@std@@8 000000014004d138     WavFile.obj
 0002:00013150       ??_R2?$num_put@DV?$ostreambuf_iterator@DU?$char_traits@D@std@@@std@@@std@@8 000000014004d150     WavFile.obj
 0002:00013178       ??_R1A@?0A@EA@?$num_put@DV?$ostreambuf_iterator@DU?$char_traits@D@std@@@std@@@std@@8 000000014004d178     WavFile.obj
 0002:000131a0       ??_R4?$numpunct@D@std@@6B@ 000000014004d1a0     WavFile.obj
 0002:000131c8       ??_R3?$numpunct@D@std@@8   000000014004d1c8     WavFile.obj
 0002:000131e0       ??_R2?$numpunct@D@std@@8   000000014004d1e0     WavFile.obj
 0002:00013208       ??_R1A@?0A@EA@?$numpunct@D@std@@8 000000014004d208     WavFile.obj
 0002:00013230       ??_R4FIFOSamplePipe@soundtouch@@6B@ 000000014004d230     SoundTouch_x64:SoundTouch.obj
 0002:00013258       ??_R3FIFOSamplePipe@soundtouch@@8 000000014004d258     SoundTouch_x64:SoundTouch.obj
 0002:00013270       ??_R2FIFOSamplePipe@soundtouch@@8 000000014004d270     SoundTouch_x64:SoundTouch.obj
 0002:00013280       ??_R1A@?0A@EA@FIFOSamplePipe@soundtouch@@8 000000014004d280     SoundTouch_x64:SoundTouch.obj
 0002:000132a8       ??_R3FIFOProcessor@soundtouch@@8 000000014004d2a8     SoundTouch_x64:SoundTouch.obj
 0002:000132c0       ??_R2FIFOProcessor@soundtouch@@8 000000014004d2c0     SoundTouch_x64:SoundTouch.obj
 0002:000132d8       ??_R1A@?0A@EA@FIFOProcessor@soundtouch@@8 000000014004d2d8     SoundTouch_x64:SoundTouch.obj
 0002:00013300       ??_R4SoundTouch@soundtouch@@6B@ 000000014004d300     SoundTouch_x64:SoundTouch.obj
 0002:00013328       ??_R3SoundTouch@soundtouch@@8 000000014004d328     SoundTouch_x64:SoundTouch.obj
 0002:00013340       ??_R2SoundTouch@soundtouch@@8 000000014004d340     SoundTouch_x64:SoundTouch.obj
 0002:00013360       ??_R1A@?0A@EA@SoundTouch@soundtouch@@8 000000014004d360     SoundTouch_x64:SoundTouch.obj
 0002:00013388       ??_R4BPMDetect@soundtouch@@6B@ 000000014004d388     SoundTouch_x64:BPMDetect.obj
 0002:000133b0       ??_R3BPMDetect@soundtouch@@8 000000014004d3b0     SoundTouch_x64:BPMDetect.obj
 0002:000133c8       ??_R2BPMDetect@soundtouch@@8 000000014004d3c8     SoundTouch_x64:BPMDetect.obj
 0002:000133d8       ??_R1A@?0A@EA@BPMDetect@soundtouch@@8 000000014004d3d8     SoundTouch_x64:BPMDetect.obj
 0002:00013400       ??_R4TransposerBase@soundtouch@@6B@ 000000014004d400     SoundTouch_x64:RateTransposer.obj
 0002:00013428       ??_R3TransposerBase@soundtouch@@8 000000014004d428     SoundTouch_x64:RateTransposer.obj
 0002:00013440       ??_R2TransposerBase@soundtouch@@8 000000014004d440     SoundTouch_x64:RateTransposer.obj
 0002:00013450       ??_R1A@?0A@EA@TransposerBase@soundtouch@@8 000000014004d450     SoundTouch_x64:RateTransposer.obj
 0002:00013478       ??_R4RateTransposer@soundtouch@@6B@ 000000014004d478     SoundTouch_x64:RateTransposer.obj
 0002:000134a0       ??_R3RateTransposer@soundtouch@@8 000000014004d4a0     SoundTouch_x64:RateTransposer.obj
 0002:000134b8       ??_R2RateTransposer@soundtouch@@8 000000014004d4b8     SoundTouch_x64:RateTransposer.obj
 0002:000134d8       ??_R1A@?0A@EA@RateTransposer@soundtouch@@8 000000014004d4d8     SoundTouch_x64:RateTransposer.obj
 0002:00013500       ??_R4TDStretch@soundtouch@@6B@ 000000014004d500     SoundTouch_x64:TDStretch.obj
 0002:00013528       ??_R3TDStretch@soundtouch@@8 000000014004d528     SoundTouch_x64:TDStretch.obj
 0002:00013540       ??_R2TDStretch@soundtouch@@8 000000014004d540     SoundTouch_x64:TDStretch.obj
 0002:00013560       ??_R1A@?0A@EA@TDStretch@soundtouch@@8 000000014004d560     SoundTouch_x64:TDStretch.obj
 0002:00013588       ??_R4TDStretchSSE@soundtouch@@6B@ 000000014004d588     SoundTouch_x64:TDStretch.obj
 0002:000135b0       ??_R3TDStretchSSE@soundtouch@@8 000000014004d5b0     SoundTouch_x64:TDStretch.obj
 0002:000135c8       ??_R2TDStretchSSE@soundtouch@@8 000000014004d5c8     SoundTouch_x64:TDStretch.obj
 0002:000135f0       ??_R1A@?0A@EA@TDStretchSSE@soundtouch@@8 000000014004d5f0     SoundTouch_x64:TDStretch.obj
 0002:00013618       ??_R4FIFOSampleBuffer@soundtouch@@6B@ 000000014004d618     SoundTouch_x64:FIFOSampleBuffer.obj
 0002:00013640       ??_R3FIFOSampleBuffer@soundtouch@@8 000000014004d640     SoundTouch_x64:FIFOSampleBuffer.obj
 0002:00013658       ??_R2FIFOSampleBuffer@soundtouch@@8 000000014004d658     SoundTouch_x64:FIFOSampleBuffer.obj
 0002:00013670       ??_R1A@?0A@EA@FIFOSampleBuffer@soundtouch@@8 000000014004d670     SoundTouch_x64:FIFOSampleBuffer.obj
 0002:00013698       ??_R4FIRFilter@soundtouch@@6B@ 000000014004d698     SoundTouch_x64:FIRFilter.obj
 0002:000136c0       ??_R3FIRFilter@soundtouch@@8 000000014004d6c0     SoundTouch_x64:FIRFilter.obj
 0002:000136d8       ??_R2FIRFilter@soundtouch@@8 000000014004d6d8     SoundTouch_x64:FIRFilter.obj
 0002:000136e8       ??_R1A@?0A@EA@FIRFilter@soundtouch@@8 000000014004d6e8     SoundTouch_x64:FIRFilter.obj
 0002:00013710       ??_R4InterpolateLinearFloat@soundtouch@@6B@ 000000014004d710     SoundTouch_x64:InterpolateLinear.obj
 0002:00013738       ??_R3InterpolateLinearFloat@soundtouch@@8 000000014004d738     SoundTouch_x64:InterpolateLinear.obj
 0002:00013750       ??_R2InterpolateLinearFloat@soundtouch@@8 000000014004d750     SoundTouch_x64:InterpolateLinear.obj
 0002:00013768       ??_R1A@?0A@EA@InterpolateLinearFloat@soundtouch@@8 000000014004d768     SoundTouch_x64:InterpolateLinear.obj
 0002:00013790       ??_R4InterpolateCubic@soundtouch@@6B@ 000000014004d790     SoundTouch_x64:InterpolateCubic.obj
 0002:000137b8       ??_R3InterpolateCubic@soundtouch@@8 000000014004d7b8     SoundTouch_x64:InterpolateCubic.obj
 0002:000137d0       ??_R2InterpolateCubic@soundtouch@@8 000000014004d7d0     SoundTouch_x64:InterpolateCubic.obj
 0002:000137e8       ??_R1A@?0A@EA@InterpolateCubic@soundtouch@@8 000000014004d7e8     SoundTouch_x64:InterpolateCubic.obj
 0002:00013810       ??_R4InterpolateShannon@soundtouch@@6B@ 000000014004d810     SoundTouch_x64:InterpolateShannon.obj
 0002:00013838       ??_R3InterpolateShannon@soundtouch@@8 000000014004d838     SoundTouch_x64:InterpolateShannon.obj
 0002:00013850       ??_R2InterpolateShannon@soundtouch@@8 000000014004d850     SoundTouch_x64:InterpolateShannon.obj
 0002:00013868       ??_R1A@?0A@EA@InterpolateShannon@soundtouch@@8 000000014004d868     SoundTouch_x64:InterpolateShannon.obj
 0002:00013890       ??_R4FIRFilterSSE@soundtouch@@6B@ 000000014004d890     SoundTouch_x64:sse_optimized.obj
 0002:000138b8       ??_R3FIRFilterSSE@soundtouch@@8 000000014004d8b8     SoundTouch_x64:sse_optimized.obj
 0002:000138d0       ??_R2FIRFilterSSE@soundtouch@@8 000000014004d8d0     SoundTouch_x64:sse_optimized.obj
 0002:000138e8       ??_R1A@?0A@EA@FIRFilterSSE@soundtouch@@8 000000014004d8e8     SoundTouch_x64:sse_optimized.obj
 0002:00013910       ??_R4logic_error@std@@6B@  000000014004d910     libcpmt:xthrow.obj
 0002:00013938       ??_R3logic_error@std@@8    000000014004d938     libcpmt:xthrow.obj
 0002:00013950       ??_R2logic_error@std@@8    000000014004d950     libcpmt:xthrow.obj
 0002:00013968       ??_R1A@?0A@EA@logic_error@std@@8 000000014004d968     libcpmt:xthrow.obj
 0002:00013990       ??_R4length_error@std@@6B@ 000000014004d990     libcpmt:xthrow.obj
 0002:000139b8       ??_R3length_error@std@@8   000000014004d9b8     libcpmt:xthrow.obj
 0002:000139d0       ??_R2length_error@std@@8   000000014004d9d0     libcpmt:xthrow.obj
 0002:000139f0       ??_R1A@?0A@EA@length_error@std@@8 000000014004d9f0     libcpmt:xthrow.obj
 0002:00013a18       ??_R4out_of_range@std@@6B@ 000000014004da18     libcpmt:xthrow.obj
 0002:00013a40       ??_R3out_of_range@std@@8   000000014004da40     libcpmt:xthrow.obj
 0002:00013a58       ??_R2out_of_range@std@@8   000000014004da58     libcpmt:xthrow.obj
 0002:00013a78       ??_R1A@?0A@EA@out_of_range@std@@8 000000014004da78     libcpmt:xthrow.obj
 0002:00013aa0       ??_R4_Locimp@locale@std@@6B@ 000000014004daa0     libcpmt:locale0.obj
 0002:00013ac8       ??_R3_Locimp@locale@std@@8 000000014004dac8     libcpmt:locale0.obj
 0002:00013ae0       ??_R2_Locimp@locale@std@@8 000000014004dae0     libcpmt:locale0.obj
 0002:00013b08       ??_R1A@?0A@EA@_Locimp@locale@std@@8 000000014004db08     libcpmt:locale0.obj
 0002:00013b30       ??_R4type_info@@6B@        000000014004db30     LIBCMT:std_type_info_static.obj
 0002:00013b58       ??_R3type_info@@8          000000014004db58     LIBCMT:std_type_info_static.obj
 0002:00013b70       ??_R2type_info@@8          000000014004db70     LIBCMT:std_type_info_static.obj
 0002:00013b80       ??_R1A@?0A@EA@type_info@@8 000000014004db80     LIBCMT:std_type_info_static.obj
 0002:00013ba8       ??_R4bad_exception@std@@6B@ 000000014004dba8     libvcruntime:frame.obj
 0002:00013bd0       ??_R3bad_exception@std@@8  000000014004dbd0     libvcruntime:frame.obj
 0002:00013be8       ??_R2bad_exception@std@@8  000000014004dbe8     libvcruntime:frame.obj
 0002:00013c00       ??_R1A@?0A@EA@bad_exception@std@@8 000000014004dc00     libvcruntime:frame.obj
 0002:00013f68       __rtc_iaa                  000000014004df68     LIBCMT:initsect.obj
 0002:00013f70       __rtc_izz                  000000014004df70     LIBCMT:initsect.obj
 0002:00013f78       __rtc_taa                  000000014004df78     LIBCMT:initsect.obj
 0002:00013f80       __rtc_tzz                  000000014004df80     LIBCMT:initsect.obj
 0002:000173e8       _TI3?AVbad_array_new_length@std@@ 00000001400513e8     RunParameters.obj
 0002:00017408       _CTA3?AVbad_array_new_length@std@@ 0000000140051408     RunParameters.obj
 0002:00017428       _CT??_R0?AVbad_array_new_length@std@@@8??0bad_array_new_length@std@@QEAA@AEBV01@@Z24 0000000140051428     RunParameters.obj
 0002:00017450       _CT??_R0?AVbad_alloc@std@@@8??0bad_alloc@std@@QEAA@AEBV01@@Z24 0000000140051450     RunParameters.obj
 0002:00017478       _CT??_R0?AVexception@std@@@8??0exception@std@@QEAA@AEBV01@@Z24 0000000140051478     RunParameters.obj
 0002:000174a0       _CT??_R0?AVruntime_error@std@@@8??0runtime_error@std@@QEAA@AEBV01@@Z24 00000001400514a0     RunParameters.obj
 0002:000174c8       _TI2?AVruntime_error@std@@ 00000001400514c8     RunParameters.obj
 0002:000174e8       _CTA2?AVruntime_error@std@@ 00000001400514e8     RunParameters.obj
 0002:00017500       _CT??_R0?AVsystem_error@std@@@8??0system_error@std@@QEAA@AEBV01@@Z40 0000000140051500     WavFile.obj
 0002:00017528       _CT??_R0?AV_System_error@std@@@8??0_System_error@std@@QEAA@AEBV01@@Z40 0000000140051528     WavFile.obj
 0002:00017550       _TI2?AVbad_cast@std@@      0000000140051550     WavFile.obj
 0002:00017570       _CTA2?AVbad_cast@std@@     0000000140051570     WavFile.obj
 0002:00017588       _CT??_R0?AVbad_cast@std@@@8??0bad_cast@std@@QEAA@AEBV01@@Z24 0000000140051588     WavFile.obj
 0002:000175b0       _TI5?AVfailure@ios_base@std@@ 00000001400515b0     WavFile.obj
 0002:000175d0       _CTA5?AVfailure@ios_base@std@@ 00000001400515d0     WavFile.obj
 0002:00017600       _CT??_R0?AVfailure@ios_base@std@@@8??0failure@ios_base@std@@QEAA@AEBV012@@Z40 0000000140051600     WavFile.obj
 0002:00017628       _TI2?AVbad_alloc@std@@     0000000140051628     libcpmt:xthrow.obj
 0002:00017648       _CTA2?AVbad_alloc@std@@    0000000140051648     libcpmt:xthrow.obj
 0002:00017660       _CT??_R0?AVlogic_error@std@@@8??0logic_error@std@@QEAA@AEBV01@@Z24 0000000140051660     libcpmt:xthrow.obj
 0002:00017688       _TI3?AVlength_error@std@@  0000000140051688     libcpmt:xthrow.obj
 0002:000176a8       _CTA3?AVlength_error@std@@ 00000001400516a8     libcpmt:xthrow.obj
 0002:000176c8       _CT??_R0?AVlength_error@std@@@8??0length_error@std@@QEAA@AEBV01@@Z24 00000001400516c8     libcpmt:xthrow.obj
 0002:000176f0       _TI3?AVout_of_range@std@@  00000001400516f0     libcpmt:xthrow.obj
 0002:00017710       _CTA3?AVout_of_range@std@@ 0000000140051710     libcpmt:xthrow.obj
 0002:00017730       _CT??_R0?AVout_of_range@std@@@8??0out_of_range@std@@QEAA@AEBV01@@Z24 0000000140051730     libcpmt:xthrow.obj
 0002:00017758       _TI2?AVbad_exception@std@@ 0000000140051758     libvcruntime:frame.obj
 0002:00017778       _CTA2?AVbad_exception@std@@ 0000000140051778     libvcruntime:frame.obj
 0002:00017790       _CT??_R0?AVbad_exception@std@@@8??0bad_exception@std@@QEAA@AEBV01@@Z24 0000000140051790     libvcruntime:frame.obj
 0002:000177b4       __IMPORT_DESCRIPTOR_KERNEL32 00000001400517b4     kernel32:KERNEL32.dll
 0002:000177c8       __NULL_IMPORT_DESCRIPTOR   00000001400517c8     kernel32:KERNEL32.dll
 0003:00000008       ?algorithm@TransposerBase@soundtouch@@1W4ALGORITHM@12@A 0000000140053008     SoundTouch_x64:RateTransposer.obj
 0003:00000010       ?_Sync@ios_base@std@@0_NA  0000000140053010     libcpmt:ios.obj
 0003:00000020       __security_cookie_complement 0000000140053020     LIBCMT:gs_cookie.obj
 0003:00000028       __security_cookie          0000000140053028     LIBCMT:gs_cookie.obj
 0003:00000030       _fltused                   0000000140053030     LIBCMT:fltused.obj
 0003:00000040       __scrt_native_dllmain_reason 0000000140053040     LIBCMT:utility.obj
 0003:00000044       __scrt_default_matherr     0000000140053044     LIBCMT:matherr.obj
 0003:00000048       __isa_available            0000000140053048     LIBCMT:cpu_disp.obj
 0003:0000004c       __isa_enabled              000000014005304c     LIBCMT:cpu_disp.obj
 0003:00000050       __memcpy_nt_iters          0000000140053050     LIBCMT:cpu_disp.obj
 0003:00000058       __memset_nt_iters          0000000140053058     LIBCMT:cpu_disp.obj
 0003:00000070       _iob                       0000000140053070     libucrt:_file.obj
 0003:00000180       __acrt_lconv_c             0000000140053180     libucrt:localeconv.obj
 0003:00000218       __acrt_lconv               0000000140053218     libucrt:localeconv.obj
 0003:00000220       __acrt_lconv_static_decimal 0000000140053220     libucrt:localeconv.obj
 0003:00000224       __acrt_lconv_static_W_decimal 0000000140053224     libucrt:localeconv.obj
 0003:00000230       _pctype                    0000000140053230     libucrt:ctype.obj
 0003:00000238       _pwctype                   0000000140053238     libucrt:ctype.obj
 0003:00000250       __abort_behavior           0000000140053250     libucrt:abort.obj
 0003:00000260       __badioinfo                0000000140053260     libucrt:ioinit.obj
 0003:000002b0       __acrt_initial_locale_data 00000001400532b0     libucrt:nlsdata.obj
 0003:00000408       __acrt_initial_locale_pointers 0000000140053408     libucrt:nlsdata.obj
 0003:00000418       __acrt_wide_c_locale_string 0000000140053418     libucrt:nlsdata.obj
 0003:0000041c       __mb_cur_max               000000014005341c     libucrt:nlsdata.obj
 0003:00000420       _lookuptrailbytes          0000000140053420     libucrt:read.obj
 0003:00000530       __globallocalestatus       0000000140053530     libucrt:glstatus.obj
 0003:000005d0       __acrt_initial_multibyte_data 00000001400535d0     libucrt:mbctype.obj
 0003:00000b20       ??_R0?AVruntime_error@std@@@8 0000000140053b20     main.obj
 0003:00000b48       ??_R0?AVbad_array_new_length@std@@@8 0000000140053b48     RunParameters.obj
 0003:00000b78       ??_R0?AVbad_alloc@std@@@8  0000000140053b78     RunParameters.obj
 0003:00000ba0       ??_R0?AVexception@std@@@8  0000000140053ba0     RunParameters.obj
 0003:00000bc8       ??_R0?AVsystem_error@std@@@8 0000000140053bc8     WavFile.obj
 0003:00000bf0       ??_R0?AV_System_error@std@@@8 0000000140053bf0     WavFile.obj
 0003:00000c18       ??_R0?AVbad_cast@std@@@8   0000000140053c18     WavFile.obj
 0003:00000c40       ??_R0?AVfailure@ios_base@std@@@8 0000000140053c40     WavFile.obj
 0003:00000c70       ??_R0?AVios_base@std@@@8   0000000140053c70     WavFile.obj
 0003:00000c98       ??_R0?AV?$_Iosb@H@std@@@8  0000000140053c98     WavFile.obj
 0003:00000cc0       ??_R0?AV?$basic_ios@DU?$char_traits@D@std@@@std@@@8 0000000140053cc0     WavFile.obj
 0003:00000d00       ??_R0?AV?$basic_streambuf@DU?$char_traits@D@std@@@std@@@8 0000000140053d00     WavFile.obj
 0003:00000d50       ??_R0?AV?$basic_istream@DU?$char_traits@D@std@@@std@@@8 0000000140053d50     WavFile.obj
 0003:00000da0       ??_R0?AV?$basic_ostream@DU?$char_traits@D@std@@@std@@@8 0000000140053da0     WavFile.obj
 0003:00000df0       ??_R0?AV?$basic_iostream@DU?$char_traits@D@std@@@std@@@8 0000000140053df0     WavFile.obj
 0003:00000e40       ??_R0?AV?$basic_stringbuf@DU?$char_traits@D@std@@V?$allocator@D@2@@std@@@8 0000000140053e40     WavFile.obj
 0003:00000ea0       ??_R0?AV?$basic_stringstream@DU?$char_traits@D@std@@V?$allocator@D@2@@std@@@8 0000000140053ea0     WavFile.obj
 0003:00000ef8       ??_R0?AVerror_category@std@@@8 0000000140053ef8     WavFile.obj
 0003:00000f28       ??_R0?AV_Generic_error_category@std@@@8 0000000140053f28     WavFile.obj
 0003:00000f60       ??_R0?AV_Iostream_error_category@std@@@8 0000000140053f60     WavFile.obj
 0003:00000f98       ??_R0?AV_Facet_base@std@@@8 0000000140053f98     WavFile.obj
 0003:00000fc0       ??_R0?AVfacet@locale@std@@@8 0000000140053fc0     WavFile.obj
 0003:00000fe8       ??_R0?AU_Crt_new_delete@std@@@8 0000000140053fe8     WavFile.obj
 0003:00001018       ??_R0?AUctype_base@std@@@8 0000000140054018     WavFile.obj
 0003:00001040       ??_R0?AV?$ctype@D@std@@@8  0000000140054040     WavFile.obj
 0003:00001068       ??_R0?AVWavFileBase@@@8    0000000140054068     WavFile.obj
 0003:00001090       ??_R0?AVWavInFile@@@8      0000000140054090     WavFile.obj
 0003:000010b0       ??_R0?AVWavOutFile@@@8     00000001400540b0     WavFile.obj
 0003:000010e0       ??_R0?AV?$num_put@DV?$ostreambuf_iterator@DU?$char_traits@D@std@@@std@@@std@@@8 00000001400540e0     WavFile.obj
 0003:00001140       ??_R0?AV?$numpunct@D@std@@@8 0000000140054140     WavFile.obj
 0003:00001168       ??_R0?AVFIFOSamplePipe@soundtouch@@@8 0000000140054168     SoundTouch_x64:SoundTouch.obj
 0003:00001198       ??_R0?AVFIFOProcessor@soundtouch@@@8 0000000140054198     SoundTouch_x64:SoundTouch.obj
 0003:000011c8       ??_R0?AVSoundTouch@soundtouch@@@8 00000001400541c8     SoundTouch_x64:SoundTouch.obj
 0003:000011f8       ??_R0?AVBPMDetect@soundtouch@@@8 00000001400541f8     SoundTouch_x64:BPMDetect.obj
 0003:00001228       ??_R0?AVTransposerBase@soundtouch@@@8 0000000140054228     SoundTouch_x64:RateTransposer.obj
 0003:00001258       ??_R0?AVRateTransposer@soundtouch@@@8 0000000140054258     SoundTouch_x64:RateTransposer.obj
 0003:00001288       ??_R0?AVTDStretch@soundtouch@@@8 0000000140054288     SoundTouch_x64:TDStretch.obj
 0003:000012b8       ??_R0?AVTDStretchSSE@soundtouch@@@8 00000001400542b8     SoundTouch_x64:TDStretch.obj
 0003:000012e8       ??_R0?AVFIFOSampleBuffer@soundtouch@@@8 00000001400542e8     SoundTouch_x64:FIFOSampleBuffer.obj
 0003:00001320       ??_R0?AVFIRFilter@soundtouch@@@8 0000000140054320     SoundTouch_x64:FIRFilter.obj
 0003:00001350       ??_R0?AVInterpolateLinearFloat@soundtouch@@@8 0000000140054350     SoundTouch_x64:InterpolateLinear.obj
 0003:00001388       ??_R0?AVInterpolateCubic@soundtouch@@@8 0000000140054388     SoundTouch_x64:InterpolateCubic.obj
 0003:000013c0       ??_R0?AVInterpolateShannon@soundtouch@@@8 00000001400543c0     SoundTouch_x64:InterpolateShannon.obj
 0003:000013f8       ??_R0?AVFIRFilterSSE@soundtouch@@@8 00000001400543f8     SoundTouch_x64:sse_optimized.obj
 0003:00001428       ??_R0?AVlogic_error@std@@@8 0000000140054428     libcpmt:xthrow.obj
 0003:00001450       ??_R0?AVlength_error@std@@@8 0000000140054450     libcpmt:xthrow.obj
 0003:00001478       ??_R0?AVout_of_range@std@@@8 0000000140054478     libcpmt:xthrow.obj
 0003:000014a0       ??_R0?AV_Locimp@locale@std@@@8 00000001400544a0     libcpmt:locale0.obj
 0003:000014d0       ??_R0?AVtype_info@@@8      00000001400544d0     LIBCMT:std_type_info_static.obj
 0003:000014f0       ??_R0?AVbad_exception@std@@@8 00000001400544f0     libvcruntime:frame.obj
 0003:00001520       ?_OptionsStorage@?1??__local_stdio_printf_options@@9@4_KA 0000000140054520     main.obj
 0003:00001528       ?id@?$num_put@DV?$ostreambuf_iterator@DU?$char_traits@D@std@@@std@@@std@@2V0locale@2@A 0000000140054528     WavFile.obj
 0003:00001530       ?id@?$numpunct@D@std@@2V0locale@2@A 0000000140054530     WavFile.obj
 0003:00001538       ?_Flag@?1???$_Immortalize@V_Iostream_error_category@std@@@std@@YAAEAV_Iostream_error_category@1@XZ@4PEAXEA 0000000140054538     WavFile.obj
 0003:00001540       ?_Storage@?1???$_Immortalize@V_Iostream_error_category@std@@@std@@YAAEAV_Iostream_error_category@1@XZ@4T?$_Align_type@N$0BA@@1@A 0000000140054540     WavFile.obj
 0003:00001550       ?_Psave@?$_Facetptr@V?$ctype@D@std@@@std@@2PEBVfacet@locale@2@EB 0000000140054550     WavFile.obj
 0003:00001558       ?_Psave@?$_Facetptr@V?$num_put@DV?$ostreambuf_iterator@DU?$char_traits@D@std@@@std@@@std@@@std@@2PEBVfacet@locale@2@EB 0000000140054558     WavFile.obj
 0003:00001560       ?_Psave@?$_Facetptr@V?$numpunct@D@std@@@std@@2PEBVfacet@locale@2@EB 0000000140054560     WavFile.obj
 0003:000016c0       ?_Id_cnt@id@locale@std@@0HA 00000001400546c0     libcpmt:locale0.obj
 0003:000016c8       ?_Clocptr@_Locimp@locale@std@@0PEAV123@EA 00000001400546c8     libcpmt:locale0.obj
 0003:000016d0       ?id@?$ctype@_W@std@@2V0locale@2@A 00000001400546d0     libcpmt:locale0.obj
 0003:000016d8       ?id@?$ctype@D@std@@2V0locale@2@A 00000001400546d8     libcpmt:locale0.obj
 0003:000016e0       ?id@?$codecvt@GDU_Mbstatet@@@std@@2V0locale@2@A 00000001400546e0     libcpmt:locale0.obj
 0003:000016e8       ?id@?$ctype@G@std@@2V0locale@2@A 00000001400546e8     libcpmt:locale0.obj
 0003:00001700       ?id@?$codecvt@_WDU_Mbstatet@@@std@@2V0locale@2@A 0000000140054700     libcpmt:locale0.obj
 0003:00001730       ?_Index@ios_base@std@@0HA  0000000140054730     libcpmt:ios.obj
 0003:000017a0       __KERNEL32Functions        00000001400547a0     libcpmt:winapisupp.obj
 0003:000018e0       ?id@?$num_get@DV?$istreambuf_iterator@DU?$char_traits@D@std@@@std@@@std@@2V0locale@2@A 00000001400548e0     libcpmt:locale.obj
 0003:000018e8       ?id@?$codecvt@DDU_Mbstatet@@@std@@2V0locale@2@A 00000001400548e8     libcpmt:locale.obj
 0003:000018f0       ?_Ptr_cin@std@@3PEAV?$basic_istream@DU?$char_traits@D@std@@@1@EA 00000001400548f0     libcpmt:iosptrs.obj
 0003:000018f8       ?_Ptr_cout@std@@3PEAV?$basic_ostream@DU?$char_traits@D@std@@@1@EA 00000001400548f8     libcpmt:iosptrs.obj
 0003:00001900       ?_Ptr_cerr@std@@3PEAV?$basic_ostream@DU?$char_traits@D@std@@@1@EA 0000000140054900     libcpmt:iosptrs.obj
 0003:00001908       ?_Ptr_clog@std@@3PEAV?$basic_ostream@DU?$char_traits@D@std@@@1@EA 0000000140054908     libcpmt:iosptrs.obj
 0003:00001910       ?_Ptr_wcin@std@@3PEAV?$basic_istream@_WU?$char_traits@_W@std@@@1@EA 0000000140054910     libcpmt:iosptrs.obj
 0003:00001918       ?_Ptr_wcout@std@@3PEAV?$basic_ostream@_WU?$char_traits@_W@std@@@1@EA 0000000140054918     libcpmt:iosptrs.obj
 0003:00001920       ?_Ptr_wcerr@std@@3PEAV?$basic_ostream@_WU?$char_traits@_W@std@@@1@EA 0000000140054920     libcpmt:iosptrs.obj
 0003:00001928       ?_Ptr_wclog@std@@3PEAV?$basic_ostream@_WU?$char_traits@_W@std@@@1@EA 0000000140054928     libcpmt:iosptrs.obj
 0003:00001990       ?id@?$time_put@_WV?$ostreambuf_iterator@_WU?$char_traits@_W@std@@@std@@@std@@2V0locale@2@A 0000000140054990     libcpmt:wlocale.obj
 0003:00001998       ?id@?$num_get@_WV?$istreambuf_iterator@_WU?$char_traits@_W@std@@@std@@@std@@2V0locale@2@A 0000000140054998     libcpmt:wlocale.obj
 0003:000019a0       ?id@?$num_put@_WV?$ostreambuf_iterator@_WU?$char_traits@_W@std@@@std@@@std@@2V0locale@2@A 00000001400549a0     libcpmt:wlocale.obj
 0003:000019a8       ?id@?$numpunct@_W@std@@2V0locale@2@A 00000001400549a8     libcpmt:wlocale.obj
 0003:000019b0       ?id@?$collate@_W@std@@2V0locale@2@A 00000001400549b0     libcpmt:wlocale.obj
 0003:000019b8       ?id@?$messages@_W@std@@2V0locale@2@A 00000001400549b8     libcpmt:wlocale.obj
 0003:000019c0       ?id@?$money_get@_WV?$istreambuf_iterator@_WU?$char_traits@_W@std@@@std@@@std@@2V0locale@2@A 00000001400549c0     libcpmt:wlocale.obj
 0003:000019c8       ?id@?$money_put@_WV?$ostreambuf_iterator@_WU?$char_traits@_W@std@@@std@@@std@@2V0locale@2@A 00000001400549c8     libcpmt:wlocale.obj
 0003:000019d0       ?id@?$moneypunct@_W$0A@@std@@2V0locale@2@A 00000001400549d0     libcpmt:wlocale.obj
 0003:000019d8       ?id@?$moneypunct@_W$00@std@@2V0locale@2@A 00000001400549d8     libcpmt:wlocale.obj
 0003:000019e0       ?id@?$time_get@_WV?$istreambuf_iterator@_WU?$char_traits@_W@std@@@std@@@std@@2V0locale@2@A 00000001400549e0     libcpmt:wlocale.obj
 0003:000019e8       ?id@?$num_get@GV?$istreambuf_iterator@GU?$char_traits@G@std@@@std@@@std@@2V0locale@2@A 00000001400549e8     libcpmt:wlocale.obj
 0003:000019f0       ?id@?$num_put@GV?$ostreambuf_iterator@GU?$char_traits@G@std@@@std@@@std@@2V0locale@2@A 00000001400549f0     libcpmt:wlocale.obj
 0003:000019f8       ?id@?$numpunct@G@std@@2V0locale@2@A 00000001400549f8     libcpmt:wlocale.obj
 0003:00001a00       ?id@?$collate@G@std@@2V0locale@2@A 0000000140054a00     libcpmt:wlocale.obj
 0003:00001a08       ?id@?$messages@G@std@@2V0locale@2@A 0000000140054a08     libcpmt:wlocale.obj
 0003:00001a10       ?id@?$money_get@GV?$istreambuf_iterator@GU?$char_traits@G@std@@@std@@@std@@2V0locale@2@A 0000000140054a10     libcpmt:wlocale.obj
 0003:00001a18       ?id@?$money_put@GV?$ostreambuf_iterator@GU?$char_traits@G@std@@@std@@@std@@2V0locale@2@A 0000000140054a18     libcpmt:wlocale.obj
 0003:00001a20       ?id@?$moneypunct@G$0A@@std@@2V0locale@2@A 0000000140054a20     libcpmt:wlocale.obj
 0003:00001a28       ?id@?$moneypunct@G$00@std@@2V0locale@2@A 0000000140054a28     libcpmt:wlocale.obj
 0003:00001a30       ?id@?$time_get@GV?$istreambuf_iterator@GU?$char_traits@G@std@@@std@@@std@@2V0locale@2@A 0000000140054a30     libcpmt:wlocale.obj
 0003:00001a38       ?id@?$time_put@GV?$ostreambuf_iterator@GU?$char_traits@G@std@@@std@@@std@@2V0locale@2@A 0000000140054a38     libcpmt:wlocale.obj
 0003:00001a40       ?id@?$collate@D@std@@2V0locale@2@A 0000000140054a40     libcpmt:xlocale.obj
 0003:00001a48       ?id@?$messages@D@std@@2V0locale@2@A 0000000140054a48     libcpmt:xlocale.obj
 0003:00001a50       ?id@?$money_get@DV?$istreambuf_iterator@DU?$char_traits@D@std@@@std@@@std@@2V0locale@2@A 0000000140054a50     libcpmt:xlocale.obj
 0003:00001a58       ?id@?$money_put@DV?$ostreambuf_iterator@DU?$char_traits@D@std@@@std@@@std@@2V0locale@2@A 0000000140054a58     libcpmt:xlocale.obj
 0003:00001a60       ?id@?$moneypunct@D$0A@@std@@2V0locale@2@A 0000000140054a60     libcpmt:xlocale.obj
 0003:00001a68       ?id@?$moneypunct@D$00@std@@2V0locale@2@A 0000000140054a68     libcpmt:xlocale.obj
 0003:00001a70       ?id@?$time_get@DV?$istreambuf_iterator@DU?$char_traits@D@std@@@std@@@std@@2V0locale@2@A 0000000140054a70     libcpmt:xlocale.obj
 0003:00001a78       ?id@?$time_put@DV?$ostreambuf_iterator@DU?$char_traits@D@std@@@std@@@std@@2V0locale@2@A 0000000140054a78     libcpmt:xlocale.obj
 0003:00001a80       __scrt_current_native_startup_state 0000000140054a80     LIBCMT:utility.obj
 0003:00001a88       __scrt_native_startup_lock 0000000140054a88     LIBCMT:utility.obj
 0003:00002040       ?__type_info_root_node@@3U__type_info_node@@A 0000000140055040     LIBCMT:tncleanup.obj
 0003:00002050       ?_OptionsStorage@?1??__local_stdio_scanf_options@@9@4_KA 0000000140055050     LIBCMT:default_local_stdio_options.obj
 0003:00002058       __scrt_debugger_hook_flag  0000000140055058     LIBCMT:utility_desktop.obj
 0003:0000205c       __favor                    000000014005505c     LIBCMT:cpu_disp.obj
 0003:00002060       ?__WinRTOutOfMemoryExceptionCallback@@3P6APEAXXZEA 0000000140055060     libvcruntime:ehhelpers.obj
 0003:000020f0       __pPurecall                00000001400550f0     libvcruntime:purevirt_data.obj
 0003:00002128       ?pArgList@UnDecorator@@0PEAVReplicator@@EA 0000000140055128     libvcruntime:undname.obj
 0003:00002130       ?pZNameList@UnDecorator@@0PEAVReplicator@@EA 0000000140055130     libvcruntime:undname.obj
 0003:00002138       ?pTemplateArgList@UnDecorator@@0PEAVReplicator@@EA 0000000140055138     libvcruntime:undname.obj
 0003:00002140       ?gName@UnDecorator@@0PEBDEB 0000000140055140     libvcruntime:undname.obj
 0003:00002148       ?name@UnDecorator@@0PEBDEB 0000000140055148     libvcruntime:undname.obj
 0003:00002150       ?disableFlags@UnDecorator@@0KA 0000000140055150     libvcruntime:undname.obj
 0003:00002154       ?fExplicitTemplateParams@UnDecorator@@0_NA 0000000140055154     libvcruntime:undname.obj
 0003:00002155       ?fGetTemplateArgumentList@UnDecorator@@0_NA 0000000140055155     libvcruntime:undname.obj
 0003:00002158       ?m_pGetParameter@UnDecorator@@0P6APEADJ@ZEA 0000000140055158     libvcruntime:undname.obj
 0003:00002160       ?m_CHPENameOffset@UnDecorator@@0KA 0000000140055160     libvcruntime:undname.obj
 0003:00002164       ?m_recursionLevel@UnDecorator@@0KA 0000000140055164     libvcruntime:undname.obj
 0003:000021d0       _nstream                   00000001400551d0     libucrt:_file.obj
 0003:000021d8       __piob                     00000001400551d8     libucrt:_file.obj
 0003:000021e0       _cflush                    00000001400551e0     libucrt:_file.obj
 0003:000021f0       __acrt_lconv_static_null   00000001400551f0     libucrt:localeconv.obj
 0003:000021f4       __acrt_lconv_static_W_null 00000001400551f4     libucrt:localeconv.obj
 0003:00002558       _environ_table             0000000140055558     libucrt:environment_initialization.obj
 0003:00002560       _wenviron_table            0000000140055560     libucrt:environment_initialization.obj
 0003:00002568       __dcrt_initial_wide_environment 0000000140055568     libucrt:environment_initialization.obj
 0003:00002570       __dcrt_initial_narrow_environment 0000000140055570     libucrt:environment_initialization.obj
 0003:00002588       ?c_exit_complete@?1???R<lambda_6e4b09c48022b2350581041d5f6b0c4c>@@QEBA@XZ@4_NA 0000000140055588     libucrt:exit.obj
 0003:00002590       _pgmptr                    0000000140055590     libucrt:argv_data.obj
 0003:00002598       __argc                     0000000140055598     libucrt:argv_data.obj
 0003:000025a0       __argv                     00000001400555a0     libucrt:argv_data.obj
 0003:000025a8       __wargv                    00000001400555a8     libucrt:argv_data.obj
 0003:000025b0       _acmdln                    00000001400555b0     libucrt:argv_data.obj
 0003:000025b8       _wcmdln                    00000001400555b8     libucrt:argv_data.obj
 0003:000025c0       __acrt_locale_changed_data 00000001400555c0     libucrt:wsetlocale.obj
 0003:000025c8       _commode                   00000001400555c8     libucrt:ncommode.obj
 0003:000025d0       __acrt_atexit_table        00000001400555d0     libucrt:onexit.obj
 0003:000025e8       __acrt_at_quick_exit_table 00000001400555e8     libucrt:onexit.obj
 0003:000027c0       __pioinfo                  00000001400557c0     libucrt:ioinit.obj
 0003:00002bc0       _nhandle                   0000000140055bc0     libucrt:ioinit.obj
 0003:00002bd8       __acrt_stdout_buffer       0000000140055bd8     libucrt:_sftbuf.obj
 0003:00002be0       __acrt_stderr_buffer       0000000140055be0     libucrt:_sftbuf.obj
 0003:00002be8       __acrt_current_locale_data 0000000140055be8     libucrt:nlsdata.obj
 0003:00002bf0       _fmode                     0000000140055bf0     libucrt:txtmode.obj
 0003:00002bf4       __fma3_is_available        0000000140055bf4     libucrt:fma3_available.obj
 0003:00002bf8       __use_fma3_lib             0000000140055bf8     libucrt:fma3_available.obj
 0003:00002c20       ?_timezone@@3V?$dual_state_global@J@__crt_state_management@@A 0000000140055c20     libucrt:timeset.obj
 0003:00002c24       ?_daylight@@3V?$dual_state_global@H@__crt_state_management@@A 0000000140055c24     libucrt:timeset.obj
 0003:00002c28       ?_dstbias@@3V?$dual_state_global@J@__crt_state_management@@A 0000000140055c28     libucrt:timeset.obj
 0003:00002d00       _mbctype                   0000000140055d00     libucrt:mbctype.obj
 0003:00002d08       _mbcasemap                 0000000140055d08     libucrt:mbctype.obj
 0003:00002d10       __acrt_current_multibyte_data 0000000140055d10     libucrt:mbctype.obj
 0003:00002d20       __acrt_heap                0000000140055d20     libucrt:heap_handle.obj
 0003:00002d30       _umaskval                  0000000140055d30     libucrt:umask.obj
 0003:00002d40       __scrt_ucrt_dll_is_in_use  0000000140055d40     <common>
 0003:00002d48       __dyn_tls_dtor_callback    0000000140055d48     <common>
 0003:00002d50       __dyn_tls_init_callback    0000000140055d50     <common>
 0005:00000400       __common_dcos_reduction_data 0000000140059400     LIBCMT:svml_d_cos_data.obj
 0005:0000c600       __common_dcos_data_ha      0000000140065600     LIBCMT:svml_d_cos_data.obj
 0005:00010980       __common_dcos_data         0000000140069980     LIBCMT:svml_d_cos_data.obj

 entry point at        0001:0000ff18

 Static symbols

 0001:00000000       ??__Einitlocks@std@@YAXXZ  0000000140001000 f   libcpmt:xlock.obj
 0001:00000020       ??__E_Fac_tidy_reg@std@@YAXXZ 0000000140001020 f   libcpmt:locale0.obj
 0001:0000002c       ??__Eclassic_locale@std@@YAXXZ 000000014000102c f   libcpmt:locale0.obj
 0001:00000038       ??__Einit_atexit@@YAXXZ    0000000140001038 f   libcpmt:iosptrs.obj
 0001:00000044       ??__Einitlocks@std@@YAXXZ  0000000140001044 f   libcpmt:iosptrs.obj
 0001:00000070       ?detectBPM@@YAXPEAVWavInFile@@PEAVRunParameters@@@Z 0000000140001070 f   main.obj
 0001:00000260       ?openFiles@@YAXPEAPEAVWavInFile@@PEAPEAVWavOutFile@@PEBVRunParameters@@@Z 0000000140001260 f   main.obj
 0001:00000410       ?process@@YAXPEAVSoundTouch@soundtouch@@PEAVWavInFile@@PEAVWavOutFile@@@Z 0000000140001410 f   main.obj
 0001:00000570       ?setup@@YAXPEAVSoundTouch@soundtouch@@PEBVWavInFile@@PEBVRunParameters@@@Z 0000000140001570 f   main.obj
 0001:000012fc       $LN39                      00000001400022fc     RunParameters.obj
 0001:00007350       no_op_initialize           0000000140008350 f i libucrt:wsetlocale.obj
 0001:00008740       $LN12                      0000000140009740     SoundTouch_x64:SoundTouch.obj
 0001:0000eba8       tidy_global                000000014000fba8 f   libcpmt:locale0.obj
 0001:0000f148       ?initialize_pointers@@YAHXZ 0000000140010148 f   libcpmt:winapisupp.obj
 0001:0000fbe0       $$000000                   0000000140010be0     LIBCMT:chkstk.obj
 0001:0000fc50       $$000000                   0000000140010c50     LIBCMT:amdsecgs.obj
 0001:0000fcb8       ?pre_c_initialization@@YAHXZ 0000000140010cb8 f   LIBCMT:exe_main.obj
 0001:0000fd70       ?post_pgo_initialization@@YAHXZ 0000000140010d70 f   LIBCMT:exe_main.obj
 0001:0000fd80       ?pre_cpp_initialization@@YAXXZ 0000000140010d80 f   LIBCMT:exe_main.obj
 0001:0000fd9c       ?__scrt_common_main_seh@@YAHXZ 0000000140010d9c f   LIBCMT:exe_main.obj
 0001:0000ff30       $$000000                   0000000140010f30     LIBCMT:svml_dcos2_dispatch.obj
 0001:000103d4       capture_current_context    00000001400113d4 f   LIBCMT:gs_report.obj
 0001:00010444       capture_previous_context   0000000140011444 f   LIBCMT:gs_report.obj
 0001:00010584       initialize_environment     0000000140011584 f   libucrt:initialization.obj
 0001:00010584       initialize_global_state_isolation 0000000140011584 f   libucrt:initialization.obj
 0001:00010584       report_memory_leaks        0000000140011584 f   libucrt:initialization.obj
 0001:00010584       uninitialize_c             0000000140011584 f   libucrt:initialization.obj
 0001:00010584       uninitialize_global_state_isolation 0000000140011584 f   libucrt:initialization.obj
 0001:00010a00       $$000000                   0000000140011a00     LIBCMT:svml_dcos2_sse2.obj
 0001:000110b0       $$000000                   00000001400120b0     LIBCMT:svml_dcos2_sse4.obj
 0001:00011760       $$000000                   0000000140012760     LIBCMT:svml_d_cos_cout.obj
 0001:000125e0       $$000000                   00000001400135e0     libvcruntime:memchr.obj
 0001:00012660       $$000000                   0000000140013660     libvcruntime:memcpy.obj
 0001:00012bf0       $$000000                   0000000140013bf0     libvcruntime:memset.obj
 0001:00012dd0       $$000000                   0000000140013dd0     libvcruntime:memcmp.obj
 0001:000134d4       ??$BuildCatchObjectHelperInternal@V__FrameHandler3@@@@YAHPEAUEHExceptionRecord@@PEAXPEBU_s_HandlerType@@PEBU_s_CatchableType@@@Z 00000001400144d4 f   libvcruntime:frame.obj
 0001:000136d4       ??$BuildCatchObjectHelperInternal@V__FrameHandler4@@@@YAHPEAUEHExceptionRecord@@PEAXPEAUHandlerType4@FH4@@PEBU_s_CatchableType@@@Z 00000001400146d4 f   libvcruntime:frame.obj
 0001:000138d8       ??$BuildCatchObjectInternal@V__FrameHandler3@@@@YAXPEAUEHExceptionRecord@@PEAXPEBU_s_HandlerType@@PEBU_s_CatchableType@@@Z 00000001400148d8 f   libvcruntime:frame.obj
 0001:00013998       ??$BuildCatchObjectInternal@V__FrameHandler4@@@@YAXPEAUEHExceptionRecord@@PEAXPEAUHandlerType4@FH4@@PEBU_s_CatchableType@@@Z 0000000140014998 f   libvcruntime:frame.obj
 0001:00013a5c       ??$CatchIt@V__FrameHandler3@@@@YAXPEAUEHExceptionRecord@@PEA_KPEAU_CONTEXT@@PEAU_xDISPATCHER_CONTEXT@@PEBU_s_FuncInfo@@PEBU_s_HandlerType@@PEBU_s_CatchableType@@PEBU_s_TryBlockMapEntry@@H1EE@Z 0000000140014a5c f   libvcruntime:frame.obj
 0001:00013b30       ??$CatchIt@V__FrameHandler4@@@@YAXPEAUEHExceptionRecord@@PEA_KPEAU_CONTEXT@@PEAU_xDISPATCHER_CONTEXT@@PEAUFuncInfo4@FH4@@PEAUHandlerType4@4@PEBU_s_CatchableType@@PEAUTryBlockMapEntry4@4@H1EE@Z 0000000140014b30 f   libvcruntime:frame.obj
 0001:00013c04       ??$FindHandler@V__FrameHandler3@@@@YAXPEAUEHExceptionRecord@@PEA_KPEAU_CONTEXT@@PEAU_xDISPATCHER_CONTEXT@@PEBU_s_FuncInfo@@EH1@Z 0000000140014c04 f   libvcruntime:frame.obj
 0001:000140fc       ??$FindHandler@V__FrameHandler4@@@@YAXPEAUEHExceptionRecord@@PEA_KPEAU_CONTEXT@@PEAU_xDISPATCHER_CONTEXT@@PEAUFuncInfo4@FH4@@EH1@Z 00000001400150fc f   libvcruntime:frame.obj
 0001:0001460c       ??$FindHandlerForForeignException@V__FrameHandler3@@@@YAXPEAUEHExceptionRecord@@PEA_KPEAU_CONTEXT@@PEAU_xDISPATCHER_CONTEXT@@PEBU_s_FuncInfo@@HH1@Z 000000014001560c f   libvcruntime:frame.obj
 0001:00014820       ??$FindHandlerForForeignException@V__FrameHandler4@@@@YAXPEAUEHExceptionRecord@@PEA_KPEAU_CONTEXT@@PEAU_xDISPATCHER_CONTEXT@@PEAUFuncInfo4@FH4@@HH1@Z 0000000140015820 f   libvcruntime:frame.obj
 0001:00015a00       ?ExFilterRethrow@@YAHPEAU_EXCEPTION_POINTERS@@PEAUEHExceptionRecord@@PEAH@Z 0000000140016a00 f   libvcruntime:frame.obj
 0001:00015a88       ?ExFilterRethrowFH4@@YAHPEAU_EXCEPTION_POINTERS@@PEAUEHExceptionRecord@@HPEAH@Z 0000000140016a88 f   libvcruntime:frame.obj
 0001:00015fb0       ?IsInExceptionSpec@@YAEPEAUEHExceptionRecord@@PEBU_s_ESTypeList@@@Z 0000000140016fb0 f   libvcruntime:frame.obj
 0001:000160a0       ?Is_bad_exception_allowed@@YAEPEBU_s_ESTypeList@@@Z 00000001400170a0 f   libvcruntime:frame.obj
 0001:00016380       $$000000                   0000000140017380     libvcruntime:notify.obj
 0001:00016468       ?try_get_function@@YAPEAXW4function_id@?A0x81a78551@@QEBDQEBW4module_id@2@2@Z 0000000140017468 f   libvcruntime:winapi_downlevel.obj
 0001:00016760       $$000000                   0000000140017760     libvcruntime:handlers.obj
 0001:00016a10       ??$?RV<lambda_842d9ff0dc9ef11c61343bbaebe7f885>@@AEAV<lambda_c5860995281e5c4ce005b3de8f5874ee>@@V<lambda_d90129c13df834fdcbf8d2b88dafcf2d>@@@?$__crt_seh_guarded_call@X@@QEAAX$$QEAV<lambda_842d9ff0dc9ef11c61343bbaebe7f885>@@AEAV<lambda_c5860995281e5c4ce005b3de8f5874ee>@@$$QEAV<lambda_d90129c13df834fdcbf8d2b88dafcf2d>@@@Z 0000000140017a10 f   libucrt:fflush.obj
 0001:00016aac       ??$?RV<lambda_886d6c58226a84441f68b9f2b8217b83>@@AEAV<lambda_ab61a845afdef5b7c387490eaf3616ee>@@V<lambda_f7f22ab5edc0698d5f6905b0d3f44752>@@@?$__crt_seh_guarded_call@X@@QEAAX$$QEAV<lambda_886d6c58226a84441f68b9f2b8217b83>@@AEAV<lambda_ab61a845afdef5b7c387490eaf3616ee>@@$$QEAV<lambda_f7f22ab5edc0698d5f6905b0d3f44752>@@@Z 0000000140017aac f   libucrt:fflush.obj
 0001:00016b8c       ??$?RV<lambda_c376a267cfb53b6959b3b692ec76b120>@@AEAV<lambda_9a32fed5bf61b6b509b2d3f6003082a1>@@V<lambda_572fbb9fa0ab338edf41edfd4b5fcc8d>@@@?$__crt_seh_guarded_call@H@@QEAAH$$QEAV<lambda_c376a267cfb53b6959b3b692ec76b120>@@AEAV<lambda_9a32fed5bf61b6b509b2d3f6003082a1>@@$$QEAV<lambda_572fbb9fa0ab338edf41edfd4b5fcc8d>@@@Z 0000000140017b8c f   libucrt:fflush.obj
 0001:00016bcc       ?common_flush_all@@YAH_N@Z 0000000140017bcc f   libucrt:fflush.obj
 0001:00016d8c       ??$?RV<lambda_fe5404e9642edbb7c8ae71e1dcfa4018>@@AEAV<lambda_36eeb330e99a4f0bf8a7da86d0894cb9>@@V<lambda_2fa474834de80dc12f7a3c6eddd7a366>@@@?$__crt_seh_guarded_call@H@@QEAAH$$QEAV<lambda_fe5404e9642edbb7c8ae71e1dcfa4018>@@AEAV<lambda_36eeb330e99a4f0bf8a7da86d0894cb9>@@$$QEAV<lambda_2fa474834de80dc12f7a3c6eddd7a366>@@@Z 0000000140017d8c f   libucrt:output.obj
 0001:00016dcc       ??$common_vsprintf@Vformat_validation_base@__crt_stdio_output@@D@@YAH_KQEAD0QEBDQEAU__crt_locale_pointers@@1@Z 0000000140017dcc f   libucrt:output.obj
 0001:0001730c       ??R<lambda_36eeb330e99a4f0bf8a7da86d0894cb9>@@QEBAHXZ 000000014001830c f   libucrt:output.obj
 0001:00019428       ??$common_atof_l@D@@YANQEBDQEAU__crt_locale_pointers@@@Z 000000014001a428 f   libucrt:atof.obj
 0001:0001c82c       memcpy_s                   000000014001d82c f   libucrt:atof.obj
 0001:0001c82c       memcpy_s                   000000014001d82c f   libucrt:cfout.obj
 0001:0001c9c8       ??$common_fsopen@D@@YAPEAU_iobuf@@QEBD0H@Z 000000014001d9c8 f   libucrt:fopen.obj
 0001:0001cde8       ?common_fseek@@YAHV__crt_stdio_stream@@_JH@Z 000000014001dde8 f   libucrt:fseek.obj
 0001:0001ce54       ?common_fseek_binary_mode_read_only_fast_track_nolock@@YA_NV__crt_stdio_stream@@_JH@Z 000000014001de54 f   libucrt:fseek.obj
 0001:0001cf38       ?common_fseek_nolock@@YAHV__crt_stdio_stream@@_JH@Z 000000014001df38 f   libucrt:fseek.obj
 0001:0001cff8       ??$?RV<lambda_2831f20263db5b546e098b45503eb778>@@AEAV<lambda_5856287d7ecd2be6c9197bb4007c3f6e>@@V<lambda_0838d7e100fbcbd261b69cfea6abb102>@@@?$__crt_seh_guarded_call@_K@@QEAA_K$$QEAV<lambda_2831f20263db5b546e098b45503eb778>@@AEAV<lambda_5856287d7ecd2be6c9197bb4007c3f6e>@@$$QEAV<lambda_0838d7e100fbcbd261b69cfea6abb102>@@@Z 000000014001dff8 f   libucrt:fwrite.obj
 0001:0001d038       ??R<lambda_5856287d7ecd2be6c9197bb4007c3f6e>@@QEBA_KXZ 000000014001e038 f   libucrt:fwrite.obj
 0001:0001d2cc       fallbackMethod             000000014001e2cc f   libucrt:strcspn.obj
 0001:0001d678       $LN78                      000000014001e678     libucrt:strcspn.obj
 0001:0001d6b4       $LN77                      000000014001e6b4     libucrt:strcspn.obj
 0001:0001d6f4       $LN76                      000000014001e6f4     libucrt:strcspn.obj
 0001:0001d8a0       $$000000                   000000014001e8a0     libucrt:exp.obj
 0001:0001dca0       $$000000                   000000014001eca0     libucrt:cos.obj
 0001:0001e220       $$000000                   000000014001f220     libucrt:pow.obj
 0001:0001f8c0       $$000000                   00000001400208c0     libucrt:sin.obj
 0001:0001ff18       ??$?RV<lambda_41e84717acc955b55e9d0d529e507b68>@@AEAV<lambda_b37934c380d97b75fd242ea49540127a>@@V<lambda_bb6db9f9ac473960206e0d4b942b5506>@@@?$__crt_seh_guarded_call@PEAD@@QEAAPEAD$$QEAV<lambda_41e84717acc955b55e9d0d529e507b68>@@AEAV<lambda_b37934c380d97b75fd242ea49540127a>@@$$QEAV<lambda_bb6db9f9ac473960206e0d4b942b5506>@@@Z 0000000140020f18 f   libucrt:setlocale.obj
 0001:0001ff58       ??R<lambda_b37934c380d97b75fd242ea49540127a>@@QEBAPEADXZ 0000000140020f58 f   libucrt:setlocale.obj
 0001:00020ba0       $$000000                   0000000140021ba0     libucrt:powf.obj
 0001:00022374       ??$parse_command_line@D@@YAXPEADPEAPEAD0PEA_K2@Z 0000000140023374 f   libucrt:argv_parsing.obj
 0001:00022720       ??$common_initialize_environment_nolock@D@@YAHXZ 0000000140023720 f   libucrt:environment_initialization.obj
 0001:0002278c       ??$create_environment@D@@YAQEAPEADQEAD@Z 000000014002378c f   libucrt:environment_initialization.obj
 0001:00022894       ??$free_environment@D@@YAXQEAPEAD@Z 0000000140023894 f   libucrt:environment_initialization.obj
 0001:00022894       ??$free_environment@_W@@YAXQEAPEA_W@Z 0000000140023894 f   libucrt:environment_initialization.obj
 0001:000228d8       ??$initialize_environment_by_cloning_nolock@D@@YAHXZ 00000001400238d8 f   libucrt:environment_initialization.obj
 0001:000229ac       ??$uninitialize_environment_internal@D@@YAXAEAPEAPEAD@Z 00000001400239ac f   libucrt:environment_initialization.obj
 0001:000229c8       ??$uninitialize_environment_internal@_W@@YAXAEAPEAPEA_W@Z 00000001400239c8 f   libucrt:environment_initialization.obj
 0001:00022b54       ??$?RV<lambda_d80eeec6fff315bfe5c115232f3240e3>@@AEAV<lambda_6e4b09c48022b2350581041d5f6b0c4c>@@V<lambda_2358e3775559c9db80273638284d5e45>@@@?$__crt_seh_guarded_call@X@@QEAAX$$QEAV<lambda_d80eeec6fff315bfe5c115232f3240e3>@@AEAV<lambda_6e4b09c48022b2350581041d5f6b0c4c>@@$$QEAV<lambda_2358e3775559c9db80273638284d5e45>@@@Z 0000000140023b54 f   libucrt:exit.obj
 0001:00022b8c       ??R<lambda_6e4b09c48022b2350581041d5f6b0c4c>@@QEBA@XZ 0000000140023b8c f   libucrt:exit.obj
 0001:00022c50       ?atexit_exception_filter@@YAHK@Z 0000000140023c50 f   libucrt:exit.obj
 0001:00022c5c       ?common_exit@@YAXHW4_crt_exit_cleanup_mode@@W4_crt_exit_return_mode@@@Z 0000000140023c5c f   libucrt:exit.obj
 0001:00022d18       ?exit_or_terminate_process@@YAXI@Z 0000000140023d18 f   libucrt:exit.obj
 0001:00022d64       ?try_cor_exit_process@@YAXI@Z 0000000140023d64 f   libucrt:exit.obj
 0001:00022e74       ??$?RV<lambda_1d892b297fdedeee07ed8124eeb2f2fa>@@AEAV<lambda_ffc046909424fd52df0ac47e64813305>@@V<lambda_01a7098693036236037e7cdb9bca3d73>@@@?$__crt_seh_guarded_call@X@@QEAAX$$QEAV<lambda_1d892b297fdedeee07ed8124eeb2f2fa>@@AEAV<lambda_ffc046909424fd52df0ac47e64813305>@@$$QEAV<lambda_01a7098693036236037e7cdb9bca3d73>@@@Z 0000000140023e74 f   libucrt:wsetlocale.obj
 0001:00022fb0       ??$?RV<lambda_410d79af7f07d98d83a3f525b3859a53>@@AEAV<lambda_3e16ef9562a7dcce91392c22ab16ea36>@@V<lambda_38119f0e861e05405d8a144b9b982f0a>@@@?$__crt_seh_guarded_call@X@@QEAAX$$QEAV<lambda_410d79af7f07d98d83a3f525b3859a53>@@AEAV<lambda_3e16ef9562a7dcce91392c22ab16ea36>@@$$QEAV<lambda_38119f0e861e05405d8a144b9b982f0a>@@@Z 0000000140023fb0 f   libucrt:wsetlocale.obj
 0001:00023020       ??$?RV<lambda_7f2adfce497ff2baa965cd4f576ecfd1>@@AEAV<lambda_2a444430fde8c29194d880d93eed5e8f>@@AEAV<lambda_8dff2cf36a5417162780cd64fa2883ef>@@@?$__crt_seh_guarded_call@X@@QEAAX$$QEAV<lambda_7f2adfce497ff2baa965cd4f576ecfd1>@@AEAV<lambda_2a444430fde8c29194d880d93eed5e8f>@@AEAV<lambda_8dff2cf36a5417162780cd64fa2883ef>@@@Z 0000000140024020 f   libucrt:wsetlocale.obj
 0001:0002304c       ??R<lambda_2a444430fde8c29194d880d93eed5e8f>@@QEBA@XZ 000000014002404c f   libucrt:wsetlocale.obj
 0001:0002348c       _copytlocinfo_nolock       000000014002448c f   libucrt:wsetlocale.obj
 0001:0002354c       _expandlocale              000000014002454c f   libucrt:wsetlocale.obj
 0001:00023ad8       _wsetlocale_get_all        0000000140024ad8 f   libucrt:wsetlocale.obj
 0001:00023cc4       _wsetlocale_nolock         0000000140024cc4 f   libucrt:wsetlocale.obj
 0001:00023f5c       _wsetlocale_set_cat        0000000140024f5c f   libucrt:wsetlocale.obj
 0001:000242b0       parse_bcp47                00000001400252b0 f   libucrt:wsetlocale.obj
 0001:000244b0       parse_bcp47_code_page      00000001400254b0 f   libucrt:wsetlocale.obj
 0001:000244f8       parse_bcp47_language       00000001400254f8 f   libucrt:wsetlocale.obj
 0001:00024584       parse_bcp47_region         0000000140025584 f   libucrt:wsetlocale.obj
 0001:00024690       parse_bcp47_script         0000000140025690 f   libucrt:wsetlocale.obj
 0001:00024720       string_is_alpha            0000000140025720 f   libucrt:wsetlocale.obj
 0001:000247d0       ??$?RV<lambda_638799b9deba96c50f710eeac98168cd>@@AEAV<lambda_22ebabd17bc4fa466a2aca6d8deb888d>@@V<lambda_a6f7d7db0129f75315ebf26d50c089f1>@@@?$__crt_seh_guarded_call@H@@QEAAH$$QEAV<lambda_638799b9deba96c50f710eeac98168cd>@@AEAV<lambda_22ebabd17bc4fa466a2aca6d8deb888d>@@$$QEAV<lambda_a6f7d7db0129f75315ebf26d50c089f1>@@@Z 00000001400257d0 f   libucrt:onexit.obj
 0001:0002480c       ??$?RV<lambda_7777bce6b2f8c936911f934f8298dc43>@@AEAV<lambda_f03950bc5685219e0bcd2087efbe011e>@@V<lambda_3883c3dff614d5e0c5f61bb1ac94921c>@@@?$__crt_seh_guarded_call@H@@QEAAH$$QEAV<lambda_7777bce6b2f8c936911f934f8298dc43>@@AEAV<lambda_f03950bc5685219e0bcd2087efbe011e>@@$$QEAV<lambda_3883c3dff614d5e0c5f61bb1ac94921c>@@@Z 000000014002580c f   libucrt:onexit.obj
 0001:00024848       ??R<lambda_22ebabd17bc4fa466a2aca6d8deb888d>@@QEBAHXZ 0000000140025848 f   libucrt:onexit.obj
 0001:000249f8       ??R<lambda_f03950bc5685219e0bcd2087efbe011e>@@QEBAHXZ 00000001400259f8 f   libucrt:onexit.obj
 0001:00024bcc       initialize_global_variables 0000000140025bcc f   libucrt:initialization.obj
 0001:00024be0       initialize_c               0000000140025be0 f   libucrt:initialization.obj
 0001:00024c04       uninitialize_environment   0000000140025c04 f   libucrt:initialization.obj
 0001:00024c14       initialize_pointers        0000000140025c14 f   libucrt:initialization.obj
 0001:00024c54       uninitialize_vcruntime     0000000140025c54 f   libucrt:initialization.obj
 0001:00024c5c       uninitialize_allocated_memory 0000000140025c5c f   libucrt:initialization.obj
 0001:00024c9c       uninitialize_allocated_io_buffers 0000000140025c9c f   libucrt:initialization.obj
 0001:00025780       $$000000                   0000000140026780     libucrt:strncmp.obj
 0001:000258f4       ?<lambda_invoker_cdecl>@<lambda_795c6bd18aed400428efeb9a5f0e1479>@@CAHPEA_W@Z 00000001400268f4 f   libucrt:winapi_thunks.obj
 0001:0002591c       ??$?RV<lambda_48fc4a32460bb0512d3b13f8499328be>@@AEAV<lambda_6c3dac0a4f3f9cefca9bb494422f9b77>@@V<lambda_0a2f2c9f9a56eb2b08bfa6ff61d331c5>@@@?$__crt_seh_guarded_call@H@@QEAAH$$QEAV<lambda_48fc4a32460bb0512d3b13f8499328be>@@AEAV<lambda_6c3dac0a4f3f9cefca9bb494422f9b77>@@$$QEAV<lambda_0a2f2c9f9a56eb2b08bfa6ff61d331c5>@@@Z 000000014002691c f   libucrt:winapi_thunks.obj
 0001:00025998       ?try_get_function@@YAPEAXW4function_id@?A0x391cf84c@@QEBDQEBW4module_id@2@2@Z 0000000140026998 f   libucrt:winapi_thunks.obj
 0001:000264d4       ?initialize_inherited_file_handles_nolock@@YAXXZ 00000001400274d4 f   libucrt:ioinit.obj
 0001:000265c4       ?initialize_stdio_handles_nolock@@YAXXZ 00000001400275c4 f   libucrt:ioinit.obj
 0001:0002674c       ??$?RV<lambda_a37b2b86f63e897a80ea819b0eb08c01>@@AEAV<lambda_38ce7e780aa69e748d6df282ebc68efe>@@V<lambda_99fb1378e971ab6e7edea83e3a7a83a2>@@@?$__crt_seh_guarded_call@H@@QEAAH$$QEAV<lambda_a37b2b86f63e897a80ea819b0eb08c01>@@AEAV<lambda_38ce7e780aa69e748d6df282ebc68efe>@@$$QEAV<lambda_99fb1378e971ab6e7edea83e3a7a83a2>@@@Z 000000014002774c f   libucrt:commit.obj
 0001:0002686c       ?write_double_translated_ansi_nolock@@YA?AUwrite_result@?A0x17268360@@HQEBDI@Z 000000014002786c f   libucrt:write.obj
 0001:00026d3c       ?write_text_ansi_nolock@@YA?AUwrite_result@?A0x17268360@@HQEBDI@Z 0000000140027d3c f   libucrt:write.obj
 0001:00026e40       ?write_text_utf16le_nolock@@YA?AUwrite_result@?A0x17268360@@HQEBDI@Z 0000000140027e40 f   libucrt:write.obj
 0001:00026f5c       ?write_text_utf8_nolock@@YA?AUwrite_result@?A0x17268360@@HQEBDI@Z 0000000140027f5c f   libucrt:write.obj
 0001:00027858       ??$?RV<lambda_0ae27a3a962d80f24befdcbee591983d>@@AEAV<lambda_8d0ee55de4b1038c4002e0adecdf1839>@@V<lambda_dc504788e8f1664fe9b84e20bfb512f2>@@@?$__crt_seh_guarded_call@X@@QEAAX$$QEAV<lambda_0ae27a3a962d80f24befdcbee591983d>@@AEAV<lambda_8d0ee55de4b1038c4002e0adecdf1839>@@$$QEAV<lambda_dc504788e8f1664fe9b84e20bfb512f2>@@@Z 0000000140028858 f   libucrt:per_thread_data.obj
 0001:00027898       ??$?RV<lambda_2d41944a1d46af3157314b8a01080d33>@@AEAV<lambda_8f455de75cd7d7f24b4096f044d8b9e6>@@V<lambda_aa500f224e6afead328df44964fe2772>@@@?$__crt_seh_guarded_call@X@@QEAAX$$QEAV<lambda_2d41944a1d46af3157314b8a01080d33>@@AEAV<lambda_8f455de75cd7d7f24b4096f044d8b9e6>@@$$QEAV<lambda_aa500f224e6afead328df44964fe2772>@@@Z 0000000140028898 f   libucrt:per_thread_data.obj
 0001:000278d8       ??$?RV<lambda_aa87e3671a710a21b5dc78c0bdf72e11>@@AEAV<lambda_92619d2358a28f41a33ba319515a20b9>@@V<lambda_6992ecaafeb10aed2b74cb1fae11a551>@@@?$__crt_seh_guarded_call@X@@QEAAX$$QEAV<lambda_aa87e3671a710a21b5dc78c0bdf72e11>@@AEAV<lambda_92619d2358a28f41a33ba319515a20b9>@@$$QEAV<lambda_6992ecaafeb10aed2b74cb1fae11a551>@@@Z 00000001400288d8 f   libucrt:per_thread_data.obj
 0001:00027920       ??$?RV<lambda_f2e299630e499de9f9a165e60fcd3db5>@@AEAV<lambda_2ae9d31cdba2644fcbeaf08da7c24588>@@V<lambda_40d01ff24d0e7b3814fdbdcee8eab3c7>@@@?$__crt_seh_guarded_call@X@@QEAAX$$QEAV<lambda_f2e299630e499de9f9a165e60fcd3db5>@@AEAV<lambda_2ae9d31cdba2644fcbeaf08da7c24588>@@$$QEAV<lambda_40d01ff24d0e7b3814fdbdcee8eab3c7>@@@Z 0000000140028920 f   libucrt:per_thread_data.obj
 0001:00027980       ?construct_ptd_array@@YAXQEAU__acrt_ptd@@@Z 0000000140028980 f   libucrt:per_thread_data.obj
 0001:00027a50       ?destroy_fls@@YAXPEAX@Z    0000000140028a50 f   libucrt:per_thread_data.obj
 0001:00027a70       ?destroy_ptd_array@@YAXQEAU__acrt_ptd@@@Z 0000000140028a70 f   libucrt:per_thread_data.obj
 0001:00027b68       ?replace_current_thread_locale_nolock@@YAXQEAU__acrt_ptd@@QEAU__crt_locale_data@@@Z 0000000140028b68 f   libucrt:per_thread_data.obj
 0001:00027ee0       ?fp_format_a@@YAHQEBNPEAD_KQEAD2H_NIQEAU__crt_locale_pointers@@@Z 0000000140028ee0 f   libucrt:cvt.obj
 0001:00028250       ?fp_format_e@@YAHQEBNQEAD_K12H_NIQEAU__crt_locale_pointers@@@Z 0000000140029250 f   libucrt:cvt.obj
 0001:0002832c       ?fp_format_e_internal@@YAHQEAD_KH_NIQEAU_strflt@@2QEAU__crt_locale_pointers@@@Z 000000014002932c f   libucrt:cvt.obj
 0001:00028500       ?fp_format_f_internal@@YAHQEAD_KHQEAU_strflt@@_NQEAU__crt_locale_pointers@@@Z 0000000140029500 f   libucrt:cvt.obj
 0001:00028644       ?fp_format_g@@YAHQEBNQEAD_K12H_NIQEAU__crt_locale_pointers@@@Z 0000000140029644 f   libucrt:cvt.obj
 0001:00029268       ??$?RV<lambda_751a882b2c74d4b022dec766aa51a29a>@@AEAV<lambda_628dfdc04ba53c8bfc02c9951375f3f5>@@V<lambda_f6c7be5f7998530c34de24c7437d6b54>@@@?$__crt_seh_guarded_call@H@@QEAAH$$QEAV<lambda_751a882b2c74d4b022dec766aa51a29a>@@AEAV<lambda_628dfdc04ba53c8bfc02c9951375f3f5>@@$$QEAV<lambda_f6c7be5f7998530c34de24c7437d6b54>@@@Z 000000014002a268 f   libucrt:close.obj
 0001:000294b4       ?find_or_allocate_unused_stream_nolock@@YA?AV__crt_stdio_stream@@XZ 000000014002a4b4 f   libucrt:stream.obj
 0001:000298fc       ??$translate_text_mode_nolock@D@@YAHHQEAD_K@Z 000000014002a8fc f   libucrt:read.obj
 0001:00029abc       ??$translate_text_mode_nolock@_W@@YAHHQEA_W_K@Z 000000014002aabc f   libucrt:read.obj
 0001:00029d38       ?translate_ansi_or_utf8_nolock@@YAHHQEAD_KQEA_W1@Z 000000014002ad38 f   libucrt:read.obj
 0001:0002a5b4       ??$common_ftell_nolock@_J@@YA_JV__crt_stdio_stream@@@Z 000000014002b5b4 f   libucrt:ftell.obj
 0001:0002a6e4       ?common_ftell_read_mode_nolock@@YA_JV__crt_stdio_stream@@_J1@Z 000000014002b6e4 f   libucrt:ftell.obj
 0001:0002a830       ?common_ftell_translated_utf8_nolock@@YA_JV__crt_stdio_stream@@_J@Z 000000014002b830 f   libucrt:ftell.obj
 0001:0002a9ac       ?count_newline_bytes@@YA_JQEBD0W4__crt_lowio_text_mode@@@Z 000000014002b9ac f   libucrt:ftell.obj
 0001:0002aa38       ??$common_lseek@_J@@YA_JH_JH@Z 000000014002ba38 f   libucrt:lseek.obj
 0001:0002ab28       ??$common_lseek_nolock@_J@@YA_JH_JH@Z 000000014002bb28 f   libucrt:lseek.obj
 0001:0002abd4       ??$write_buffer_nolock@D@@YA_NDV__crt_stdio_stream@@@Z 000000014002bbd4 f   libucrt:_flsbuf.obj
 0001:0002acb8       ?stream_is_at_end_of_file_nolock@@YA_NV__crt_stdio_stream@@@Z 000000014002bcb8 f   libucrt:_flsbuf.obj
 0001:0002b9d0       $$000000                   000000014002c9d0     libucrt:remainder_piby2_forasm.obj
 0001:0002bd20       $$000000                   000000014002cd20     libucrt:remainder_piby2_forfma3.obj
 0001:0002bfb0       _sincos_special            000000014002cfb0 f   libucrt:sincos_special.obj
 0001:0002c310       ?_mbstowcs_l_helper@@YA_KPEA_WPEBD_KPEAU__crt_locale_pointers@@@Z 000000014002d310 f   libucrt:mbstowcs.obj
 0001:0002c664       ?_wcstombs_l_helper@@YA_KPEADPEB_W_KPEAU__crt_locale_pointers@@@Z 000000014002d664 f   libucrt:wcstombs.obj
 0001:0002cab8       ?InternalGetLocaleInfoA@@YAHQEAU__crt_locale_pointers@@QEB_WKQEADH@Z 000000014002dab8 f   libucrt:getlocaleinfoa.obj
 0001:0002cf8c       ?__acrt_LCMapStringA_stat@@YAHPEAU__crt_locale_pointers@@PEB_WKPEBDHPEADHHH@Z 000000014002df8c f   libucrt:lcmapstringa.obj
 0001:0002d3c0       ??$?RV<lambda_450d765d439847d4c735a33c368b5fc0>@@AEAV<lambda_44731a7d0e6d81c3e6aa82d741081786>@@V<lambda_601a2a7da3b7a96e9554ac7215c4b07c>@@@?$__crt_seh_guarded_call@P6AXH@Z@@QEAAP6AXH@Z$$QEAV<lambda_450d765d439847d4c735a33c368b5fc0>@@AEAV<lambda_44731a7d0e6d81c3e6aa82d741081786>@@$$QEAV<lambda_601a2a7da3b7a96e9554ac7215c4b07c>@@@Z 000000014002e3c0 f   libucrt:signal.obj
 0001:0002db5c       ?<lambda_invoker_cdecl>@<lambda_a1ce4c8ae42411fd470c77163914f50e>@@CAHPEBX0@Z 000000014002eb5c f   libucrt:argv_wildcards.obj
 0001:0002dcfc       ??$common_expand_argv_wildcards@D@@YAHQEAPEADQEAPEAPEAD@Z 000000014002ecfc f   libucrt:argv_wildcards.obj
 0001:0002df08       ??$copy_and_add_argument_to_buffer@D@@YAHQEBD0_KAEAV?$argument_list@D@?A0x5f5c8891@@@Z 000000014002ef08 f   libucrt:argv_wildcards.obj
 0001:0002e090       ??$expand_argument_wildcards@D@@YAHQEAD0AEAV?$argument_list@D@?A0x5f5c8891@@@Z 000000014002f090 f   libucrt:argv_wildcards.obj
 0001:0002e4c8       ??$?RV<lambda_efdfa57d1f175319df784efa44bb7b81>@@AEAV<lambda_5f0a4c1567f8adc6734073e5d1e1b35c>@@V<lambda_2e8a7d3640ea6ccb4c2413664c2db6fd>@@@?$__crt_seh_guarded_call@X@@QEAAX$$QEAV<lambda_efdfa57d1f175319df784efa44bb7b81>@@AEAV<lambda_5f0a4c1567f8adc6734073e5d1e1b35c>@@$$QEAV<lambda_2e8a7d3640ea6ccb4c2413664c2db6fd>@@@Z 000000014002f4c8 f   libucrt:mbctype.obj
 0001:0002e684       ?getSystemCP@@YAHH@Z       000000014002f684 f   libucrt:mbctype.obj
 0001:0002e704       ?setSBCS@@YAXPEAU__crt_multibyte_data@@@Z 000000014002f704 f   libucrt:mbctype.obj
 0001:0002e794       ?setSBUpLow@@YAXPEAU__crt_multibyte_data@@@Z 000000014002f794 f   libucrt:mbctype.obj
 0001:0002e978       ?setmbcp_internal@@YAHH_NQEAU__acrt_ptd@@QEAPEAU__crt_multibyte_data@@@Z 000000014002f978 f   libucrt:mbctype.obj
 0001:0002eb3c       ?update_thread_multibyte_data_internal@@YAPEAU__crt_multibyte_data@@QEAU__acrt_ptd@@QEAPEAU1@@Z 000000014002fb3c f   libucrt:mbctype.obj
 0001:0002ef2c       ?x_ismbbtype_l@@YAHPEAU__crt_locale_pointers@@IHH@Z 000000014002ff2c f   libucrt:ismbbyte.obj
 0001:0002f0bc       ??$common_set_variable_in_environment_nolock@D@@YAHQEADH@Z 00000001400300bc f   libucrt:setenv.obj
 0001:0002f3dc       ??$copy_environment@D@@YAPEAPEADQEAPEAD@Z 00000001400303dc f   libucrt:setenv.obj
 0001:0002fe9c       ?free_crt_array_internal@@YAXQEAPEBX_K@Z 0000000140030e9c f   libucrt:inittime.obj
 0001:0002fef4       ?initialize_lc_time@@YA_NQEAU__crt_lc_time_data@@QEAU__crt_locale_data@@@Z 0000000140030ef4 f   libucrt:inittime.obj
 0001:00030954       GetLocaleNameFromDefault   0000000140031954 f   libucrt:get_qualified_locale.obj
 0001:000309fc       GetLocaleNameFromLangCountry 00000001400319fc f   libucrt:get_qualified_locale.obj
 0001:00030acc       GetLocaleNameFromLanguage  0000000140031acc f   libucrt:get_qualified_locale.obj
 0001:00030b64       LangCountryEnumProcEx      0000000140031b64 f   libucrt:get_qualified_locale.obj
 0001:00030e50       LanguageEnumProcEx         0000000140031e50 f   libucrt:get_qualified_locale.obj
 0001:00030f3c       ProcessCodePage            0000000140031f3c f   libucrt:get_qualified_locale.obj
 0001:00031008       TestDefaultCountry         0000000140032008 f   libucrt:get_qualified_locale.obj
 0001:0003106c       TranslateName              000000014003206c f   libucrt:get_qualified_locale.obj
 0001:0003136c       CountryEnumProc            000000014003236c f   libucrt:getqloc_downlevel.obj
 0001:00031454       GetLcidFromLangCountry     0000000140032454 f   libucrt:getqloc_downlevel.obj
 0001:00031524       GetLcidFromLanguage        0000000140032524 f   libucrt:getqloc_downlevel.obj
 0001:000315bc       LangCountryEnumProc        00000001400325bc f   libucrt:getqloc_downlevel.obj
 0001:00031808       LanguageEnumProc           0000000140032808 f   libucrt:getqloc_downlevel.obj
 0001:00031910       LcidFromHexString          0000000140032910 f   libucrt:getqloc_downlevel.obj
 0001:00031960       ProcessCodePage            0000000140032960 f   libucrt:getqloc_downlevel.obj
 0001:00031a10       TestDefaultLanguage        0000000140032a10 f   libucrt:getqloc_downlevel.obj
 0001:00031abc       TranslateName              0000000140032abc f   libucrt:getqloc_downlevel.obj
 0001:00033d58       ??$common_sopen_dispatch@D@@YAHQEBDHHHQEAHH@Z 0000000140034d58 f   libucrt:open.obj
 0001:00033e1c       ?configure_text_mode@@YAHHUfile_options@?A0xa9d50aae@@HAEAW4__crt_lowio_text_mode@@@Z 0000000140034e1c f   libucrt:open.obj
 0001:000340b0       ?decode_options@@YA?AUfile_options@?A0xa9d50aae@@HHH@Z 00000001400350b0 f   libucrt:open.obj
 0001:000342bc       ?truncate_ctrl_z_if_present@@YAHH@Z 00000001400352bc f   libucrt:open.obj
 0001:00034920       $$000000                   0000000140035920     libucrt:fpsr.obj
 0001:00034980       _call_matherr              0000000140035980 f   libucrt:libm_error.obj
 0001:000349e8       _exception_enabled         00000001400359e8 f   libucrt:libm_error.obj
 0001:00035390       fallbackMethod             0000000140036390 f   libucrt:strpbrk.obj
 0001:00035754       $LN78                      0000000140036754     libucrt:strpbrk.obj
 0001:00035790       $LN77                      0000000140036790     libucrt:strpbrk.obj
 0001:000357d0       $LN76                      00000001400367d0     libucrt:strpbrk.obj
 0001:000358ac       ?initialize_multibyte@@YAHXZ 00000001400368ac f   libucrt:multibyte_initializer.obj
 0001:00035b74       ??$common_xtox@K_W@@YAHKQEA_W_KI_N@Z 0000000140036b74 f   libucrt:xtoa.obj
 0001:00035c48       ??$common_xtox_s@K_W@@YAHKQEA_W_KI_N@Z 0000000140036c48 f   libucrt:xtoa.obj
 0001:000361e0       $$000000                   00000001400371e0     libucrt:log10.obj
 0001:00036a28       ?InternalCompareStringA@@YAHPEAU__crt_locale_pointers@@PEB_WKPEBDH2HH@Z 0000000140037a28 f   libucrt:comparestringa.obj
 0001:00036eb0       _log_special_common        0000000140037eb0 f   libucrt:log_special.obj
 0001:000372e0       $$000000                   00000001400382e0     LIBCMT:guard_dispatch.obj
 0001:00037300       ?dtor$0@?0??detectBPM@@YAXPEAVWavInFile@@PEAVRunParameters@@@Z@4HA 0000000140038300 f   main.obj
 0001:00037310       ?dtor$0@?0??openFiles@@YAXPEAPEAVWavInFile@@PEAPEAVWavOutFile@@PEBVRunParameters@@@Z@4HA 0000000140038310 f   main.obj
 0001:00037310       ?dtor$1@?0??openFiles@@YAXPEAPEAVWavInFile@@PEAPEAVWavOutFile@@PEBVRunParameters@@@Z@4HA 0000000140038310 f   main.obj
 0001:00037310       ?dtor$2@?0??openFiles@@YAXPEAPEAVWavInFile@@PEAPEAVWavOutFile@@PEBVRunParameters@@@Z@4HA 0000000140038310 f   main.obj
 0001:00037310       ?dtor$3@?0??openFiles@@YAXPEAPEAVWavInFile@@PEAPEAVWavOutFile@@PEBVRunParameters@@@Z@4HA 0000000140038310 f   main.obj
 0001:00037330       main$dtor$0                0000000140038330 f   main.obj
 0001:00037340       main$dtor$1                0000000140038340 f   main.obj
 0001:00037360       main$catch$2               0000000140038360 f   main.obj
 0001:0003736e       __catch$main$0             000000014003836e f   main.obj
 0001:000373b0       ?dtor$0@?0???0RunParameters@@QEAA@HQEBQEBD@Z@4HA 00000001400383b0 f   RunParameters.obj
 0001:000373b0       ?dtor$1@?0???0WavInFile@@QEAA@PEAU_iobuf@@@Z@4HA 00000001400383b0 f   WavFile.obj
 0001:000373b0       ?dtor$1@?0???0WavInFile@@QEAA@PEBD@Z@4HA 00000001400383b0 f   WavFile.obj
 0001:000373b0       ?dtor$1@?0???0WavOutFile@@QEAA@PEAU_iobuf@@HHH@Z@4HA 00000001400383b0 f   WavFile.obj
 0001:000373b0       ?dtor$1@?0???0WavOutFile@@QEAA@PEBDHHH@Z@4HA 00000001400383b0 f   WavFile.obj
 0001:000373c0       ?dtor$1@?0???0RunParameters@@QEAA@HQEBQEBD@Z@4HA 00000001400383c0 f   RunParameters.obj
 0001:000373d0       ?catch$0@?0??parseSwitchParam@RunParameters@@AEAAXAEBV?$basic_string@DU?$char_traits@D@std@@V?$allocator@D@2@@std@@@Z@4HA 00000001400383d0 f   RunParameters.obj
 0001:000373dd       __catch$?parseSwitchParam@RunParameters@@AEAAXAEBV?$basic_string@DU?$char_traits@D@std@@V?$allocator@D@2@@std@@@Z$0 00000001400383dd f   RunParameters.obj
 0001:00037400       ?dtor$0@?0??throwIllegalParamExp@RunParameters@@AEBAXAEBV?$basic_string@DU?$char_traits@D@std@@V?$allocator@D@2@@std@@@Z@4HA 0000000140038400 f   RunParameters.obj
 0001:00037410       ?dtor$0@?0???$?6U?$char_traits@D@std@@@std@@YAAEAV?$basic_ostream@DU?$char_traits@D@std@@@0@AEAV10@PEBD@Z@4HA 0000000140038410 f   WavFile.obj
 0001:00037410       ?dtor$1@?0???0sentry@?$basic_ostream@DU?$char_traits@D@std@@@std@@QEAA@AEAV12@@Z@4HA 0000000140038410 f   WavFile.obj
 0001:00037420       ?catch$3@?0???$?6U?$char_traits@D@std@@@std@@YAAEAV?$basic_ostream@DU?$char_traits@D@std@@@0@AEAV10@PEBD@Z@4HA 0000000140038420 f   WavFile.obj
 0001:0003742d       __catch$??$?6U?$char_traits@D@std@@@std@@YAAEAV?$basic_ostream@DU?$char_traits@D@std@@@0@AEAV10@PEBD@Z$0 000000014003842d f   WavFile.obj
 0001:00037480       ?dtor$0@?0???$use_facet@V?$ctype@D@std@@@std@@YAAEBV?$ctype@D@0@AEBVlocale@0@@Z@4HA 0000000140038480 f   WavFile.obj
 0001:00037480       ?dtor$0@?0???$use_facet@V?$numpunct@D@std@@@std@@YAAEBV?$numpunct@D@0@AEBVlocale@0@@Z@4HA 0000000140038480 f   WavFile.obj
 0001:00037490       ?dtor$1@?0???$use_facet@V?$ctype@D@std@@@std@@YAAEBV?$ctype@D@0@AEBVlocale@0@@Z@4HA 0000000140038490 f   WavFile.obj
 0001:00037490       ?dtor$1@?0???$use_facet@V?$numpunct@D@std@@@std@@YAAEBV?$numpunct@D@0@AEBVlocale@0@@Z@4HA 0000000140038490 f   WavFile.obj
 0001:000374a0       ?dtor$0@?0???0?$basic_istream@DU?$char_traits@D@std@@@std@@QEAA@PEAV?$basic_streambuf@DU?$char_traits@D@std@@@1@_N@Z@4HA 00000001400384a0 f   WavFile.obj
 0001:000374e0       ?dtor$2@?0???0?$basic_istream@DU?$char_traits@D@std@@@std@@QEAA@PEAV?$basic_streambuf@DU?$char_traits@D@std@@@1@_N@Z@4HA 00000001400384e0 f   WavFile.obj
 0001:000374f0       ?dtor$0@?0???0?$basic_stringstream@DU?$char_traits@D@std@@V?$allocator@D@2@@std@@QEAA@H@Z@4HA 00000001400384f0 f   WavFile.obj
 0001:00037520       ?dtor$1@?0???0?$basic_stringstream@DU?$char_traits@D@std@@V?$allocator@D@2@@std@@QEAA@H@Z@4HA 0000000140038520 f   WavFile.obj
 0001:00037530       ?dtor$4@?0???0?$basic_stringstream@DU?$char_traits@D@std@@V?$allocator@D@2@@std@@QEAA@H@Z@4HA 0000000140038530 f   WavFile.obj
 0001:00037540       ?dtor$0@?0???0WavInFile@@QEAA@PEAU_iobuf@@@Z@4HA 0000000140038540 f   WavFile.obj
 0001:00037540       ?dtor$0@?0???0WavInFile@@QEAA@PEBD@Z@4HA 0000000140038540 f   WavFile.obj
 0001:00037540       ?dtor$0@?0???0WavOutFile@@QEAA@PEAU_iobuf@@HHH@Z@4HA 0000000140038540 f   WavFile.obj
 0001:00037540       ?dtor$0@?0???0WavOutFile@@QEAA@PEBDHHH@Z@4HA 0000000140038540 f   WavFile.obj
 0001:00037550       ?dtor$3@?0???0_System_error@std@@IEAA@Verror_code@1@AEBV?$basic_string@DU?$char_traits@D@std@@V?$allocator@D@2@@1@@Z@4HA 0000000140038550 f   WavFile.obj
 0001:00037560       ?dtor$0@?0??do_put@?$num_put@DV?$ostreambuf_iterator@DU?$char_traits@D@std@@@std@@@std@@MEBA?AV?$ostreambuf_iterator@DU?$char_traits@D@std@@@2@V32@AEAVios_base@2@DN@Z@4HA 0000000140038560 f   WavFile.obj
 0001:00037560       ?dtor$0@?0??do_put@?$num_put@DV?$ostreambuf_iterator@DU?$char_traits@D@std@@@std@@@std@@MEBA?AV?$ostreambuf_iterator@DU?$char_traits@D@std@@@2@V32@AEAVios_base@2@DO@Z@4HA 0000000140038560 f   WavFile.obj
 0001:00037560       ?dtor$4@?0???0_System_error@std@@IEAA@Verror_code@1@AEBV?$basic_string@DU?$char_traits@D@std@@V?$allocator@D@2@@1@@Z@4HA 0000000140038560 f   WavFile.obj
 0001:00037570       ?dtor$1@?0???0failure@ios_base@std@@QEAA@PEBDAEBVerror_code@2@@Z@4HA 0000000140038570 f   WavFile.obj
 0001:00037580       ?dtor$0@?0???0sentry@?$basic_ostream@DU?$char_traits@D@std@@@std@@QEAA@AEAV12@@Z@4HA 0000000140038580 f   WavFile.obj
 0001:00037590       ?dtor$0@?0???6?$basic_ostream@DU?$char_traits@D@std@@@std@@QEAAAEAV01@H@Z@4HA 0000000140038590 f   WavFile.obj
 0001:000375a0       ?dtor$0@?0??_Fput@?$num_put@DV?$ostreambuf_iterator@DU?$char_traits@D@std@@@std@@@std@@AEBA?AV?$ostreambuf_iterator@DU?$char_traits@D@std@@@2@V32@AEAVios_base@2@DPEBD_K@Z@4HA 00000001400385a0 f   WavFile.obj
 0001:000375a0       ?dtor$1@?0???6?$basic_ostream@DU?$char_traits@D@std@@@std@@QEAAAEAV01@H@Z@4HA 00000001400385a0 f   WavFile.obj
 0001:000375a0       ?dtor$2@?0??_Fput@?$num_put@DV?$ostreambuf_iterator@DU?$char_traits@D@std@@@std@@@std@@AEBA?AV?$ostreambuf_iterator@DU?$char_traits@D@std@@@2@V32@AEAVios_base@2@DPEBD_K@Z@4HA 00000001400385a0 f   WavFile.obj
 0001:000375b0       ?dtor$2@?0???6?$basic_ostream@DU?$char_traits@D@std@@@std@@QEAAAEAV01@H@Z@4HA 00000001400385b0 f   WavFile.obj
 0001:000375c0       ?dtor$3@?0???6?$basic_ostream@DU?$char_traits@D@std@@@std@@QEAAAEAV01@H@Z@4HA 00000001400385c0 f   WavFile.obj
 0001:000375d0       ?catch$6@?0???6?$basic_ostream@DU?$char_traits@D@std@@@std@@QEAAAEAV01@H@Z@4HA 00000001400385d0 f   WavFile.obj
 0001:000375dd       __catch$??6?$basic_ostream@DU?$char_traits@D@std@@@std@@QEAAAEAV01@H@Z$0 00000001400385dd f   WavFile.obj
 0001:00037630       ?dtor$1@?0??_Fput@?$num_put@DV?$ostreambuf_iterator@DU?$char_traits@D@std@@@std@@@std@@AEBA?AV?$ostreambuf_iterator@DU?$char_traits@D@std@@@2@V32@AEAVios_base@2@DPEBD_K@Z@4HA 0000000140038630 f   WavFile.obj
 0001:00037630       ?dtor$1@?0??do_put@?$num_put@DV?$ostreambuf_iterator@DU?$char_traits@D@std@@@std@@@std@@MEBA?AV?$ostreambuf_iterator@DU?$char_traits@D@std@@@2@V32@AEAVios_base@2@D_N@Z@4HA 0000000140038630 f   WavFile.obj
 0001:00037640       ?dtor$3@?0??_Fput@?$num_put@DV?$ostreambuf_iterator@DU?$char_traits@D@std@@@std@@@std@@AEBA?AV?$ostreambuf_iterator@DU?$char_traits@D@std@@@2@V32@AEAVios_base@2@DPEBD_K@Z@4HA 0000000140038640 f   WavFile.obj
 0001:00037650       ?dtor$0@?0??_Getcat@?$ctype@D@std@@SA_KPEAPEBVfacet@locale@2@PEBV42@@Z@4HA 0000000140038650 f   WavFile.obj
 0001:00037670       ?dtor$2@?0??_Getcat@?$ctype@D@std@@SA_KPEAPEBVfacet@locale@2@PEBV42@@Z@4HA 0000000140038670 f   WavFile.obj
 0001:00037670       ?dtor$2@?0??_Getcat@?$num_put@DV?$ostreambuf_iterator@DU?$char_traits@D@std@@@std@@@std@@SA_KPEAPEBVfacet@locale@2@PEBV42@@Z@4HA 0000000140038670 f   WavFile.obj
 0001:00037670       ?dtor$2@?0??_Getcat@?$numpunct@D@std@@SA_KPEAPEBVfacet@locale@2@PEBV42@@Z@4HA 0000000140038670 f   WavFile.obj
 0001:00037680       ?dtor$3@?0??_Getcat@?$ctype@D@std@@SA_KPEAPEBVfacet@locale@2@PEBV42@@Z@4HA 0000000140038680 f   WavFile.obj
 0001:00037680       ?dtor$3@?0??_Getcat@?$num_put@DV?$ostreambuf_iterator@DU?$char_traits@D@std@@@std@@@std@@SA_KPEAPEBVfacet@locale@2@PEBV42@@Z@4HA 0000000140038680 f   WavFile.obj
 0001:00037680       ?dtor$3@?0??_Getcat@?$numpunct@D@std@@SA_KPEAPEBVfacet@locale@2@PEBV42@@Z@4HA 0000000140038680 f   WavFile.obj
 0001:00037690       ?dtor$4@?0??_Getcat@?$ctype@D@std@@SA_KPEAPEBVfacet@locale@2@PEBV42@@Z@4HA 0000000140038690 f   WavFile.obj
 0001:00037690       ?dtor$4@?0??_Getcat@?$num_put@DV?$ostreambuf_iterator@DU?$char_traits@D@std@@@std@@@std@@SA_KPEAPEBVfacet@locale@2@PEBV42@@Z@4HA 0000000140038690 f   WavFile.obj
 0001:00037690       ?dtor$4@?0??_Getcat@?$numpunct@D@std@@SA_KPEAPEBVfacet@locale@2@PEBV42@@Z@4HA 0000000140038690 f   WavFile.obj
 0001:000376a0       ?dtor$5@?0??_Getcat@?$ctype@D@std@@SA_KPEAPEBVfacet@locale@2@PEBV42@@Z@4HA 00000001400386a0 f   WavFile.obj
 0001:000376a0       ?dtor$5@?0??_Getcat@?$num_put@DV?$ostreambuf_iterator@DU?$char_traits@D@std@@@std@@@std@@SA_KPEAPEBVfacet@locale@2@PEBV42@@Z@4HA 00000001400386a0 f   WavFile.obj
 0001:000376a0       ?dtor$5@?0??_Getcat@?$numpunct@D@std@@SA_KPEAPEBVfacet@locale@2@PEBV42@@Z@4HA 00000001400386a0 f   WavFile.obj
 0001:000376b0       ?dtor$6@?0??_Getcat@?$ctype@D@std@@SA_KPEAPEBVfacet@locale@2@PEBV42@@Z@4HA 00000001400386b0 f   WavFile.obj
 0001:000376b0       ?dtor$6@?0??_Getcat@?$num_put@DV?$ostreambuf_iterator@DU?$char_traits@D@std@@@std@@@std@@SA_KPEAPEBVfacet@locale@2@PEBV42@@Z@4HA 00000001400386b0 f   WavFile.obj
 0001:000376b0       ?dtor$6@?0??_Getcat@?$numpunct@D@std@@SA_KPEAPEBVfacet@locale@2@PEBV42@@Z@4HA 00000001400386b0 f   WavFile.obj
 0001:000376c0       ?dtor$7@?0??_Getcat@?$ctype@D@std@@SA_KPEAPEBVfacet@locale@2@PEBV42@@Z@4HA 00000001400386c0 f   WavFile.obj
 0001:000376c0       ?dtor$7@?0??_Getcat@?$num_put@DV?$ostreambuf_iterator@DU?$char_traits@D@std@@@std@@@std@@SA_KPEAPEBVfacet@locale@2@PEBV42@@Z@4HA 00000001400386c0 f   WavFile.obj
 0001:000376c0       ?dtor$7@?0??_Getcat@?$numpunct@D@std@@SA_KPEAPEBVfacet@locale@2@PEBV42@@Z@4HA 00000001400386c0 f   WavFile.obj
 0001:000376d0       ?dtor$8@?0??_Getcat@?$ctype@D@std@@SA_KPEAPEBVfacet@locale@2@PEBV42@@Z@4HA 00000001400386d0 f   WavFile.obj
 0001:000376d0       ?dtor$8@?0??_Getcat@?$num_put@DV?$ostreambuf_iterator@DU?$char_traits@D@std@@@std@@@std@@SA_KPEAPEBVfacet@locale@2@PEBV42@@Z@4HA 00000001400386d0 f   WavFile.obj
 0001:000376d0       ?dtor$8@?0??_Getcat@?$numpunct@D@std@@SA_KPEAPEBVfacet@locale@2@PEBV42@@Z@4HA 00000001400386d0 f   WavFile.obj
 0001:000376e0       ?dtor$0@?0??_Getcat@?$num_put@DV?$ostreambuf_iterator@DU?$char_traits@D@std@@@std@@@std@@SA_KPEAPEBVfacet@locale@2@PEBV42@@Z@4HA 00000001400386e0 f   WavFile.obj
 0001:00037700       ?dtor$0@?0??_Getcat@?$numpunct@D@std@@SA_KPEAPEBVfacet@locale@2@PEBV42@@Z@4HA 0000000140038700 f   WavFile.obj
 0001:00037720       ?dtor$1@?0??_Getcat@?$numpunct@D@std@@SA_KPEAPEBVfacet@locale@2@PEBV42@@Z@4HA 0000000140038720 f   WavFile.obj
 0001:00037750       ?dtor$9@?0??_Getcat@?$numpunct@D@std@@SA_KPEAPEBVfacet@locale@2@PEBV42@@Z@4HA 0000000140038750 f   WavFile.obj
 0001:00037760       ?dtor$10@?0??_Getcat@?$numpunct@D@std@@SA_KPEAPEBVfacet@locale@2@PEBV42@@Z@4HA 0000000140038760 f   WavFile.obj
 0001:00037770       ?dtor$0@?0??_Iput@?$num_put@DV?$ostreambuf_iterator@DU?$char_traits@D@std@@@std@@@std@@AEBA?AV?$ostreambuf_iterator@DU?$char_traits@D@std@@@2@V32@AEAVios_base@2@DPEAD_K@Z@4HA 0000000140038770 f   WavFile.obj
 0001:00037770       ?dtor$2@?0??_Iput@?$num_put@DV?$ostreambuf_iterator@DU?$char_traits@D@std@@@std@@@std@@AEBA?AV?$ostreambuf_iterator@DU?$char_traits@D@std@@@2@V32@AEAVios_base@2@DPEAD_K@Z@4HA 0000000140038770 f   WavFile.obj
 0001:00037780       ?dtor$1@?0??_Iput@?$num_put@DV?$ostreambuf_iterator@DU?$char_traits@D@std@@@std@@@std@@AEBA?AV?$ostreambuf_iterator@DU?$char_traits@D@std@@@2@V32@AEAVios_base@2@DPEAD_K@Z@4HA 0000000140038780 f   WavFile.obj
 0001:00037790       ?dtor$3@?0??_Iput@?$num_put@DV?$ostreambuf_iterator@DU?$char_traits@D@std@@@std@@@std@@AEBA?AV?$ostreambuf_iterator@DU?$char_traits@D@std@@@2@V32@AEAVios_base@2@DPEAD_K@Z@4HA 0000000140038790 f   WavFile.obj
 0001:000377a0       ?catch$0@?0??_Osfx@?$basic_ostream@DU?$char_traits@D@std@@@std@@QEAAXXZ@4HA 00000001400387a0 f   WavFile.obj
 0001:000377ad       __catch$?_Osfx@?$basic_ostream@DU?$char_traits@D@std@@@std@@QEAAXXZ$0 00000001400387ad f   WavFile.obj
 0001:000377c0       ?dtor$0@?0??do_put@?$num_put@DV?$ostreambuf_iterator@DU?$char_traits@D@std@@@std@@@std@@MEBA?AV?$ostreambuf_iterator@DU?$char_traits@D@std@@@2@V32@AEAVios_base@2@D_N@Z@4HA 00000001400387c0 f   WavFile.obj
 0001:000377d0       ?dtor$0@?0??read@WavInFile@@QEAAHPEAMH@Z@4HA 00000001400387d0 f   WavFile.obj
 0001:000377e0       ?dtor$1@?0??read@WavInFile@@QEAAHPEAMH@Z@4HA 00000001400387e0 f   WavFile.obj
 0001:000377f0       ?dtor$1@?0??str@?$basic_stringstream@DU?$char_traits@D@std@@V?$allocator@D@2@@std@@QEBA?AV?$basic_string@DU?$char_traits@D@std@@V?$allocator@D@2@@2@XZ@4HA 00000001400387f0 f   WavFile.obj
 0001:00037820       ?dtor$0@?0???0RateTransposer@soundtouch@@QEAA@XZ@4HA 0000000140038820 f   SoundTouch_x64:RateTransposer.obj
 0001:00037820       ?dtor$0@?0???0SoundTouch@soundtouch@@QEAA@XZ@4HA 0000000140038820 f   SoundTouch_x64:SoundTouch.obj
 0001:00037820       ?dtor$0@?0???0TDStretch@soundtouch@@QEAA@XZ@4HA 0000000140038820 f   SoundTouch_x64:TDStretch.obj
 0001:00037830       ?dtor$1@?0???0SoundTouch@soundtouch@@QEAA@XZ@4HA 0000000140038830 f   SoundTouch_x64:SoundTouch.obj
 0001:00037850       ?catch$0@?0???$_Emplace_reallocate@AEBUBEAT@soundtouch@@@?$vector@UBEAT@soundtouch@@V?$allocator@UBEAT@soundtouch@@@std@@@std@@QEAAPEAUBEAT@soundtouch@@QEAU23@AEBU23@@Z@4HA 0000000140038850 f   SoundTouch_x64:BPMDetect.obj
 0001:0003785d       __catch$??$_Emplace_reallocate@AEBUBEAT@soundtouch@@@?$vector@UBEAT@soundtouch@@V?$allocator@UBEAT@soundtouch@@@std@@@std@@QEAAPEAUBEAT@soundtouch@@QEAU23@AEBU23@@Z$0 000000014003885d f   SoundTouch_x64:BPMDetect.obj
 0001:00037880       ?dtor$0@?0???0BPMDetect@soundtouch@@QEAA@HH@Z@4HA 0000000140038880 f   SoundTouch_x64:BPMDetect.obj
 0001:00037890       ?dtor$1@?0???0BPMDetect@soundtouch@@QEAA@HH@Z@4HA 0000000140038890 f   SoundTouch_x64:BPMDetect.obj
 0001:000378b0       ?catch$0@?0??_Reallocate_exactly@?$vector@UBEAT@soundtouch@@V?$allocator@UBEAT@soundtouch@@@std@@@std@@AEAAX_K@Z@4HA 00000001400388b0 f   SoundTouch_x64:BPMDetect.obj
 0001:000378bd       __catch$?_Reallocate_exactly@?$vector@UBEAT@soundtouch@@V?$allocator@UBEAT@soundtouch@@@std@@@std@@AEAAX_K@Z$0 00000001400388bd f   SoundTouch_x64:BPMDetect.obj
 0001:000378e0       ?dtor$1@?0???0RateTransposer@soundtouch@@QEAA@XZ@4HA 00000001400388e0 f   SoundTouch_x64:RateTransposer.obj
 0001:000378f0       ?dtor$2@?0???0RateTransposer@soundtouch@@QEAA@XZ@4HA 00000001400388f0 f   SoundTouch_x64:RateTransposer.obj
 0001:00037900       ?dtor$3@?0???0RateTransposer@soundtouch@@QEAA@XZ@4HA 0000000140038900 f   SoundTouch_x64:RateTransposer.obj
 0001:00037910       ?dtor$4@?0???0RateTransposer@soundtouch@@QEAA@XZ@4HA 0000000140038910 f   SoundTouch_x64:RateTransposer.obj
 0001:00037930       ?dtor$5@?0???0RateTransposer@soundtouch@@QEAA@XZ@4HA 0000000140038930 f   SoundTouch_x64:RateTransposer.obj
 0001:00037930       ?dtor$6@?0???0RateTransposer@soundtouch@@QEAA@XZ@4HA 0000000140038930 f   SoundTouch_x64:RateTransposer.obj
 0001:00037930       ?dtor$7@?0???0RateTransposer@soundtouch@@QEAA@XZ@4HA 0000000140038930 f   SoundTouch_x64:RateTransposer.obj
 0001:00037950       ?dtor$1@?0???0TDStretch@soundtouch@@QEAA@XZ@4HA 0000000140038950 f   SoundTouch_x64:TDStretch.obj
 0001:00037960       ?dtor$2@?0???0TDStretch@soundtouch@@QEAA@XZ@4HA 0000000140038960 f   SoundTouch_x64:TDStretch.obj
 0001:00037980       ?dtor$0@?0??newInstance@TDStretch@soundtouch@@SAPEAV12@XZ@4HA 0000000140038980 f   SoundTouch_x64:TDStretch.obj
 0001:00037980       ?dtor$1@?0??newInstance@TDStretch@soundtouch@@SAPEAV12@XZ@4HA 0000000140038980 f   SoundTouch_x64:TDStretch.obj
 0001:000379a0       ?dtor$0@?0???0FIFOSampleBuffer@soundtouch@@QEAA@H@Z@4HA 00000001400389a0 f   SoundTouch_x64:FIFOSampleBuffer.obj
 0001:000379b0       ?dtor$0@?0??newInstance@FIRFilter@soundtouch@@SAPEAV12@XZ@4HA 00000001400389b0 f   SoundTouch_x64:FIRFilter.obj
 0001:000379d0       ?dtor$0@?0???0InterpolateLinearFloat@soundtouch@@QEAA@XZ@4HA 00000001400389d0 f   SoundTouch_x64:InterpolateLinear.obj
 0001:000379dc       ?dtor$0@?0??_Init@locale@std@@CAPEAV_Locimp@12@_N@Z@4HA 00000001400389dc f   libcpmt:locale0.obj
 0001:000379e8       ?filt$0@?0??__scrt_common_main_seh@@YAHXZ@4HA 00000001400389e8 f   LIBCMT:exe_main.obj
 0001:00037a06       __scrt_is_nonwritable_in_current_image$filt$0 0000000140038a06 f   LIBCMT:utility.obj
 0001:00037a1e       ?filt$0@?0???$_CallSETranslator@V__FrameHandler3@@@@YAHPEAUEHExceptionRecord@@PEA_KPEAU_CONTEXT@@PEAU_xDISPATCHER_CONTEXT@@PEBU_s_FuncInfo@@K1@Z@4HA 0000000140038a1e f   libvcruntime:risctrnsctrl.obj
 0001:00037aaf       ?filt$0@?0???$_CallSETranslator@V__FrameHandler4@@@@YAHPEAUEHExceptionRecord@@PEA_KPEAU_CONTEXT@@PEAU_xDISPATCHER_CONTEXT@@PEAUFuncInfo4@FH4@@K1@Z@4HA 0000000140038aaf f   libvcruntime:risctrnsctrl.obj
 0001:00037b40       __DestructExceptionObject$filt$0 0000000140038b40 f   libvcruntime:ehhelpers.obj
 0001:00037bd6       ?filt$0@?0??CxxCallCatchBlock@__FrameHandler3@@SAPEAXPEAU_EXCEPTION_RECORD@@@Z@4HA 0000000140038bd6 f   libvcruntime:frame.obj
 0001:00037bfb       ?fin$1@?0??CxxCallCatchBlock@__FrameHandler3@@SAPEAXPEAU_EXCEPTION_RECORD@@@Z@4HA 0000000140038bfb f   libvcruntime:frame.obj
 0001:00037c73       ?filt$0@?0??CxxCallCatchBlock@__FrameHandler4@@SAPEAXPEAU_EXCEPTION_RECORD@@@Z@4HA 0000000140038c73 f   libvcruntime:frame.obj
 0001:00037ca2       ?fin$1@?0??CxxCallCatchBlock@__FrameHandler4@@SAPEAXPEAU_EXCEPTION_RECORD@@@Z@4HA 0000000140038ca2 f   libvcruntime:frame.obj
 0001:00037d25       ?filt$0@?0??FrameUnwindToState@__FrameHandler3@@SAXPEA_KPEAU_xDISPATCHER_CONTEXT@@PEBU_s_FuncInfo@@H@Z@4HA 0000000140038d25 f   libvcruntime:frame.obj
 0001:00037d3b       ?fin$1@?0??FrameUnwindToState@__FrameHandler3@@SAXPEA_KPEAU_xDISPATCHER_CONTEXT@@PEBU_s_FuncInfo@@H@Z@4HA 0000000140038d3b f   libvcruntime:frame.obj
 0001:00037d5e       ?filt$0@?0??FrameUnwindToState@__FrameHandler4@@SAXPEA_KPEAU_xDISPATCHER_CONTEXT@@PEAUFuncInfo4@FH4@@H@Z@4HA 0000000140038d5e f   libvcruntime:frame.obj
 0001:00037d74       ?fin$1@?0??FrameUnwindToState@__FrameHandler4@@SAXPEA_KPEAU_xDISPATCHER_CONTEXT@@PEAUFuncInfo4@FH4@@H@Z@4HA 0000000140038d74 f   libvcruntime:frame.obj
 0001:00037d97       ?fin$0@?0???$?RV<lambda_842d9ff0dc9ef11c61343bbaebe7f885>@@AEAV<lambda_c5860995281e5c4ce005b3de8f5874ee>@@V<lambda_d90129c13df834fdcbf8d2b88dafcf2d>@@@?$__crt_seh_guarded_call@X@@QEAAX$$QEAV<lambda_842d9ff0dc9ef11c61343bbaebe7f885>@@AEAV<lambda_c5860995281e5c4ce005b3de8f5874ee>@@$$QEAV<lambda_d90129c13df834fdcbf8d2b88dafcf2d>@@@Z@4HA 0000000140038d97 f   libucrt:fflush.obj
 0001:00037d97       ?fin$0@?0???$?RV<lambda_c376a267cfb53b6959b3b692ec76b120>@@AEAV<lambda_9a32fed5bf61b6b509b2d3f6003082a1>@@V<lambda_572fbb9fa0ab338edf41edfd4b5fcc8d>@@@?$__crt_seh_guarded_call@H@@QEAAH$$QEAV<lambda_c376a267cfb53b6959b3b692ec76b120>@@AEAV<lambda_9a32fed5bf61b6b509b2d3f6003082a1>@@$$QEAV<lambda_572fbb9fa0ab338edf41edfd4b5fcc8d>@@@Z@4HA 0000000140038d97 f   libucrt:fflush.obj
 0001:00037d97       ?fin$0@?0???$?RV<lambda_2831f20263db5b546e098b45503eb778>@@AEAV<lambda_5856287d7ecd2be6c9197bb4007c3f6e>@@V<lambda_0838d7e100fbcbd261b69cfea6abb102>@@@?$__crt_seh_guarded_call@_K@@QEAA_K$$QEAV<lambda_2831f20263db5b546e098b45503eb778>@@AEAV<lambda_5856287d7ecd2be6c9197bb4007c3f6e>@@$$QEAV<lambda_0838d7e100fbcbd261b69cfea6abb102>@@@Z@4HA 0000000140038d97 f   libucrt:fwrite.obj
 0001:00037d97       ?fin$0@?0???$?RV<lambda_fe5404e9642edbb7c8ae71e1dcfa4018>@@AEAV<lambda_36eeb330e99a4f0bf8a7da86d0894cb9>@@V<lambda_2fa474834de80dc12f7a3c6eddd7a366>@@@?$__crt_seh_guarded_call@H@@QEAAH$$QEAV<lambda_fe5404e9642edbb7c8ae71e1dcfa4018>@@AEAV<lambda_36eeb330e99a4f0bf8a7da86d0894cb9>@@$$QEAV<lambda_2fa474834de80dc12f7a3c6eddd7a366>@@@Z@4HA 0000000140038d97 f   libucrt:output.obj
 0001:00037db2       ?fin$0@?0???$?RV<lambda_886d6c58226a84441f68b9f2b8217b83>@@AEAV<lambda_ab61a845afdef5b7c387490eaf3616ee>@@V<lambda_f7f22ab5edc0698d5f6905b0d3f44752>@@@?$__crt_seh_guarded_call@X@@QEAAX$$QEAV<lambda_886d6c58226a84441f68b9f2b8217b83>@@AEAV<lambda_ab61a845afdef5b7c387490eaf3616ee>@@$$QEAV<lambda_f7f22ab5edc0698d5f6905b0d3f44752>@@@Z@4HA 0000000140038db2 f   libucrt:fflush.obj
 0001:00037dcf       _read$fin$0                0000000140038dcf f   libucrt:read.obj
 0001:00037dcf       _setmode$fin$0             0000000140038dcf f   libucrt:setmode.obj
 0001:00037de6       fclose$fin$0               0000000140038de6 f   libucrt:fclose.obj
 0001:00037de6       ?fin$0@?0??common_fseek@@YAHV__crt_stdio_stream@@_JH@Z@4HA 0000000140038de6 f   libucrt:fseek.obj
 0001:00037dfe       ?fin$0@?0???$common_fsopen@D@@YAPEAU_iobuf@@QEBD0H@Z@4HA 0000000140038dfe f   libucrt:fopen.obj
 0001:00037e29       fread_s$fin$0              0000000140038e29 f   libucrt:fread.obj
 0001:00037e41       ?fin$0@?0???$?RV<lambda_0ae27a3a962d80f24befdcbee591983d>@@AEAV<lambda_8d0ee55de4b1038c4002e0adecdf1839>@@V<lambda_dc504788e8f1664fe9b84e20bfb512f2>@@@?$__crt_seh_guarded_call@X@@QEAAX$$QEAV<lambda_0ae27a3a962d80f24befdcbee591983d>@@AEAV<lambda_8d0ee55de4b1038c4002e0adecdf1839>@@$$QEAV<lambda_dc504788e8f1664fe9b84e20bfb512f2>@@@Z@4HA 0000000140038e41 f   libucrt:per_thread_data.obj
 0001:00037e41       ?fin$0@?0???$?RV<lambda_2d41944a1d46af3157314b8a01080d33>@@AEAV<lambda_8f455de75cd7d7f24b4096f044d8b9e6>@@V<lambda_aa500f224e6afead328df44964fe2772>@@@?$__crt_seh_guarded_call@X@@QEAAX$$QEAV<lambda_2d41944a1d46af3157314b8a01080d33>@@AEAV<lambda_8f455de75cd7d7f24b4096f044d8b9e6>@@$$QEAV<lambda_aa500f224e6afead328df44964fe2772>@@@Z@4HA 0000000140038e41 f   libucrt:per_thread_data.obj
 0001:00037e41       ?fin$0@?0???$?RV<lambda_aa87e3671a710a21b5dc78c0bdf72e11>@@AEAV<lambda_92619d2358a28f41a33ba319515a20b9>@@V<lambda_6992ecaafeb10aed2b74cb1fae11a551>@@@?$__crt_seh_guarded_call@X@@QEAAX$$QEAV<lambda_aa87e3671a710a21b5dc78c0bdf72e11>@@AEAV<lambda_92619d2358a28f41a33ba319515a20b9>@@$$QEAV<lambda_6992ecaafeb10aed2b74cb1fae11a551>@@@Z@4HA 0000000140038e41 f   libucrt:per_thread_data.obj
 0001:00037e41       ?fin$0@?0???$?RV<lambda_f2e299630e499de9f9a165e60fcd3db5>@@AEAV<lambda_2ae9d31cdba2644fcbeaf08da7c24588>@@V<lambda_40d01ff24d0e7b3814fdbdcee8eab3c7>@@@?$__crt_seh_guarded_call@X@@QEAAX$$QEAV<lambda_f2e299630e499de9f9a165e60fcd3db5>@@AEAV<lambda_2ae9d31cdba2644fcbeaf08da7c24588>@@$$QEAV<lambda_40d01ff24d0e7b3814fdbdcee8eab3c7>@@@Z@4HA 0000000140038e41 f   libucrt:per_thread_data.obj
 0001:00037e41       ?fin$0@?0???$?RV<lambda_48fc4a32460bb0512d3b13f8499328be>@@AEAV<lambda_6c3dac0a4f3f9cefca9bb494422f9b77>@@V<lambda_0a2f2c9f9a56eb2b08bfa6ff61d331c5>@@@?$__crt_seh_guarded_call@H@@QEAAH$$QEAV<lambda_48fc4a32460bb0512d3b13f8499328be>@@AEAV<lambda_6c3dac0a4f3f9cefca9bb494422f9b77>@@$$QEAV<lambda_0a2f2c9f9a56eb2b08bfa6ff61d331c5>@@@Z@4HA 0000000140038e41 f   libucrt:winapi_thunks.obj
 0001:00037e41       ?fin$0@?0???$?RV<lambda_41e84717acc955b55e9d0d529e507b68>@@AEAV<lambda_b37934c380d97b75fd242ea49540127a>@@V<lambda_bb6db9f9ac473960206e0d4b942b5506>@@@?$__crt_seh_guarded_call@PEAD@@QEAAPEAD$$QEAV<lambda_41e84717acc955b55e9d0d529e507b68>@@AEAV<lambda_b37934c380d97b75fd242ea49540127a>@@$$QEAV<lambda_bb6db9f9ac473960206e0d4b942b5506>@@@Z@4HA 0000000140038e41 f   libucrt:setlocale.obj
 0001:00037e41       ?fin$0@?0???$?RV<lambda_1d892b297fdedeee07ed8124eeb2f2fa>@@AEAV<lambda_ffc046909424fd52df0ac47e64813305>@@V<lambda_01a7098693036236037e7cdb9bca3d73>@@@?$__crt_seh_guarded_call@X@@QEAAX$$QEAV<lambda_1d892b297fdedeee07ed8124eeb2f2fa>@@AEAV<lambda_ffc046909424fd52df0ac47e64813305>@@$$QEAV<lambda_01a7098693036236037e7cdb9bca3d73>@@@Z@4HA 0000000140038e41 f   libucrt:wsetlocale.obj
 0001:00037e41       ?fin$0@?0???$?RV<lambda_efdfa57d1f175319df784efa44bb7b81>@@AEAV<lambda_5f0a4c1567f8adc6734073e5d1e1b35c>@@V<lambda_2e8a7d3640ea6ccb4c2413664c2db6fd>@@@?$__crt_seh_guarded_call@X@@QEAAX$$QEAV<lambda_efdfa57d1f175319df784efa44bb7b81>@@AEAV<lambda_5f0a4c1567f8adc6734073e5d1e1b35c>@@$$QEAV<lambda_2e8a7d3640ea6ccb4c2413664c2db6fd>@@@Z@4HA 0000000140038e41 f   libucrt:mbctype.obj
 0001:00037e41       ?fin$0@?0???$?RV<lambda_450d765d439847d4c735a33c368b5fc0>@@AEAV<lambda_44731a7d0e6d81c3e6aa82d741081786>@@V<lambda_601a2a7da3b7a96e9554ac7215c4b07c>@@@?$__crt_seh_guarded_call@P6AXH@Z@@QEAAP6AXH@Z$$QEAV<lambda_450d765d439847d4c735a33c368b5fc0>@@AEAV<lambda_44731a7d0e6d81c3e6aa82d741081786>@@$$QEAV<lambda_601a2a7da3b7a96e9554ac7215c4b07c>@@@Z@4HA 0000000140038e41 f   libucrt:signal.obj
 0001:00037e41       ?fin$0@?0???$?RV<lambda_d80eeec6fff315bfe5c115232f3240e3>@@AEAV<lambda_6e4b09c48022b2350581041d5f6b0c4c>@@V<lambda_2358e3775559c9db80273638284d5e45>@@@?$__crt_seh_guarded_call@X@@QEAAX$$QEAV<lambda_d80eeec6fff315bfe5c115232f3240e3>@@AEAV<lambda_6e4b09c48022b2350581041d5f6b0c4c>@@$$QEAV<lambda_2358e3775559c9db80273638284d5e45>@@@Z@4HA 0000000140038e41 f   libucrt:exit.obj
 0001:00037e41       ?fin$0@?0???$?RV<lambda_638799b9deba96c50f710eeac98168cd>@@AEAV<lambda_22ebabd17bc4fa466a2aca6d8deb888d>@@V<lambda_a6f7d7db0129f75315ebf26d50c089f1>@@@?$__crt_seh_guarded_call@H@@QEAAH$$QEAV<lambda_638799b9deba96c50f710eeac98168cd>@@AEAV<lambda_22ebabd17bc4fa466a2aca6d8deb888d>@@$$QEAV<lambda_a6f7d7db0129f75315ebf26d50c089f1>@@@Z@4HA 0000000140038e41 f   libucrt:onexit.obj
 0001:00037e41       ?fin$0@?0???$?RV<lambda_7777bce6b2f8c936911f934f8298dc43>@@AEAV<lambda_f03950bc5685219e0bcd2087efbe011e>@@V<lambda_3883c3dff614d5e0c5f61bb1ac94921c>@@@?$__crt_seh_guarded_call@H@@QEAAH$$QEAV<lambda_7777bce6b2f8c936911f934f8298dc43>@@AEAV<lambda_f03950bc5685219e0bcd2087efbe011e>@@$$QEAV<lambda_3883c3dff614d5e0c5f61bb1ac94921c>@@@Z@4HA 0000000140038e41 f   libucrt:onexit.obj
 0001:00037e5b       _query_new_handler$fin$0   0000000140038e5b f   libucrt:new_handler.obj
 0001:00037e71       ?filt$0@?0???R<lambda_6e4b09c48022b2350581041d5f6b0c4c>@@QEBA@XZ@4HA 0000000140038e71 f   libucrt:exit.obj
 0001:00037e8c       ?fin$0@?0???$?RV<lambda_410d79af7f07d98d83a3f525b3859a53>@@AEAV<lambda_3e16ef9562a7dcce91392c22ab16ea36>@@V<lambda_38119f0e861e05405d8a144b9b982f0a>@@@?$__crt_seh_guarded_call@X@@QEAAX$$QEAV<lambda_410d79af7f07d98d83a3f525b3859a53>@@AEAV<lambda_3e16ef9562a7dcce91392c22ab16ea36>@@$$QEAV<lambda_38119f0e861e05405d8a144b9b982f0a>@@@Z@4HA 0000000140038e8c f   libucrt:wsetlocale.obj
 0001:00037ea6       ?fin$0@?0???$?RV<lambda_7f2adfce497ff2baa965cd4f576ecfd1>@@AEAV<lambda_2a444430fde8c29194d880d93eed5e8f>@@AEAV<lambda_8dff2cf36a5417162780cd64fa2883ef>@@@?$__crt_seh_guarded_call@X@@QEAAX$$QEAV<lambda_7f2adfce497ff2baa965cd4f576ecfd1>@@AEAV<lambda_2a444430fde8c29194d880d93eed5e8f>@@AEAV<lambda_8dff2cf36a5417162780cd64fa2883ef>@@@Z@4HA 0000000140038ea6 f   libucrt:wsetlocale.obj
 0001:00037ec7       _fcloseall$fin$0           0000000140038ec7 f   libucrt:closeall.obj
 0001:00037ec7       ?fin$0@?0??__acrt_stdio_allocate_stream@@YA?AV__crt_stdio_stream@@XZ@4HA 0000000140038ec7 f   libucrt:stream.obj
 0001:00037ee0       __acrt_initialize_lowio$fin$0 0000000140038ee0 f   libucrt:ioinit.obj
 0001:00037ee0       __acrt_lowio_ensure_fh_exists$fin$0 0000000140038ee0 f   libucrt:osfinfo.obj
 0001:00037ee0       _alloc_osfhnd$fin$0        0000000140038ee0 f   libucrt:osfinfo.obj
 0001:00037ef9       ?fin$0@?0???$?RV<lambda_751a882b2c74d4b022dec766aa51a29a>@@AEAV<lambda_628dfdc04ba53c8bfc02c9951375f3f5>@@V<lambda_f6c7be5f7998530c34de24c7437d6b54>@@@?$__crt_seh_guarded_call@H@@QEAAH$$QEAV<lambda_751a882b2c74d4b022dec766aa51a29a>@@AEAV<lambda_628dfdc04ba53c8bfc02c9951375f3f5>@@$$QEAV<lambda_f6c7be5f7998530c34de24c7437d6b54>@@@Z@4HA 0000000140038ef9 f   libucrt:close.obj
 0001:00037ef9       ?fin$0@?0???$?RV<lambda_a37b2b86f63e897a80ea819b0eb08c01>@@AEAV<lambda_38ce7e780aa69e748d6df282ebc68efe>@@V<lambda_99fb1378e971ab6e7edea83e3a7a83a2>@@@?$__crt_seh_guarded_call@H@@QEAAH$$QEAV<lambda_a37b2b86f63e897a80ea819b0eb08c01>@@AEAV<lambda_38ce7e780aa69e748d6df282ebc68efe>@@$$QEAV<lambda_99fb1378e971ab6e7edea83e3a7a83a2>@@@Z@4HA 0000000140038ef9 f   libucrt:commit.obj
 0001:00037f13       ?fin$0@?0???$common_lseek@_J@@YA_JH_JH@Z@4HA 0000000140038f13 f   libucrt:lseek.obj
 0001:00037f13       _write$fin$0               0000000140038f13 f   libucrt:write.obj
 0001:00037f2a       _ctrlfp$filt$0             0000000140038f2a f   libucrt:fpctrl.obj
 0001:00037f56       ?dtor$0@?0??_wcstombs_l_helper@@YA_KPEADPEB_W_KPEAU__crt_locale_pointers@@@Z@4HA 0000000140038f56 f   libucrt:wcstombs.obj
 0001:00037f62       raise$fin$0                0000000140038f62 f   libucrt:signal.obj
 0001:00037f83       ?fin$0@?0??update_thread_multibyte_data_internal@@YAPEAU__crt_multibyte_data@@QEAU__acrt_ptd@@QEAPEAU1@@Z@4HA 0000000140038f83 f   libucrt:mbctype.obj
 0001:00037f9c       __acrt_update_thread_locale_data$fin$0 0000000140038f9c f   libucrt:locale_refcounting.obj
 0001:00037fb5       ?fin$0@?0???$common_sopen_dispatch@D@@YAHQEBDHHHQEAHH@Z@4HA 0000000140038fb5 f   libucrt:open.obj
 0001:00038010       _IsNonwritableInCurrentImage$filt$0 0000000140039010 f   LIBCMT:pesect.obj
 0001:00038030       ??__Finitlocks@std@@YAXXZ  0000000140039030 f   libcpmt:xlock.obj
 0001:0003803c       ??__F_Fac_tidy_reg@std@@YAXXZ 000000014003903c f   libcpmt:locale0.obj
 0001:00038098       ??__Fclassic_locale@std@@YAXXZ 0000000140039098 f   libcpmt:locale0.obj
 0001:000380d8       ??__Finit_atexit@@YAXXZ    00000001400390d8 f   libcpmt:iosptrs.obj
 0001:00038120       ??__Finitlocks@std@@YAXXZ  0000000140039120 f   libcpmt:iosptrs.obj
 0002:00000298       ?pre_cpp_initializer@@3P6AXXZEA 000000014003a298     LIBCMT:exe_main.obj
 0002:000002a0       ?initlocks$initializer$@std@@3P6AXXZEA 000000014003a2a0     libcpmt:xlock.obj
 0002:000002a8       ?initlocks$initializer$@std@@3P6AXXZEA 000000014003a2a8     libcpmt:iosptrs.obj
 0002:000002b0       ?init_atexit$initializer$@@3P6AXXZEA 000000014003a2b0     libcpmt:iosptrs.obj
 0002:000002b8       ?_Fac_tidy_reg$initializer$@std@@3P6AXXZEA 000000014003a2b8     libcpmt:locale0.obj
 0002:000002c0       ?classic_locale$initializer$@std@@3P6AXXZEA 000000014003a2c0     libcpmt:locale0.obj
 0002:000002d8       ?pre_c_initializer@@3P6AHXZEA 000000014003a2d8     LIBCMT:exe_main.obj
 0002:000002e0       ?post_pgo_initializer@@3P6AHXZEA 000000014003a2e0     LIBCMT:exe_main.obj
 0002:000002e8       ?pinit@@3P6AHXZEA          000000014003a2e8     libcpmt:winapisupp.obj
 0002:00000350       ?_helloText@@3QBDB         000000014003a350     main.obj
 0002:00000670       ?licenseText@@3QBDB        000000014003a670     RunParameters.obj
 0002:00000a30       ?whatText@@3QBDB           000000014003aa30     RunParameters.obj
 0002:00000ac0       ?usage@@3QBDB              000000014003aac0     RunParameters.obj
 0002:00000eb8       ?riffStr@@3QBDB            000000014003aeb8     WavFile.obj
 0002:00000ec0       ?waveStr@@3QBDB            000000014003aec0     WavFile.obj
 0002:00000ec8       ?fmtStr@@3QBDB             000000014003aec8     WavFile.obj
 0002:00000ed0       ?factStr@@3QBDB            000000014003aed0     WavFile.obj
 0002:00000ed8       ?dataStr@@3QBDB            000000014003aed8     WavFile.obj
 0002:00001728       ?_LPF_coeffs@@3QBNB        000000014003b728     SoundTouch_x64:BPMDetect.obj
 0002:00001d90       ?_Win_errtab@std@@3QBU_Win_errtab_t@1@B 000000014003bd90     libcpmt:syserror.obj
 0002:00002000       ?_Sys_errtab@std@@3QBU_Sys_errtab_t@1@B 000000014003c000     libcpmt:syserror.obj
 0002:00002b90       $cppxdata$?_Init@locale@std@@CAPEAV_Locimp@12@_N@Z 000000014003cb90     libcpmt:locale0.obj
 0002:00002be8       $cppxdata$?_Tidy@ios_base@std@@AEAAXXZ 000000014003cbe8     libcpmt:ios.obj
 0002:00003008       $cppxdata$??__Finit_atexit@@YAXXZ 000000014003d008     libcpmt:iosptrs.obj
 0002:00003050       digits                     000000014003d050     libcpmt:xstoul.obj
 0002:00003078       ndigs                      000000014003d078     libcpmt:xstoul.obj
 0002:000030a0       digits                     000000014003d0a0     libcpmt:xstoull.obj
 0002:000030c8       ndigs                      000000014003d0c8     libcpmt:xstoull.obj
 0002:000030f0       ?LcidToLocaleNameTable@@3QBULcidToLocaleName@@B 000000014003d0f0     libcpmt:winapinls.obj
 0002:00003f30       ?LocaleNameToIndexTable@@3QBULocaleNameIndex@@B 000000014003df30     libcpmt:winapinls.obj
 0002:00006450       GS_ExceptionPointers       0000000140040450     LIBCMT:gs_report.obj
 0002:00006480       ?ExceptionTemplate@?1??UnwindNestedFrames@__FrameHandler4@@SAXPEA_KPEAUEHExceptionRecord@@PEAU_CONTEXT@@0PEAXPEAUFuncInfo4@FH4@@HHPEAUHandlerType4@6@PEAU_xDISPATCHER_CONTEXT@@E@Z@4U_EXCEPTION_RECORD@@B 0000000140040480     libvcruntime:risctrnsctrl.obj
 0002:00006520       ?ExceptionTemplate@?1??UnwindNestedFrames@__FrameHandler3@@SAXPEA_KPEAUEHExceptionRecord@@PEAU_CONTEXT@@0PEAXPEBU_s_FuncInfo@@HHPEBU_s_HandlerType@@PEAU_xDISPATCHER_CONTEXT@@E@Z@4U_EXCEPTION_RECORD@@B 0000000140040520     libvcruntime:risctrnsctrl.obj
 0002:000065f0       ?tokenTable@@3QBUStringLiteral@@B 00000001400405f0     libvcruntime:undname.obj
 0002:000066f0       ?nameTable@@3QBUStringLiteral@@B 00000001400406f0     libvcruntime:undname.obj
 0002:00006c20       ?rttiTable@@3QBUStringLiteral@@B 0000000140040c20     libvcruntime:undname.obj
 0002:00006c70       ?IndirectionName@@3QBUStringLiteral@@B 0000000140040c70     libvcruntime:undname.obj
 0002:00006cd0       ?PrefixName@@3QBUStringLiteral@@B 0000000140040cd0     libvcruntime:undname.obj
 0002:000073a0       ?module_names@?A0x81a78551@@3QBQEB_WB 00000001400413a0     libvcruntime:winapi_downlevel.obj
 0002:00007460       ?candidate_modules@?1??try_get_FlsAlloc@@YAP6AKP6AXPEAX@Z@ZXZ@4QBW4module_id@?A0x81a78551@@B 0000000140041460     libvcruntime:winapi_downlevel.obj
 0002:00007468       ?candidate_modules@?1??try_get_FlsFree@@YAP6AHK@ZXZ@4QBW4module_id@?A0x81a78551@@B 0000000140041468     libvcruntime:winapi_downlevel.obj
 0002:00007470       ?candidate_modules@?1??try_get_FlsGetValue@@YAP6APEAXK@ZXZ@4QBW4module_id@?A0x81a78551@@B 0000000140041470     libvcruntime:winapi_downlevel.obj
 0002:00007478       ?candidate_modules@?1??try_get_FlsSetValue@@YAP6AHKPEAX@ZXZ@4QBW4module_id@?A0x81a78551@@B 0000000140041478     libvcruntime:winapi_downlevel.obj
 0002:00007480       ?candidate_modules@?1??try_get_InitializeCriticalSectionEx@@YAP6AHPEAU_RTL_CRITICAL_SECTION@@KK@ZXZ@4QBW4module_id@?A0x81a78551@@B 0000000140041480     libvcruntime:winapi_downlevel.obj
 0002:00007e80       ?large_power_indices@?1??multiply_by_power_of_ten@__crt_strtox@@YA_NAEAUbig_integer@2@I@Z@4QBUunpack_index@?1??12@YA_N0I@Z@B 0000000140041e80     libucrt:atof.obj
 0002:000080f0       __flag_x_nan               00000001400420f0     libucrt:exp.obj
 0002:000080f4       __flag_y_zero              00000001400420f4     libucrt:exp.obj
 0002:000080f8       __flag_y_inf               00000001400420f8     libucrt:exp.obj
 0002:00008100       L__real_1_by_720           0000000140042100     libucrt:exp.obj
 0002:00008110       L__real_1_by_120           0000000140042110     libucrt:exp.obj
 0002:00008120       L__real_1_by_6             0000000140042120     libucrt:exp.obj
 0002:00008130       L__real_1_by_2             0000000140042130     libucrt:exp.obj
 0002:00008140       L__real_1_by_24            0000000140042140     libucrt:exp.obj
 0002:00008150       L__log2_by_64_mtail_mhead  0000000140042150     libucrt:exp.obj
 0002:00008160       L__ln_of_smallest_normal   0000000140042160     libucrt:exp.obj
 0002:00008168       L__zero                    0000000140042168     libucrt:exp.obj
 0002:00008170       L__max_exp_arg             0000000140042170     libucrt:exp.obj
 0002:00008178       L__denormal_tiny_threshold 0000000140042178     libucrt:exp.obj
 0002:00008180       L__min_exp_arg             0000000140042180     libucrt:exp.obj
 0002:00008188       L__real_64_by_log2         0000000140042188     libucrt:exp.obj
 0002:00008190       L__positive_infinity       0000000140042190     libucrt:exp.obj
 0002:00008198       L__negative_infinity       0000000140042198     libucrt:exp.obj
 0002:000081a0       L__real_qnanbit            00000001400421a0     libucrt:exp.obj
 0002:000081a8       L__real_x_near0_threshold  00000001400421a8     libucrt:exp.obj
 0002:000081b0       L__log2_by_64_mhead        00000001400421b0     libucrt:exp.obj
 0002:000081b8       L__log2_by_64_mtail        00000001400421b8     libucrt:exp.obj
 0002:000081c0       L__real_smallest_denormal  00000001400421c0     libucrt:exp.obj
 0002:000081c8       L__real_one                00000001400421c8     libucrt:exp.obj
 0002:000081d0       L__2_to_neg_26             00000001400421d0     libucrt:exp.obj
 0002:000081d8       L__2_to_32                 00000001400421d8     libucrt:exp.obj
 0002:000081e0       L__min_normal              00000001400421e0     libucrt:exp.obj
 0002:000081e8       L__2_to_neg_63             00000001400421e8     libucrt:exp.obj
 0002:000081f0       L_real_piby2_1             00000001400421f0     libucrt:cos.obj
 0002:00008200       L_real_piby2_1tail         0000000140042200     libucrt:cos.obj
 0002:00008210       L_real_piby2_2             0000000140042210     libucrt:cos.obj
 0002:00008220       L_real_piby2_2tail         0000000140042220     libucrt:cos.obj
 0002:00008230       L_one                      0000000140042230     libucrt:cos.obj
 0002:00008240       L_signbit                  0000000140042240     libucrt:cos.obj
 0002:00008250       L_int_one                  0000000140042250     libucrt:cos.obj
 0002:00008260       L_int_two                  0000000140042260     libucrt:cos.obj
 0002:00008270       L_2_by_pi                  0000000140042270     libucrt:cos.obj
 0002:00008278       L_one_half                 0000000140042278     libucrt:cos.obj
 0002:00008280       L_neg_one_half             0000000140042280     libucrt:cos.obj
 0002:00008288       L_two_to_neg_27            0000000140042288     libucrt:cos.obj
 0002:00008290       L_two_to_neg_13            0000000140042290     libucrt:cos.obj
 0002:00008298       L_piby4                    0000000140042298     libucrt:cos.obj
 0002:000082a0       L_small_arg_cw             00000001400422a0     libucrt:cos.obj
 0002:000082a8       L_small_arg_bdl            00000001400422a8     libucrt:cos.obj
 0002:000082b0       L_sign_mask                00000001400422b0     libucrt:cos.obj
 0002:000082b8       L__inf_mask_64             00000001400422b8     libucrt:cos.obj
 0002:000082c0       L_2_to_32                  00000001400422c0     libucrt:cos.obj
 0002:000082d0       __flag_x_one_y_snan        00000001400422d0     libucrt:pow.obj
 0002:000082d4       __flag_x_zero_z_inf        00000001400422d4     libucrt:pow.obj
 0002:000082d8       __flag_x_nan               00000001400422d8     libucrt:pow.obj
 0002:000082dc       __flag_y_nan               00000001400422dc     libucrt:pow.obj
 0002:000082e0       __flag_x_nan_y_nan         00000001400422e0     libucrt:pow.obj
 0002:000082e4       __flag_x_neg_y_notint      00000001400422e4     libucrt:pow.obj
 0002:000082e8       __flag_z_zero              00000001400422e8     libucrt:pow.obj
 0002:000082ec       __flag_z_denormal          00000001400422ec     libucrt:pow.obj
 0002:000082f0       __flag_z_inf               00000001400422f0     libucrt:pow.obj
 0002:00008300       __ay_max_bound             0000000140042300     libucrt:pow.obj
 0002:00008308       __ay_min_bound             0000000140042308     libucrt:pow.obj
 0002:00008310       __sign_mask                0000000140042310     libucrt:pow.obj
 0002:00008318       __sign_and_exp_mask        0000000140042318     libucrt:pow.obj
 0002:00008320       __exp_mask                 0000000140042320     libucrt:pow.obj
 0002:00008328       __neg_inf                  0000000140042328     libucrt:pow.obj
 0002:00008330       __pos_inf                  0000000140042330     libucrt:pow.obj
 0002:00008338       __pos_one                  0000000140042338     libucrt:pow.obj
 0002:00008340       __pos_zero                 0000000140042340     libucrt:pow.obj
 0002:00008348       __exp_mant_mask            0000000140042348     libucrt:pow.obj
 0002:00008350       __mant_mask                0000000140042350     libucrt:pow.obj
 0002:00008358       __ind_pattern              0000000140042358     libucrt:pow.obj
 0002:00008360       __neg_qnan                 0000000140042360     libucrt:pow.obj
 0002:00008368       __qnan                     0000000140042368     libucrt:pow.obj
 0002:00008370       __qnan_set                 0000000140042370     libucrt:pow.obj
 0002:00008378       __neg_one                  0000000140042378     libucrt:pow.obj
 0002:00008380       __neg_zero                 0000000140042380     libucrt:pow.obj
 0002:00008388       __exp_shift                0000000140042388     libucrt:pow.obj
 0002:00008390       __exp_bias                 0000000140042390     libucrt:pow.obj
 0002:00008398       __exp_bias_m1              0000000140042398     libucrt:pow.obj
 0002:000083a0       __yexp_53                  00000001400423a0     libucrt:pow.obj
 0002:000083a8       __mant_full                00000001400423a8     libucrt:pow.obj
 0002:000083b0       __1_before_mant            00000001400423b0     libucrt:pow.obj
 0002:000083b8       __mask_mant_all8           00000001400423b8     libucrt:pow.obj
 0002:000083c0       __mask_mant9               00000001400423c0     libucrt:pow.obj
 0002:000083d0       __real_fffffffff8000000    00000001400423d0     libucrt:pow.obj
 0002:000083e0       __mask_8000000000000000    00000001400423e0     libucrt:pow.obj
 0002:000083f0       __real_4090040000000000    00000001400423f0     libucrt:pow.obj
 0002:00008400       __real_C090C80000000000    0000000140042400     libucrt:pow.obj
 0002:00008410       __real_ninf                0000000140042410     libucrt:pow.obj
 0002:00008420       __real_inf                 0000000140042420     libucrt:pow.obj
 0002:00008430       __real_nan                 0000000140042430     libucrt:pow.obj
 0002:00008440       __real_mant                0000000140042440     libucrt:pow.obj
 0002:00008450       __mask_1023                0000000140042450     libucrt:pow.obj
 0002:00008460       __mask_001                 0000000140042460     libucrt:pow.obj
 0002:00008470       __real_log2_lead           0000000140042470     libucrt:pow.obj
 0002:00008480       __real_log2_tail           0000000140042480     libucrt:pow.obj
 0002:00008490       __real_two                 0000000140042490     libucrt:pow.obj
 0002:000084a0       __real_one                 00000001400424a0     libucrt:pow.obj
 0002:000084b0       __real_half                00000001400424b0     libucrt:pow.obj
 0002:000084c0       __mask_100                 00000001400424c0     libucrt:pow.obj
 0002:000084d0       __real_1_over_2            00000001400424d0     libucrt:pow.obj
 0002:000084e0       __real_1_over_3            00000001400424e0     libucrt:pow.obj
 0002:000084f0       __real_1_over_4            00000001400424f0     libucrt:pow.obj
 0002:00008500       __real_1_over_5            0000000140042500     libucrt:pow.obj
 0002:00008510       __real_1_over_6            0000000140042510     libucrt:pow.obj
 0002:00008520       __real_1_over_7            0000000140042520     libucrt:pow.obj
 0002:00008530       __mask_1023_f              0000000140042530     libucrt:pow.obj
 0002:00008540       __mask_2045                0000000140042540     libucrt:pow.obj
 0002:00008550       __real_threshold           0000000140042550     libucrt:pow.obj
 0002:00008560       __real_notsign             0000000140042560     libucrt:pow.obj
 0002:00008570       __log_F_inv_head           0000000140042570     libucrt:pow.obj
 0002:00008d80       __log_F_inv_tail           0000000140042d80     libucrt:pow.obj
 0002:00009590       __denormal_threshold       0000000140043590     libucrt:pow.obj
 0002:000095a0       __enable_almost_inf        00000001400435a0     libucrt:pow.obj
 0002:000095b0       __real_zero                00000001400435b0     libucrt:pow.obj
 0002:000095c0       __real_smallest_denormal   00000001400435c0     libucrt:pow.obj
 0002:000095d0       __denormal_tiny_threshold  00000001400435d0     libucrt:pow.obj
 0002:000095e0       __real_p65536              00000001400435e0     libucrt:pow.obj
 0002:000095f0       __real_m68800              00000001400435f0     libucrt:pow.obj
 0002:00009600       __real_64_by_log2          0000000140043600     libucrt:pow.obj
 0002:00009610       __real_log2_by_64_head     0000000140043610     libucrt:pow.obj
 0002:00009620       __real_log2_by_64_tail     0000000140043620     libucrt:pow.obj
 0002:00009630       __real_1_by_720            0000000140043630     libucrt:pow.obj
 0002:00009640       __real_1_by_120            0000000140043640     libucrt:pow.obj
 0002:00009650       __real_1_by_24             0000000140043650     libucrt:pow.obj
 0002:00009660       __real_1_by_6              0000000140043660     libucrt:pow.obj
 0002:00009670       __real_1_by_2              0000000140043670     libucrt:pow.obj
 0002:00009680       L_real_piby2_1             0000000140043680     libucrt:sin.obj
 0002:00009690       L_real_piby2_1tail         0000000140043690     libucrt:sin.obj
 0002:000096a0       L_real_piby2_2             00000001400436a0     libucrt:sin.obj
 0002:000096b0       L_real_piby2_2tail         00000001400436b0     libucrt:sin.obj
 0002:000096c0       L_one                      00000001400436c0     libucrt:sin.obj
 0002:000096d0       L_signbit                  00000001400436d0     libucrt:sin.obj
 0002:000096e0       L_int_one                  00000001400436e0     libucrt:sin.obj
 0002:000096f0       L_int_two                  00000001400436f0     libucrt:sin.obj
 0002:00009700       L_int_three                0000000140043700     libucrt:sin.obj
 0002:00009710       L_2_by_pi                  0000000140043710     libucrt:sin.obj
 0002:00009718       L_one_half                 0000000140043718     libucrt:sin.obj
 0002:00009720       L_one_sixth                0000000140043720     libucrt:sin.obj
 0002:00009728       L_two_to_neg_27            0000000140043728     libucrt:sin.obj
 0002:00009730       L_two_to_neg_13            0000000140043730     libucrt:sin.obj
 0002:00009738       L_piby4                    0000000140043738     libucrt:sin.obj
 0002:00009740       L_small_arg_cw             0000000140043740     libucrt:sin.obj
 0002:00009748       L_small_arg_bdl            0000000140043748     libucrt:sin.obj
 0002:00009750       L__inf_mask_64             0000000140043750     libucrt:sin.obj
 0002:00009758       L_near_one                 0000000140043758     libucrt:sin.obj
 0002:00009f70       ?errtable@@3QBUerrentry@?A0x31fdb9ec@@B 0000000140043f70     libucrt:errno.obj
 0002:0000a0e0       __flag_x_one_y_snan        00000001400440e0     libucrt:powf.obj
 0002:0000a0e4       __flag_x_zero_z_inf        00000001400440e4     libucrt:powf.obj
 0002:0000a0e8       __flag_x_nan               00000001400440e8     libucrt:powf.obj
 0002:0000a0ec       __flag_y_nan               00000001400440ec     libucrt:powf.obj
 0002:0000a0f0       __flag_x_nan_y_nan         00000001400440f0     libucrt:powf.obj
 0002:0000a0f4       __flag_x_neg_y_notint      00000001400440f4     libucrt:powf.obj
 0002:0000a0f8       __flag_z_zero              00000001400440f8     libucrt:powf.obj
 0002:0000a0fc       __flag_z_denormal          00000001400440fc     libucrt:powf.obj
 0002:0000a100       __flag_z_inf               0000000140044100     libucrt:powf.obj
 0002:0000a104       L__1_by_3                  0000000140044104     libucrt:powf.obj
 0002:0000a10c       L__log2                    000000014004410c     libucrt:powf.obj
 0002:0000a114       L__max_exp_arg             0000000140044114     libucrt:powf.obj
 0002:0000a11c       L__min_exp_arg             000000014004411c     libucrt:powf.obj
 0002:0000a124       L__real_log2_by_64         0000000140044124     libucrt:powf.obj
 0002:0000a12c       L__1_by_6                  000000014004412c     libucrt:powf.obj
 0002:0000a134       L__real_threshold          0000000140044134     libucrt:powf.obj
 0002:0000a13c       L__real_one                000000014004413c     libucrt:powf.obj
 0002:0000a144       L__real_two                0000000140044144     libucrt:powf.obj
 0002:0000a14c       L__neg_zero                000000014004414c     libucrt:powf.obj
 0002:0000a160       L__real_ca42               0000000140044160     libucrt:powf.obj
 0002:0000a168       L__real_ca4                0000000140044168     libucrt:powf.obj
 0002:0000a170       L__real_ca31               0000000140044170     libucrt:powf.obj
 0002:0000a178       L__real_ca3                0000000140044178     libucrt:powf.obj
 0002:0000a180       L__clear_sign              0000000140044180     libucrt:powf.obj
 0002:0000a190       L__real_64_by_log2         0000000140044190     libucrt:powf.obj
 0002:0000a1a0       L__1_by_2                  00000001400441a0     libucrt:powf.obj
 0002:0000a1b0       L__1023                    00000001400441b0     libucrt:powf.obj
 0002:0000a1c0       L__xexp_bits_xmantissa_bits 00000001400441c0     libucrt:powf.obj
 0002:0000aae0       _first_127char             0000000140044ae0     libucrt:wsetlocale.obj
 0002:0000aca0       __acrt_initializers        0000000140044ca0     libucrt:initialization.obj
 0002:0000ada0       ?module_names@?A0x391cf84c@@3QBQEB_WB 0000000140044da0     libucrt:winapi_thunks.obj
 0002:0000b2a8       ?candidate_modules@?1??try_get_AreFileApisANSI@@YAP6AHXZXZ@4QBW4module_id@?A0x391cf84c@@B 00000001400452a8     libucrt:winapi_thunks.obj
 0002:0000b2c0       ?candidate_modules@?1??try_get_CompareStringEx@@YAP6AHPEB_WK0H0HPEAU_nlsversioninfo@@PEAX_J@ZXZ@4QBW4module_id@?A0x391cf84c@@B 00000001400452c0     libucrt:winapi_thunks.obj
 0002:0000b2c8       ?candidate_modules@?1??try_get_EnumSystemLocalesEx@@YAP6AHP6AHPEA_WK_J@ZK1PEAX@ZXZ@4QBW4module_id@?A0x391cf84c@@B 00000001400452c8     libucrt:winapi_thunks.obj
 0002:0000b2e8       ?candidate_modules@?1??try_get_FlsAlloc@@YAP6AKP6AXPEAX@Z@ZXZ@4QBW4module_id@?A0x391cf84c@@B 00000001400452e8     libucrt:winapi_thunks.obj
 0002:0000b2f0       ?candidate_modules@?1??try_get_FlsFree@@YAP6AHK@ZXZ@4QBW4module_id@?A0x391cf84c@@B 00000001400452f0     libucrt:winapi_thunks.obj
 0002:0000b2f8       ?candidate_modules@?1??try_get_FlsGetValue@@YAP6APEAXK@ZXZ@4QBW4module_id@?A0x391cf84c@@B 00000001400452f8     libucrt:winapi_thunks.obj
 0002:0000b300       ?candidate_modules@?1??try_get_FlsSetValue@@YAP6AHKPEAX@ZXZ@4QBW4module_id@?A0x391cf84c@@B 0000000140045300     libucrt:winapi_thunks.obj
 0002:0000b308       ?candidate_modules@?1??try_get_GetDateFormatEx@@YAP6AHPEB_WKPEBU_SYSTEMTIME@@0PEA_WH0@ZXZ@4QBW4module_id@?A0x391cf84c@@B 0000000140045308     libucrt:winapi_thunks.obj
 0002:0000b320       ?candidate_modules@?1??try_get_GetLocaleInfoEx@@YAP6AHPEB_WKPEA_WH@ZXZ@4QBW4module_id@?A0x391cf84c@@B 0000000140045320     libucrt:winapi_thunks.obj
 0002:0000b328       ?candidate_modules@?1??try_get_GetTimeFormatEx@@YAP6AHPEB_WKPEBU_SYSTEMTIME@@0PEA_WH@ZXZ@4QBW4module_id@?A0x391cf84c@@B 0000000140045328     libucrt:winapi_thunks.obj
 0002:0000b340       ?candidate_modules@?1??try_get_GetUserDefaultLocaleName@@YAP6AHPEA_WH@ZXZ@4QBW4module_id@?A0x391cf84c@@B 0000000140045340     libucrt:winapi_thunks.obj
 0002:0000b368       ?candidate_modules@?1??try_get_InitializeCriticalSectionEx@@YAP6AHPEAU_RTL_CRITICAL_SECTION@@KK@ZXZ@4QBW4module_id@?A0x391cf84c@@B 0000000140045368     libucrt:winapi_thunks.obj
 0002:0000b370       ?candidate_modules@?1??try_get_IsValidLocaleName@@YAP6AHPEB_W@ZXZ@4QBW4module_id@?A0x391cf84c@@B 0000000140045370     libucrt:winapi_thunks.obj
 0002:0000b390       ?candidate_modules@?1??try_get_LCMapStringEx@@YAP6AHPEB_WK0HPEA_WHPEAU_nlsversioninfo@@PEAX_J@ZXZ@4QBW4module_id@?A0x391cf84c@@B 0000000140045390     libucrt:winapi_thunks.obj
 0002:0000b398       ?candidate_modules@?1??try_get_LCIDToLocaleName@@YAP6AHKPEA_WHK@ZXZ@4QBW4module_id@?A0x391cf84c@@B 0000000140045398     libucrt:winapi_thunks.obj
 0002:0000b3b8       ?candidate_modules@?1??try_get_LocaleNameToLCID@@YAP6AKPEB_WK@ZXZ@4QBW4module_id@?A0x391cf84c@@B 00000001400453b8     libucrt:winapi_thunks.obj
 0002:0000b3d4       ?candidate_modules@?1??try_get_AppPolicyGetProcessTerminationMethod@@YAP6AJPEAXPEAW4AppPolicyProcessTerminationMethod@@@ZXZ@4QBW4module_id@?A0x391cf84c@@B 00000001400453d4     libucrt:winapi_thunks.obj
 0002:0000b400       ?strings@?1??fp_format_nan_or_infinity@@YAHW4__acrt_fp_class@@_NPEAD_K1@Z@4QAY03QEBDA 0000000140045400     libucrt:cvt.obj
 0002:0000bb70       ?_names@?1??_get_fname@@9@9 0000000140045b70     libucrt:fpexcept.obj
 0002:0000c4e0       L__piby2_part3_piby2_lead  00000001400464e0     libucrt:remainder_piby2_forasm.obj
 0002:0000c4f0       L__piby2_part1             00000001400464f0     libucrt:remainder_piby2_forasm.obj
 0002:0000c500       L__piby2_part2             0000000140046500     libucrt:remainder_piby2_forasm.obj
 0002:0000c510       L_piby2_1                  0000000140046510     libucrt:remainder_piby2_forasm.obj
 0002:0000c520       L_piby2_2                  0000000140046520     libucrt:remainder_piby2_forasm.obj
 0002:0000c530       L_piby2_3                  0000000140046530     libucrt:remainder_piby2_forasm.obj
 0002:0000c540       L_piby2_1tail              0000000140046540     libucrt:remainder_piby2_forasm.obj
 0002:0000c550       L_piby2_2tail              0000000140046550     libucrt:remainder_piby2_forasm.obj
 0002:0000c560       L_piby2_3tail              0000000140046560     libucrt:remainder_piby2_forasm.obj
 0002:0000c570       L_twobypi                  0000000140046570     libucrt:remainder_piby2_forasm.obj
 0002:0000c580       L_point_five               0000000140046580     libucrt:remainder_piby2_forasm.obj
 0002:0000c590       L_int_three                0000000140046590     libucrt:remainder_piby2_forasm.obj
 0002:0000c5a0       L_inf_mask_64              00000001400465a0     libucrt:remainder_piby2_forasm.obj
 0002:0000c5b0       L_signbit                  00000001400465b0     libucrt:remainder_piby2_forasm.obj
 0002:0000c5c0       L_int_1                    00000001400465c0     libucrt:remainder_piby2_forasm.obj
 0002:0000c5d0       L_int_15                   00000001400465d0     libucrt:remainder_piby2_forasm.obj
 0002:0000c5d8       L_int_48                   00000001400465d8     libucrt:remainder_piby2_forasm.obj
 0002:0000c5e0       L_3pio4                    00000001400465e0     libucrt:remainder_piby2_forasm.obj
 0002:0000c5e8       L_5pio4                    00000001400465e8     libucrt:remainder_piby2_forasm.obj
 0002:0000c5f0       L_7pio4                    00000001400465f0     libucrt:remainder_piby2_forasm.obj
 0002:0000c5f8       L_9pio4                    00000001400465f8     libucrt:remainder_piby2_forasm.obj
 0002:0000c600       L__2_by_pi_bits            0000000140046600     libucrt:remainder_piby2_forasm.obj
 0002:0000c6a0       L_piby2_lead               00000001400466a0     libucrt:remainder_piby2_forfma3.obj
 0002:0000c6b0       L_fff800                   00000001400466b0     libucrt:remainder_piby2_forfma3.obj
 0002:0000c6c0       L_piby2_part1              00000001400466c0     libucrt:remainder_piby2_forfma3.obj
 0002:0000c6d0       L_piby2_part2              00000001400466d0     libucrt:remainder_piby2_forfma3.obj
 0002:0000c6e0       L_piby2_part3              00000001400466e0     libucrt:remainder_piby2_forfma3.obj
 0002:0000c6f0       L_piby2_1                  00000001400466f0     libucrt:remainder_piby2_forfma3.obj
 0002:0000c700       L_piby2_2                  0000000140046700     libucrt:remainder_piby2_forfma3.obj
 0002:0000c710       L_piby2_3                  0000000140046710     libucrt:remainder_piby2_forfma3.obj
 0002:0000c720       L_piby2_1tail              0000000140046720     libucrt:remainder_piby2_forfma3.obj
 0002:0000c730       L_piby2_2tail              0000000140046730     libucrt:remainder_piby2_forfma3.obj
 0002:0000c740       L_piby2_3tail              0000000140046740     libucrt:remainder_piby2_forfma3.obj
 0002:0000c750       L_sign_mask                0000000140046750     libucrt:remainder_piby2_forfma3.obj
 0002:0000c760       L_twobypi                  0000000140046760     libucrt:remainder_piby2_forfma3.obj
 0002:0000c770       L_point_five               0000000140046770     libucrt:remainder_piby2_forfma3.obj
 0002:0000c780       L_int_three                0000000140046780     libucrt:remainder_piby2_forfma3.obj
 0002:0000c790       L_inf_mask_64              0000000140046790     libucrt:remainder_piby2_forfma3.obj
 0002:0000c7a0       L_signbit                  00000001400467a0     libucrt:remainder_piby2_forfma3.obj
 0002:0000c7b0       L_r                        00000001400467b0     libucrt:remainder_piby2_forfma3.obj
 0002:0000c7c0       L_xc1                      00000001400467c0     libucrt:remainder_piby2_forfma3.obj
 0002:0000c7d0       L_xc2                      00000001400467d0     libucrt:remainder_piby2_forfma3.obj
 0002:0000c7e0       L_xc3                      00000001400467e0     libucrt:remainder_piby2_forfma3.obj
 0002:0000c7f0       L_sigma                    00000001400467f0     libucrt:remainder_piby2_forfma3.obj
 0002:0000d828       $cppxdata$?_wcstombs_l_helper@@YA_KPEADPEB_W_KPEAU__crt_locale_pointers@@@Z 0000000140047828     libucrt:wcstombs.obj
 0002:0000e060       ?_mb_locale_names@@3QBQEB_WB 0000000140048060     libucrt:mbctype.obj
 0002:0000f070       ?LcidToLocaleNameTable@?A0x881e4c05@@3QBULcidToLocaleName@1@B 0000000140049070     libucrt:lcidtoname_downlevel.obj
 0002:0000feb0       ?LocaleNameToIndexTable@?A0x881e4c05@@3QBULocaleNameIndex@1@B 0000000140049eb0     libucrt:lcidtoname_downlevel.obj
 0002:00010cf0       ?large_power_indices@?1??multiply_by_power_of_ten@__crt_strtox@@YA_NAEAUbig_integer@2@I@Z@4QBUunpack_index@?1??12@YA_N0I@Z@B 000000014004acf0     libucrt:cfout.obj
 0002:00010db0       __real@433fffffffffffff    000000014004adb0     libucrt:fpsr.obj
 0002:00010db8       __real@c33fffffffffffff    000000014004adb8     libucrt:fpsr.obj
 0002:00010e70       __real_ninf                000000014004ae70     libucrt:log10.obj
 0002:00010e80       __real_inf                 000000014004ae80     libucrt:log10.obj
 0002:00010e90       __real_neg_qnan            000000014004ae90     libucrt:log10.obj
 0002:00010ea0       __real_qnanbit             000000014004aea0     libucrt:log10.obj
 0002:00010eb0       __int_1023                 000000014004aeb0     libucrt:log10.obj
 0002:00010ec0       __mask_001                 000000014004aec0     libucrt:log10.obj
 0002:00010ed0       __mask_mant                000000014004aed0     libucrt:log10.obj
 0002:00010ee0       __mask_mant_top8           000000014004aee0     libucrt:log10.obj
 0002:00010ef0       __mask_mant9               000000014004aef0     libucrt:log10.obj
 0002:00010f00       __real_log10_e             000000014004af00     libucrt:log10.obj
 0002:00010f10       __real_log10_e_lead        000000014004af10     libucrt:log10.obj
 0002:00010f20       __real_log10_e_tail        000000014004af20     libucrt:log10.obj
 0002:00010f30       __real_log10_2_lead        000000014004af30     libucrt:log10.obj
 0002:00010f40       __real_log10_2_tail        000000014004af40     libucrt:log10.obj
 0002:00010f50       __real_two                 000000014004af50     libucrt:log10.obj
 0002:00010f60       __real_one                 000000014004af60     libucrt:log10.obj
 0002:00010f70       __real_half                000000014004af70     libucrt:log10.obj
 0002:00010f80       __mask_100                 000000014004af80     libucrt:log10.obj
 0002:00010f90       __real_1_over_512          000000014004af90     libucrt:log10.obj
 0002:00010fa0       __real_1_over_2            000000014004afa0     libucrt:log10.obj
 0002:00010fb0       __real_1_over_3            000000014004afb0     libucrt:log10.obj
 0002:00010fc0       __real_1_over_4            000000014004afc0     libucrt:log10.obj
 0002:00010fd0       __real_1_over_5            000000014004afd0     libucrt:log10.obj
 0002:00010fe0       __real_1_over_6            000000014004afe0     libucrt:log10.obj
 0002:00010ff0       __real_neg_1023            000000014004aff0     libucrt:log10.obj
 0002:00011000       __mask_2045                000000014004b000     libucrt:log10.obj
 0002:00011010       __real_threshold           000000014004b010     libucrt:log10.obj
 0002:00011020       __real_near_one_lt         000000014004b020     libucrt:log10.obj
 0002:00011030       __real_near_one_gt         000000014004b030     libucrt:log10.obj
 0002:00011040       __real_min_norm            000000014004b040     libucrt:log10.obj
 0002:00011050       __real_notsign             000000014004b050     libucrt:log10.obj
 0002:00011060       __real_ca1                 000000014004b060     libucrt:log10.obj
 0002:00011070       __real_ca2                 000000014004b070     libucrt:log10.obj
 0002:00011080       __real_ca3                 000000014004b080     libucrt:log10.obj
 0002:00011090       __real_ca4                 000000014004b090     libucrt:log10.obj
 0002:000110a0       __mask_lower               000000014004b0a0     libucrt:log10.obj
 0002:000110b0       __flag_x_zero              000000014004b0b0     libucrt:log10.obj
 0002:000110b4       __flag_x_neg               000000014004b0b4     libucrt:log10.obj
 0002:000110b8       __flag_x_nan               000000014004b0b8     libucrt:log10.obj
 0002:00013f90       $unwind$fprintf            000000014004df90     main.obj
 0002:00013f9c       $unwind$?openFiles@@YAXPEAPEAVWavInFile@@PEAPEAVWavOutFile@@PEBVRunParameters@@@Z 000000014004df9c     main.obj
 0002:00013fbc       $cppxdata$?openFiles@@YAXPEAPEAVWavInFile@@PEAPEAVWavOutFile@@PEBVRunParameters@@@Z 000000014004dfbc     main.obj
 0002:00013fc5       $stateUnwindMap$?openFiles@@YAXPEAPEAVWavInFile@@PEAPEAVWavOutFile@@PEBVRunParameters@@@Z 000000014004dfc5     main.obj
 0002:00013fda       $ip2state$?openFiles@@YAXPEAPEAVWavInFile@@PEAPEAVWavOutFile@@PEBVRunParameters@@@Z 000000014004dfda     main.obj
 0002:00013ff0       $unwind$?dtor$0@?0???0?$basic_istream@DU?$char_traits@D@std@@@std@@QEAA@PEAV?$basic_streambuf@DU?$char_traits@D@std@@@1@_N@Z@4HA 000000014004dff0     WavFile.obj
 0002:00013ff0       $unwind$?dtor$0@?0???0?$basic_stringstream@DU?$char_traits@D@std@@V?$allocator@D@2@@std@@QEAA@H@Z@4HA 000000014004dff0     WavFile.obj
 0002:00013ff0       $unwind$?dtor$0@?0??_Getcat@?$ctype@D@std@@SA_KPEAPEBVfacet@locale@2@PEBV42@@Z@4HA 000000014004dff0     WavFile.obj
 0002:00013ff0       $unwind$?dtor$0@?0??_Getcat@?$num_put@DV?$ostreambuf_iterator@DU?$char_traits@D@std@@@std@@@std@@SA_KPEAPEBVfacet@locale@2@PEBV42@@Z@4HA 000000014004dff0     WavFile.obj
 0002:00013ff0       $unwind$?dtor$0@?0??_Getcat@?$numpunct@D@std@@SA_KPEAPEBVfacet@locale@2@PEBV42@@Z@4HA 000000014004dff0     WavFile.obj
 0002:00013ff0       $unwind$?dtor$1@?0??_Getcat@?$numpunct@D@std@@SA_KPEAPEBVfacet@locale@2@PEBV42@@Z@4HA 000000014004dff0     WavFile.obj
 0002:00013ff0       $unwind$?dtor$1@?0??str@?$basic_stringstream@DU?$char_traits@D@std@@V?$allocator@D@2@@std@@QEBA?AV?$basic_string@DU?$char_traits@D@std@@V?$allocator@D@2@@2@XZ@4HA 000000014004dff0     WavFile.obj
 0002:00013ff0       $unwind$?dtor$0@?0??openFiles@@YAXPEAPEAVWavInFile@@PEAPEAVWavOutFile@@PEBVRunParameters@@@Z@4HA 000000014004dff0     main.obj
 0002:00013ff0       $unwind$?dtor$1@?0??openFiles@@YAXPEAPEAVWavInFile@@PEAPEAVWavOutFile@@PEBVRunParameters@@@Z@4HA 000000014004dff0     main.obj
 0002:00013ff0       $unwind$?dtor$2@?0??openFiles@@YAXPEAPEAVWavInFile@@PEAPEAVWavOutFile@@PEBVRunParameters@@@Z@4HA 000000014004dff0     main.obj
 0002:00013ff0       $unwind$?dtor$3@?0??openFiles@@YAXPEAPEAVWavInFile@@PEAPEAVWavOutFile@@PEBVRunParameters@@@Z@4HA 000000014004dff0     main.obj
 0002:00013ff0       $unwind$main$dtor$1        000000014004dff0     main.obj
 0002:00013ff0       $unwind$?filt$0@?0??__scrt_common_main_seh@@YAHXZ@4HA 000000014004dff0     LIBCMT:exe_main.obj
 0002:00013ff0       $unwind$_IsNonwritableInCurrentImage$filt$0 000000014004dff0     LIBCMT:pesect.obj
 0002:00013ff0       $unwind$?filt$0@?0??CxxCallCatchBlock@__FrameHandler3@@SAPEAXPEAU_EXCEPTION_RECORD@@@Z@4HA 000000014004dff0     libvcruntime:frame.obj
 0002:00013ff0       $unwind$?filt$0@?0??CxxCallCatchBlock@__FrameHandler4@@SAPEAXPEAU_EXCEPTION_RECORD@@@Z@4HA 000000014004dff0     libvcruntime:frame.obj
 0002:00013ff0       $unwind$?filt$0@?0??FrameUnwindToState@__FrameHandler3@@SAXPEA_KPEAU_xDISPATCHER_CONTEXT@@PEBU_s_FuncInfo@@H@Z@4HA 000000014004dff0     libvcruntime:frame.obj
 0002:00013ff0       $unwind$?fin$1@?0??FrameUnwindToState@__FrameHandler3@@SAXPEA_KPEAU_xDISPATCHER_CONTEXT@@PEBU_s_FuncInfo@@H@Z@4HA 000000014004dff0     libvcruntime:frame.obj
 0002:00013ff0       $unwind$_query_new_handler$fin$0 000000014004dff0     libucrt:new_handler.obj
 0002:00013ff0       $unwind$?fin$0@?0???$?RV<lambda_0ae27a3a962d80f24befdcbee591983d>@@AEAV<lambda_8d0ee55de4b1038c4002e0adecdf1839>@@V<lambda_dc504788e8f1664fe9b84e20bfb512f2>@@@?$__crt_seh_guarded_call@X@@QEAAX$$QEAV<lambda_0ae27a3a962d80f24befdcbee591983d>@@AEAV<lambda_8d0ee55de4b1038c4002e0adecdf1839>@@$$QEAV<lambda_dc504788e8f1664fe9b84e20bfb512f2>@@@Z@4HA 000000014004dff0     libucrt:per_thread_data.obj
 0002:00013ff0       $unwind$?fin$0@?0???$?RV<lambda_2d41944a1d46af3157314b8a01080d33>@@AEAV<lambda_8f455de75cd7d7f24b4096f044d8b9e6>@@V<lambda_aa500f224e6afead328df44964fe2772>@@@?$__crt_seh_guarded_call@X@@QEAAX$$QEAV<lambda_2d41944a1d46af3157314b8a01080d33>@@AEAV<lambda_8f455de75cd7d7f24b4096f044d8b9e6>@@$$QEAV<lambda_aa500f224e6afead328df44964fe2772>@@@Z@4HA 000000014004dff0     libucrt:per_thread_data.obj
 0002:00013ff0       $unwind$?fin$0@?0???$?RV<lambda_aa87e3671a710a21b5dc78c0bdf72e11>@@AEAV<lambda_92619d2358a28f41a33ba319515a20b9>@@V<lambda_6992ecaafeb10aed2b74cb1fae11a551>@@@?$__crt_seh_guarded_call@X@@QEAAX$$QEAV<lambda_aa87e3671a710a21b5dc78c0bdf72e11>@@AEAV<lambda_92619d2358a28f41a33ba319515a20b9>@@$$QEAV<lambda_6992ecaafeb10aed2b74cb1fae11a551>@@@Z@4HA 000000014004dff0     libucrt:per_thread_data.obj
 0002:00013ff0       $unwind$?fin$0@?0???$?RV<lambda_f2e299630e499de9f9a165e60fcd3db5>@@AEAV<lambda_2ae9d31cdba2644fcbeaf08da7c24588>@@V<lambda_40d01ff24d0e7b3814fdbdcee8eab3c7>@@@?$__crt_seh_guarded_call@X@@QEAAX$$QEAV<lambda_f2e299630e499de9f9a165e60fcd3db5>@@AEAV<lambda_2ae9d31cdba2644fcbeaf08da7c24588>@@$$QEAV<lambda_40d01ff24d0e7b3814fdbdcee8eab3c7>@@@Z@4HA 000000014004dff0     libucrt:per_thread_data.obj
 0002:00013ff0       $unwind$?fin$0@?0???$?RV<lambda_48fc4a32460bb0512d3b13f8499328be>@@AEAV<lambda_6c3dac0a4f3f9cefca9bb494422f9b77>@@V<lambda_0a2f2c9f9a56eb2b08bfa6ff61d331c5>@@@?$__crt_seh_guarded_call@H@@QEAAH$$QEAV<lambda_48fc4a32460bb0512d3b13f8499328be>@@AEAV<lambda_6c3dac0a4f3f9cefca9bb494422f9b77>@@$$QEAV<lambda_0a2f2c9f9a56eb2b08bfa6ff61d331c5>@@@Z@4HA 000000014004dff0     libucrt:winapi_thunks.obj
 0002:00013ff0       $unwind$__acrt_update_thread_locale_data$fin$0 000000014004dff0     libucrt:locale_refcounting.obj
 0002:00013ff0       $unwind$?fin$0@?0???$?RV<lambda_41e84717acc955b55e9d0d529e507b68>@@AEAV<lambda_b37934c380d97b75fd242ea49540127a>@@V<lambda_bb6db9f9ac473960206e0d4b942b5506>@@@?$__crt_seh_guarded_call@PEAD@@QEAAPEAD$$QEAV<lambda_41e84717acc955b55e9d0d529e507b68>@@AEAV<lambda_b37934c380d97b75fd242ea49540127a>@@$$QEAV<lambda_bb6db9f9ac473960206e0d4b942b5506>@@@Z@4HA 000000014004dff0     libucrt:setlocale.obj
 0002:00013ff0       $unwind$?fin$0@?0???$?RV<lambda_1d892b297fdedeee07ed8124eeb2f2fa>@@AEAV<lambda_ffc046909424fd52df0ac47e64813305>@@V<lambda_01a7098693036236037e7cdb9bca3d73>@@@?$__crt_seh_guarded_call@X@@QEAAX$$QEAV<lambda_1d892b297fdedeee07ed8124eeb2f2fa>@@AEAV<lambda_ffc046909424fd52df0ac47e64813305>@@$$QEAV<lambda_01a7098693036236037e7cdb9bca3d73>@@@Z@4HA 000000014004dff0     libucrt:wsetlocale.obj
 0002:00013ff0       $unwind$?fin$0@?0???$?RV<lambda_410d79af7f07d98d83a3f525b3859a53>@@AEAV<lambda_3e16ef9562a7dcce91392c22ab16ea36>@@V<lambda_38119f0e861e05405d8a144b9b982f0a>@@@?$__crt_seh_guarded_call@X@@QEAAX$$QEAV<lambda_410d79af7f07d98d83a3f525b3859a53>@@AEAV<lambda_3e16ef9562a7dcce91392c22ab16ea36>@@$$QEAV<lambda_38119f0e861e05405d8a144b9b982f0a>@@@Z@4HA 000000014004dff0     libucrt:wsetlocale.obj
 0002:00013ff0       $unwind$?fin$0@?0???$?RV<lambda_7f2adfce497ff2baa965cd4f576ecfd1>@@AEAV<lambda_2a444430fde8c29194d880d93eed5e8f>@@AEAV<lambda_8dff2cf36a5417162780cd64fa2883ef>@@@?$__crt_seh_guarded_call@X@@QEAAX$$QEAV<lambda_7f2adfce497ff2baa965cd4f576ecfd1>@@AEAV<lambda_2a444430fde8c29194d880d93eed5e8f>@@AEAV<lambda_8dff2cf36a5417162780cd64fa2883ef>@@@Z@4HA 000000014004dff0     libucrt:wsetlocale.obj
 0002:00013ff0       $unwind$?fin$0@?0???$?RV<lambda_751a882b2c74d4b022dec766aa51a29a>@@AEAV<lambda_628dfdc04ba53c8bfc02c9951375f3f5>@@V<lambda_f6c7be5f7998530c34de24c7437d6b54>@@@?$__crt_seh_guarded_call@H@@QEAAH$$QEAV<lambda_751a882b2c74d4b022dec766aa51a29a>@@AEAV<lambda_628dfdc04ba53c8bfc02c9951375f3f5>@@$$QEAV<lambda_f6c7be5f7998530c34de24c7437d6b54>@@@Z@4HA 000000014004dff0     libucrt:close.obj
 0002:00013ff0       $unwind$?fin$0@?0???$?RV<lambda_a37b2b86f63e897a80ea819b0eb08c01>@@AEAV<lambda_38ce7e780aa69e748d6df282ebc68efe>@@V<lambda_99fb1378e971ab6e7edea83e3a7a83a2>@@@?$__crt_seh_guarded_call@H@@QEAAH$$QEAV<lambda_a37b2b86f63e897a80ea819b0eb08c01>@@AEAV<lambda_38ce7e780aa69e748d6df282ebc68efe>@@$$QEAV<lambda_99fb1378e971ab6e7edea83e3a7a83a2>@@@Z@4HA 000000014004dff0     libucrt:commit.obj
 0002:00013ff0       $unwind$__acrt_initialize_lowio$fin$0 000000014004dff0     libucrt:ioinit.obj
 0002:00013ff0       $unwind$?fin$0@?0???$common_lseek@_J@@YA_JH_JH@Z@4HA 000000014004dff0     libucrt:lseek.obj
 0002:00013ff0       $unwind$__acrt_lowio_ensure_fh_exists$fin$0 000000014004dff0     libucrt:osfinfo.obj
 0002:00013ff0       $unwind$_alloc_osfhnd$fin$0 000000014004dff0     libucrt:osfinfo.obj
 0002:00013ff0       $unwind$_read$fin$0        000000014004dff0     libucrt:read.obj
 0002:00013ff0       $unwind$_setmode$fin$0     000000014004dff0     libucrt:setmode.obj
 0002:00013ff0       $unwind$_write$fin$0       000000014004dff0     libucrt:write.obj
 0002:00013ff0       $unwind$?fin$0@?0???$?RV<lambda_efdfa57d1f175319df784efa44bb7b81>@@AEAV<lambda_5f0a4c1567f8adc6734073e5d1e1b35c>@@V<lambda_2e8a7d3640ea6ccb4c2413664c2db6fd>@@@?$__crt_seh_guarded_call@X@@QEAAX$$QEAV<lambda_efdfa57d1f175319df784efa44bb7b81>@@AEAV<lambda_5f0a4c1567f8adc6734073e5d1e1b35c>@@$$QEAV<lambda_2e8a7d3640ea6ccb4c2413664c2db6fd>@@@Z@4HA 000000014004dff0     libucrt:mbctype.obj
 0002:00013ff0       $unwind$?fin$0@?0??update_thread_multibyte_data_internal@@YAPEAU__crt_multibyte_data@@QEAU__acrt_ptd@@QEAPEAU1@@Z@4HA 000000014004dff0     libucrt:mbctype.obj
 0002:00013ff0       $unwind$?fin$0@?0???$?RV<lambda_450d765d439847d4c735a33c368b5fc0>@@AEAV<lambda_44731a7d0e6d81c3e6aa82d741081786>@@V<lambda_601a2a7da3b7a96e9554ac7215c4b07c>@@@?$__crt_seh_guarded_call@P6AXH@Z@@QEAAP6AXH@Z$$QEAV<lambda_450d765d439847d4c735a33c368b5fc0>@@AEAV<lambda_44731a7d0e6d81c3e6aa82d741081786>@@$$QEAV<lambda_601a2a7da3b7a96e9554ac7215c4b07c>@@@Z@4HA 000000014004dff0     libucrt:signal.obj
 0002:00013ff0       $unwind$raise$fin$0        000000014004dff0     libucrt:signal.obj
 0002:00013ff0       $unwind$?filt$0@?0???R<lambda_6e4b09c48022b2350581041d5f6b0c4c>@@QEBA@XZ@4HA 000000014004dff0     libucrt:exit.obj
 0002:00013ff0       $unwind$?fin$0@?0???$?RV<lambda_d80eeec6fff315bfe5c115232f3240e3>@@AEAV<lambda_6e4b09c48022b2350581041d5f6b0c4c>@@V<lambda_2358e3775559c9db80273638284d5e45>@@@?$__crt_seh_guarded_call@X@@QEAAX$$QEAV<lambda_d80eeec6fff315bfe5c115232f3240e3>@@AEAV<lambda_6e4b09c48022b2350581041d5f6b0c4c>@@$$QEAV<lambda_2358e3775559c9db80273638284d5e45>@@@Z@4HA 000000014004dff0     libucrt:exit.obj
 0002:00013ff0       $unwind$?fin$0@?0???$?RV<lambda_638799b9deba96c50f710eeac98168cd>@@AEAV<lambda_22ebabd17bc4fa466a2aca6d8deb888d>@@V<lambda_a6f7d7db0129f75315ebf26d50c089f1>@@@?$__crt_seh_guarded_call@H@@QEAAH$$QEAV<lambda_638799b9deba96c50f710eeac98168cd>@@AEAV<lambda_22ebabd17bc4fa466a2aca6d8deb888d>@@$$QEAV<lambda_a6f7d7db0129f75315ebf26d50c089f1>@@@Z@4HA 000000014004dff0     libucrt:onexit.obj
 0002:00013ff0       $unwind$?fin$0@?0???$?RV<lambda_7777bce6b2f8c936911f934f8298dc43>@@AEAV<lambda_f03950bc5685219e0bcd2087efbe011e>@@V<lambda_3883c3dff614d5e0c5f61bb1ac94921c>@@@?$__crt_seh_guarded_call@H@@QEAAH$$QEAV<lambda_7777bce6b2f8c936911f934f8298dc43>@@AEAV<lambda_f03950bc5685219e0bcd2087efbe011e>@@$$QEAV<lambda_3883c3dff614d5e0c5f61bb1ac94921c>@@@Z@4HA 000000014004dff0     libucrt:onexit.obj
 0002:00013ff0       $unwind$_fcloseall$fin$0   000000014004dff0     libucrt:closeall.obj
 0002:00013ff0       $unwind$fclose$fin$0       000000014004dff0     libucrt:fclose.obj
 0002:00013ff0       $unwind$?fin$0@?0???$?RV<lambda_842d9ff0dc9ef11c61343bbaebe7f885>@@AEAV<lambda_c5860995281e5c4ce005b3de8f5874ee>@@V<lambda_d90129c13df834fdcbf8d2b88dafcf2d>@@@?$__crt_seh_guarded_call@X@@QEAAX$$QEAV<lambda_842d9ff0dc9ef11c61343bbaebe7f885>@@AEAV<lambda_c5860995281e5c4ce005b3de8f5874ee>@@$$QEAV<lambda_d90129c13df834fdcbf8d2b88dafcf2d>@@@Z@4HA 000000014004dff0     libucrt:fflush.obj
 0002:00013ff0       $unwind$?fin$0@?0???$?RV<lambda_886d6c58226a84441f68b9f2b8217b83>@@AEAV<lambda_ab61a845afdef5b7c387490eaf3616ee>@@V<lambda_f7f22ab5edc0698d5f6905b0d3f44752>@@@?$__crt_seh_guarded_call@X@@QEAAX$$QEAV<lambda_886d6c58226a84441f68b9f2b8217b83>@@AEAV<lambda_ab61a845afdef5b7c387490eaf3616ee>@@$$QEAV<lambda_f7f22ab5edc0698d5f6905b0d3f44752>@@@Z@4HA 000000014004dff0     libucrt:fflush.obj
 0002:00013ff0       $unwind$?fin$0@?0???$?RV<lambda_c376a267cfb53b6959b3b692ec76b120>@@AEAV<lambda_9a32fed5bf61b6b509b2d3f6003082a1>@@V<lambda_572fbb9fa0ab338edf41edfd4b5fcc8d>@@@?$__crt_seh_guarded_call@H@@QEAAH$$QEAV<lambda_c376a267cfb53b6959b3b692ec76b120>@@AEAV<lambda_9a32fed5bf61b6b509b2d3f6003082a1>@@$$QEAV<lambda_572fbb9fa0ab338edf41edfd4b5fcc8d>@@@Z@4HA 000000014004dff0     libucrt:fflush.obj
 0002:00013ff0       $unwind$?fin$0@?0???$common_fsopen@D@@YAPEAU_iobuf@@QEBD0H@Z@4HA 000000014004dff0     libucrt:fopen.obj
 0002:00013ff0       $unwind$?fin$0@?0??common_fseek@@YAHV__crt_stdio_stream@@_JH@Z@4HA 000000014004dff0     libucrt:fseek.obj
 0002:00013ff0       $unwind$?fin$0@?0???$?RV<lambda_2831f20263db5b546e098b45503eb778>@@AEAV<lambda_5856287d7ecd2be6c9197bb4007c3f6e>@@V<lambda_0838d7e100fbcbd261b69cfea6abb102>@@@?$__crt_seh_guarded_call@_K@@QEAA_K$$QEAV<lambda_2831f20263db5b546e098b45503eb778>@@AEAV<lambda_5856287d7ecd2be6c9197bb4007c3f6e>@@$$QEAV<lambda_0838d7e100fbcbd261b69cfea6abb102>@@@Z@4HA 000000014004dff0     libucrt:fwrite.obj
 0002:00013ff0       $unwind$?fin$0@?0???$?RV<lambda_fe5404e9642edbb7c8ae71e1dcfa4018>@@AEAV<lambda_36eeb330e99a4f0bf8a7da86d0894cb9>@@V<lambda_2fa474834de80dc12f7a3c6eddd7a366>@@@?$__crt_seh_guarded_call@H@@QEAAH$$QEAV<lambda_fe5404e9642edbb7c8ae71e1dcfa4018>@@AEAV<lambda_36eeb330e99a4f0bf8a7da86d0894cb9>@@$$QEAV<lambda_2fa474834de80dc12f7a3c6eddd7a366>@@@Z@4HA 000000014004dff0     libucrt:output.obj
 0002:00013ff0       $unwind$?fin$0@?0??__acrt_stdio_allocate_stream@@YA?AV__crt_stdio_stream@@XZ@4HA 000000014004dff0     libucrt:stream.obj
 0002:00013ff0       $unwind$_ctrlfp$filt$0     000000014004dff0     libucrt:fpctrl.obj
 0002:00013ff0       $unwind$?dtor$1@?0???0BPMDetect@soundtouch@@QEAA@HH@Z@4HA 000000014004dff0     SoundTouch_x64:BPMDetect.obj
 0002:00013ff0       $unwind$?dtor$0@?0??newInstance@FIRFilter@soundtouch@@SAPEAV12@XZ@4HA 000000014004dff0     SoundTouch_x64:FIRFilter.obj
 0002:00013ff0       $unwind$?dtor$4@?0???0RateTransposer@soundtouch@@QEAA@XZ@4HA 000000014004dff0     SoundTouch_x64:RateTransposer.obj
 0002:00013ff0       $unwind$?dtor$5@?0???0RateTransposer@soundtouch@@QEAA@XZ@4HA 000000014004dff0     SoundTouch_x64:RateTransposer.obj
 0002:00013ff0       $unwind$?dtor$6@?0???0RateTransposer@soundtouch@@QEAA@XZ@4HA 000000014004dff0     SoundTouch_x64:RateTransposer.obj
 0002:00013ff0       $unwind$?dtor$7@?0???0RateTransposer@soundtouch@@QEAA@XZ@4HA 000000014004dff0     SoundTouch_x64:RateTransposer.obj
 0002:00013ff0       $unwind$?dtor$1@?0???0SoundTouch@soundtouch@@QEAA@XZ@4HA 000000014004dff0     SoundTouch_x64:SoundTouch.obj
 0002:00013ff0       $unwind$?dtor$0@?0??newInstance@TDStretch@soundtouch@@SAPEAV12@XZ@4HA 000000014004dff0     SoundTouch_x64:TDStretch.obj
 0002:00013ff0       $unwind$?dtor$1@?0??newInstance@TDStretch@soundtouch@@SAPEAV12@XZ@4HA 000000014004dff0     SoundTouch_x64:TDStretch.obj
 0002:00013ff8       $unwind$?setup@@YAXPEAVSoundTouch@soundtouch@@PEBVWavInFile@@PEBVRunParameters@@@Z 000000014004dff8     main.obj
 0002:00014004       $chain$0$?setup@@YAXPEAVSoundTouch@soundtouch@@PEBVWavInFile@@PEBVRunParameters@@@Z 000000014004e004     main.obj
 0002:00014018       $chain$1$?setup@@YAXPEAVSoundTouch@soundtouch@@PEBVWavInFile@@PEBVRunParameters@@@Z 000000014004e018     main.obj
 0002:0001402c       $chain$2$?setup@@YAXPEAVSoundTouch@soundtouch@@PEBVWavInFile@@PEBVRunParameters@@@Z 000000014004e02c     main.obj
 0002:0001403c       $chain$3$?setup@@YAXPEAVSoundTouch@soundtouch@@PEBVWavInFile@@PEBVRunParameters@@@Z 000000014004e03c     main.obj
 0002:0001404c       $chain$4$?setup@@YAXPEAVSoundTouch@soundtouch@@PEBVWavInFile@@PEBVRunParameters@@@Z 000000014004e04c     main.obj
 0002:00014060       $chain$5$?setup@@YAXPEAVSoundTouch@soundtouch@@PEBVWavInFile@@PEBVRunParameters@@@Z 000000014004e060     main.obj
 0002:00014070       $unwind$?process@@YAXPEAVSoundTouch@soundtouch@@PEAVWavInFile@@PEAVWavOutFile@@@Z 000000014004e070     main.obj
 0002:00014088       $chain$2$?process@@YAXPEAVSoundTouch@soundtouch@@PEAVWavInFile@@PEAVWavOutFile@@@Z 000000014004e088     main.obj
 0002:000140a4       $chain$3$?process@@YAXPEAVSoundTouch@soundtouch@@PEAVWavInFile@@PEAVWavOutFile@@@Z 000000014004e0a4     main.obj
 0002:000140b4       $unwind$?detectBPM@@YAXPEAVWavInFile@@PEAVRunParameters@@@Z 000000014004e0b4     main.obj
 0002:000140e0       $cppxdata$?detectBPM@@YAXPEAVWavInFile@@PEAVRunParameters@@@Z 000000014004e0e0     main.obj
 0002:000140e9       $stateUnwindMap$?detectBPM@@YAXPEAVWavInFile@@PEAVRunParameters@@@Z 000000014004e0e9     main.obj
 0002:000140f0       $ip2state$?detectBPM@@YAXPEAVWavInFile@@PEAVRunParameters@@@Z 000000014004e0f0     main.obj
 0002:000140f8       $unwind$main               000000014004e0f8     main.obj
 0002:00014114       $cppxdata$main             000000014004e114     main.obj
 0002:00014121       $stateUnwindMap$main       000000014004e121     main.obj
 0002:0001412f       $tryMap$main               000000014004e12f     main.obj
 0002:00014137       $handlerMap$main           000000014004e137     main.obj
 0002:00014145       $ip2state$main             000000014004e145     main.obj
 0002:00014154       $unwind$main$catch$2       000000014004e154     main.obj
 0002:00014160       $unwind$??0?$basic_string@DU?$char_traits@D@std@@V?$allocator@D@2@@std@@QEAA@QEBD@Z 000000014004e160     RunParameters.obj
 0002:00014160       $unwind$??0bad_alloc@std@@QEAA@AEBV01@@Z 000000014004e160     RunParameters.obj
 0002:00014160       $unwind$??0bad_array_new_length@std@@QEAA@AEBV01@@Z 000000014004e160     RunParameters.obj
 0002:00014160       $unwind$??0exception@std@@QEAA@AEBV01@@Z 000000014004e160     RunParameters.obj
 0002:00014160       $unwind$??0runtime_error@std@@QEAA@AEBV01@@Z 000000014004e160     RunParameters.obj
 0002:00014160       $unwind$??1?$basic_string@DU?$char_traits@D@std@@V?$allocator@D@2@@std@@QEAA@XZ 000000014004e160     RunParameters.obj
 0002:00014160       $unwind$??0bad_cast@std@@QEAA@AEBV01@@Z 000000014004e160     WavFile.obj
 0002:00014160       $unwind$??1?$_Tidy_guard@V?$numpunct@D@std@@@std@@QEAA@XZ 000000014004e160     WavFile.obj
 0002:00014160       $unwind$??1?$_Yarn@D@std@@QEAA@XZ 000000014004e160     WavFile.obj
 0002:00014160       $unwind$??1?$_Yarn@_W@std@@QEAA@XZ 000000014004e160     WavFile.obj
 0002:00014160       $unwind$??1?$basic_stringbuf@DU?$char_traits@D@std@@V?$allocator@D@2@@std@@UEAA@XZ 000000014004e160     WavFile.obj
 0002:00014160       $unwind$??1WavFileBase@@MEAA@XZ 000000014004e160     WavFile.obj
 0002:00014160       $unwind$??_G?$num_put@DV?$ostreambuf_iterator@DU?$char_traits@D@std@@@std@@@std@@MEAAPEAXI@Z 000000014004e160     WavFile.obj
 0002:00014160       $unwind$??_G_Facet_base@std@@UEAAPEAXI@Z 000000014004e160     WavFile.obj
 0002:00014160       $unwind$??_G_Iostream_error_category@std@@UEAAPEAXI@Z 000000014004e160     WavFile.obj
 0002:00014160       $unwind$?do_falsename@?$numpunct@D@std@@MEBA?AV?$basic_string@DU?$char_traits@D@std@@V?$allocator@D@2@@2@XZ 000000014004e160     WavFile.obj
 0002:00014160       $unwind$?do_grouping@?$numpunct@D@std@@MEBA?AV?$basic_string@DU?$char_traits@D@std@@V?$allocator@D@2@@2@XZ 000000014004e160     WavFile.obj
 0002:00014160       $unwind$?do_narrow@?$ctype@D@std@@MEBAPEBDPEBD0DPEAD@Z 000000014004e160     WavFile.obj
 0002:00014160       $unwind$?do_truename@?$numpunct@D@std@@MEBA?AV?$basic_string@DU?$char_traits@D@std@@V?$allocator@D@2@@2@XZ 000000014004e160     WavFile.obj
 0002:00014160       $unwind$?do_widen@?$ctype@D@std@@MEBAPEBDPEBD0PEAD@Z 000000014004e160     WavFile.obj
 0002:00014160       $unwind$?message@_Iostream_error_category@std@@UEBA?AV?$basic_string@DU?$char_traits@D@std@@V?$allocator@D@2@@2@H@Z 000000014004e160     WavFile.obj
 0002:00014160       $unwind$?rewind@WavInFile@@QEAAXXZ 000000014004e160     WavFile.obj
 0002:00014160       $unwind$?uflow@?$basic_streambuf@DU?$char_traits@D@std@@@std@@MEAAHXZ 000000014004e160     WavFile.obj
 0002:00014160       $unwind$?pre_c_initialization@@YAHXZ 000000014004e160     LIBCMT:exe_main.obj
 0002:00014160       $unwind$__raise_securityfailure 000000014004e160     LIBCMT:gs_report.obj
 0002:00014160       $unwind$??2@YAPEAX_K@Z     000000014004e160     LIBCMT:new_scalar.obj
 0002:00014160       $unwind$??_Gtype_info@@UEAAPEAXI@Z 000000014004e160     LIBCMT:std_type_info_static.obj
 0002:00014160       $unwind$__scrt_initialize_crt 000000014004e160     LIBCMT:utility.obj
 0002:00014160       $unwind$__scrt_initialize_onexit_tables 000000014004e160     LIBCMT:utility.obj
 0002:00014160       $unwind$__scrt_release_startup_lock 000000014004e160     LIBCMT:utility.obj
 0002:00014160       $unwind$__scrt_uninitialize_crt 000000014004e160     LIBCMT:utility.obj
 0002:00014160       $unwind$_onexit            000000014004e160     LIBCMT:utility.obj
 0002:00014160       $unwind$_Getctype          000000014004e160     libcpmt:_tolower.obj
 0002:00014160       $unwind$?_Addstd@ios_base@std@@SAXPEAV12@@Z 000000014004e160     libcpmt:ios.obj
 0002:00014160       $unwind$?_Ios_base_dtor@ios_base@std@@CAXPEAV12@@Z 000000014004e160     libcpmt:ios.obj
 0002:00014160       $unwind$??__F_Fac_tidy_reg@std@@YAXXZ 000000014004e160     libcpmt:locale0.obj
 0002:00014160       $unwind$?_Facet_Register@std@@YAXPEAV_Facet_base@1@@Z 000000014004e160     libcpmt:locale0.obj
 0002:00014160       $unwind$?_Setgloballocale@locale@std@@CAXPEAX@Z 000000014004e160     libcpmt:locale0.obj
 0002:00014160       $unwind$?initialize_pointers@@YAHXZ 000000014004e160     libcpmt:winapisupp.obj
 0002:00014160       $unwind$??0_Lockit@std@@QEAA@H@Z 000000014004e160     libcpmt:xlock.obj
 0002:00014160       $unwind$??1_Init_locks@std@@QEAA@XZ 000000014004e160     libcpmt:xlock.obj
 0002:00014160       $unwind$??0length_error@std@@QEAA@AEBV01@@Z 000000014004e160     libcpmt:xthrow.obj
 0002:00014160       $unwind$??0logic_error@std@@QEAA@AEBV01@@Z 000000014004e160     libcpmt:xthrow.obj
 0002:00014160       $unwind$??0out_of_range@std@@QEAA@AEBV01@@Z 000000014004e160     libcpmt:xthrow.obj
 0002:00014160       $unwind$_IsExceptionObjectToBeDestroyed 000000014004e160     libvcruntime:ehhelpers.obj
 0002:00014160       $unwind$?GetUnwindTryBlock@__FrameHandler3@@SAHPEA_KPEAU_xDISPATCHER_CONTEXT@@PEBU_s_FuncInfo@@@Z 000000014004e160     libvcruntime:ehstate.obj
 0002:00014160       $unwind$?StateFromIp@__FrameHandler3@@SAHPEBU_s_FuncInfo@@PEAU_xDISPATCHER_CONTEXT@@_K@Z 000000014004e160     libvcruntime:ehstate.obj
 0002:00014160       $unwind$??0HandlerMap4@FH4@@QEAA@PEBUTryBlockMapEntry4@1@_KH@Z 000000014004e160     libvcruntime:frame.obj
 0002:00014160       $unwind$??0bad_exception@std@@QEAA@AEBV01@@Z 000000014004e160     libvcruntime:frame.obj
 0002:00014160       $unwind$?ExFilterRethrow@@YAHPEAU_EXCEPTION_POINTERS@@PEAUEHExceptionRecord@@PEAH@Z 000000014004e160     libvcruntime:frame.obj
 0002:00014160       $unwind$__vcrt_uninitialize_locks 000000014004e160     libvcruntime:locks.obj
 0002:00014160       $unwind$?ExecutionInCatch@__FrameHandler3@@SA_NPEAU_xDISPATCHER_CONTEXT@@PEBU_s_FuncInfo@@@Z 000000014004e160     libvcruntime:risctrnsctrl.obj
 0002:00014160       $unwind$_CreateFrameInfo   000000014004e160     libvcruntime:risctrnsctrl.obj
 0002:00014160       $unwind$_SetImageBase      000000014004e160     libvcruntime:risctrnsctrl.obj
 0002:00014160       $unwind$_SetThrowImageBase 000000014004e160     libvcruntime:risctrnsctrl.obj
 0002:00014160       $unwind$__std_exception_destroy 000000014004e160     libvcruntime:std_exception.obj
 0002:00014160       $unwind$__vcrt_FlsAlloc    000000014004e160     libvcruntime:winapi_downlevel.obj
 0002:00014160       $unwind$__vcrt_FlsFree     000000014004e160     libvcruntime:winapi_downlevel.obj
 0002:00014160       $unwind$__vcrt_FlsGetValue 000000014004e160     libvcruntime:winapi_downlevel.obj
 0002:00014160       $unwind$?__c16rtomb_utf8@__crt_mbstring@@YA_KPEAD_SPEAU_Mbstatet@@@Z 000000014004e160     libucrt:c16rtomb.obj
 0002:00014160       $unwind$_calloc_base       000000014004e160     libucrt:calloc_base.obj
 0002:00014160       $unwind$_malloc_base       000000014004e160     libucrt:malloc_base.obj
 0002:00014160       $unwind$_callnewh          000000014004e160     libucrt:new_handler.obj
 0002:00014160       $unwind$initialize_pointers 000000014004e160     libucrt:initialization.obj
 0002:00014160       $unwind$uninitialize_allocated_memory 000000014004e160     libucrt:initialization.obj
 0002:00014160       $unwind$__acrt_initialize_locks 000000014004e160     libucrt:locks.obj
 0002:00014160       $unwind$__acrt_uninitialize_locks 000000014004e160     libucrt:locks.obj
 0002:00014160       $unwind$__acrt_getptd_head 000000014004e160     libucrt:per_thread_data.obj
 0002:00014160       $unwind$__acrt_get_process_end_policy 000000014004e160     libucrt:win_policies.obj
 0002:00014160       $unwind$__acrt_AppPolicyGetProcessTerminationMethodInternal 000000014004e160     libucrt:winapi_thunks.obj
 0002:00014160       $unwind$__acrt_FlsAlloc    000000014004e160     libucrt:winapi_thunks.obj
 0002:00014160       $unwind$__acrt_FlsFree     000000014004e160     libucrt:winapi_thunks.obj
 0002:00014160       $unwind$__acrt_FlsGetValue 000000014004e160     libucrt:winapi_thunks.obj
 0002:00014160       $unwind$__acrt_IsValidLocaleName 000000014004e160     libucrt:winapi_thunks.obj
 0002:00014160       $unwind$__acrt_uninitialize_winapi_thunks 000000014004e160     libucrt:winapi_thunks.obj
 0002:00014160       $unwind$__acrt_update_locale_info 000000014004e160     libucrt:locale_update.obj
 0002:00014160       $unwind$__acrt_update_multibyte_info 000000014004e160     libucrt:locale_update.obj
 0002:00014160       $unwind$_configthreadlocale 000000014004e160     libucrt:wsetlocale.obj
 0002:00014160       $unwind$__acrt_allocate_buffer_for_argv 000000014004e160     libucrt:argv_parsing.obj
 0002:00014160       $unwind$?exit_or_terminate_process@@YAXI@Z 000000014004e160     libucrt:exit.obj
 0002:00014160       $unwind$?try_cor_exit_process@@YAXI@Z 000000014004e160     libucrt:exit.obj
 0002:00014160       $unwind$__acrt_uninitialize_stdio 000000014004e160     libucrt:_file.obj
 0002:00014160       $unwind$?stream_is_at_end_of_file_nolock@@YA_NV__crt_stdio_stream@@@Z 000000014004e160     libucrt:_flsbuf.obj
 0002:00014160       $unwind$__acrt_stdio_free_buffer_nolock 000000014004e160     libucrt:_freebuf.obj
 0002:00014160       $unwind$_fflush_nolock     000000014004e160     libucrt:fflush.obj
 0002:00014160       $unwind$?state_case_normal@?$output_processor@DV?$stream_output_adapter@D@__crt_stdio_output@@V?$standard_base@DV?$stream_output_adapter@D@__crt_stdio_output@@@2@@__crt_stdio_output@@AEAA_NXZ 000000014004e160     libucrt:output.obj
 0002:00014160       $unwind$?state_case_normal@?$output_processor@DV?$string_output_adapter@D@__crt_stdio_output@@V?$format_validation_base@DV?$string_output_adapter@D@__crt_stdio_output@@@2@@__crt_stdio_output@@AEAA_NXZ 000000014004e160     libucrt:output.obj
 0002:00014160       $unwind$?state_case_normal_tchar@?$output_processor@DV?$stream_output_adapter@D@__crt_stdio_output@@V?$standard_base@DV?$stream_output_adapter@D@__crt_stdio_output@@@2@@__crt_stdio_output@@AEAA_ND@Z 000000014004e160     libucrt:output.obj
 0002:00014160       $unwind$?type_case_c_tchar@?$output_processor@DV?$stream_output_adapter@D@__crt_stdio_output@@V?$standard_base@DV?$stream_output_adapter@D@__crt_stdio_output@@@2@@__crt_stdio_output@@AEAA_ND@Z 000000014004e160     libucrt:output.obj
 0002:00014160       $unwind$?type_case_c_tchar@?$output_processor@DV?$string_output_adapter@D@__crt_stdio_output@@V?$format_validation_base@DV?$string_output_adapter@D@__crt_stdio_output@@@2@@__crt_stdio_output@@AEAA_ND@Z 000000014004e160     libucrt:output.obj
 0002:00014160       $unwind$?type_case_s@?$output_processor@DV?$stream_output_adapter@D@__crt_stdio_output@@V?$standard_base@DV?$stream_output_adapter@D@__crt_stdio_output@@@2@@__crt_stdio_output@@AEAA_NXZ 000000014004e160     libucrt:output.obj
 0002:00014160       $unwind$?type_case_s@?$output_processor@DV?$string_output_adapter@D@__crt_stdio_output@@V?$format_validation_base@DV?$string_output_adapter@D@__crt_stdio_output@@@2@@__crt_stdio_output@@AEAA_NXZ 000000014004e160     libucrt:output.obj
 0002:00014160       $unwind$strcpy_s           000000014004e160     libucrt:strcpy_s.obj
 0002:00014160       $unwind$wcscat_s           000000014004e160     libucrt:wcscat_s.obj
 0002:00014160       $unwind$wcscpy_s           000000014004e160     libucrt:wcscpy_s.obj
 0002:00014160       $unwind$_clrfp             000000014004e160     libucrt:fpctrl.obj
 0002:00014160       $unwind$_set_statfp        000000014004e160     libucrt:fpctrl.obj
 0002:00014160       $unwind$_clearfp           000000014004e160     libucrt:ieee.obj
 0002:00014160       $unwind$fegetenv           000000014004e160     libucrt:fegetenv.obj
 0002:00014160       $unwind$feholdexcept       000000014004e160     libucrt:feholdexcept.obj
 0002:00014160       $unwind$fesetenv           000000014004e160     libucrt:fesetenv.obj
 0002:00014160       $unwind$??1?$vector@UBEAT@soundtouch@@V?$allocator@UBEAT@soundtouch@@@std@@@std@@QEAA@XZ 000000014004e160     SoundTouch_x64:BPMDetect.obj
 0002:00014160       $unwind$??1BPMDetect@soundtouch@@UEAA@XZ 000000014004e160     SoundTouch_x64:BPMDetect.obj
 0002:00014160       $unwind$??1FIFOSampleBuffer@soundtouch@@UEAA@XZ 000000014004e160     SoundTouch_x64:FIFOSampleBuffer.obj
 0002:00014160       $unwind$?ptrEnd@FIFOSampleBuffer@soundtouch@@QEAAPEAMI@Z 000000014004e160     SoundTouch_x64:FIFOSampleBuffer.obj
 0002:00014160       $unwind$??0InterpolateCubic@soundtouch@@QEAA@XZ 000000014004e160     SoundTouch_x64:InterpolateCubic.obj
 0002:00014160       $unwind$??0InterpolateShannon@soundtouch@@QEAA@XZ 000000014004e160     SoundTouch_x64:InterpolateShannon.obj
 0002:00014160       $unwind$??_GTransposerBase@soundtouch@@UEAAPEAXI@Z 000000014004e160     SoundTouch_x64:RateTransposer.obj
 0002:00014160       $unwind$?clear@RateTransposer@soundtouch@@UEAAXXZ 000000014004e160     SoundTouch_x64:RateTransposer.obj
 0002:00014160       $unwind$?isEmpty@RateTransposer@soundtouch@@UEBAHXZ 000000014004e160     SoundTouch_x64:RateTransposer.obj
 0002:00014160       $unwind$??1SoundTouch@soundtouch@@UEAA@XZ 000000014004e160     SoundTouch_x64:SoundTouch.obj
 0002:00014160       $unwind$??_GFIFOSamplePipe@soundtouch@@UEAAPEAXI@Z 000000014004e160     SoundTouch_x64:SoundTouch.obj
 0002:00014160       $unwind$?clear@SoundTouch@soundtouch@@UEAAXXZ 000000014004e160     SoundTouch_x64:SoundTouch.obj
 0002:00014160       $unwind$?receiveSamples@SoundTouch@soundtouch@@UEAAII@Z 000000014004e160     SoundTouch_x64:SoundTouch.obj
 0002:00014160       $unwind$?receiveSamples@SoundTouch@soundtouch@@UEAAIPEAMI@Z 000000014004e160     SoundTouch_x64:SoundTouch.obj
 0002:00014160       $unwind$?setPitchSemiTones@SoundTouch@soundtouch@@QEAAXN@Z 000000014004e160     SoundTouch_x64:SoundTouch.obj
 0002:00014160       $unwind$?clear@TDStretch@soundtouch@@UEAAXXZ 000000014004e160     SoundTouch_x64:TDStretch.obj
 0002:00014160       $unwind$?clearInput@TDStretch@soundtouch@@QEAAXXZ 000000014004e160     SoundTouch_x64:TDStretch.obj
 0002:00014160       $unwind$?putSamples@TDStretch@soundtouch@@UEAAXPEBMI@Z 000000014004e160     SoundTouch_x64:TDStretch.obj
 0002:00014160       $unwind$?setTempo@TDStretch@soundtouch@@QEAAXN@Z 000000014004e160     SoundTouch_x64:TDStretch.obj
 0002:00014160       $unwind$??0FIRFilterSSE@soundtouch@@QEAA@XZ 000000014004e160     SoundTouch_x64:sse_optimized.obj
 0002:00014168       $unwind$??_Gbad_alloc@std@@UEAAPEAXI@Z 000000014004e168     RunParameters.obj
 0002:00014168       $unwind$??_Gbad_array_new_length@std@@UEAAPEAXI@Z 000000014004e168     RunParameters.obj
 0002:00014168       $unwind$??_Gexception@std@@UEAAPEAXI@Z 000000014004e168     RunParameters.obj
 0002:00014168       $unwind$??_Gruntime_error@std@@UEAAPEAXI@Z 000000014004e168     RunParameters.obj
 0002:00014168       $unwind$??0_System_error@std@@QEAA@AEBV01@@Z 000000014004e168     WavFile.obj
 0002:00014168       $unwind$??0failure@ios_base@std@@QEAA@AEBV012@@Z 000000014004e168     WavFile.obj
 0002:00014168       $unwind$??0system_error@std@@QEAA@AEBV01@@Z 000000014004e168     WavFile.obj
 0002:00014168       $unwind$??_G?$basic_stringbuf@DU?$char_traits@D@std@@V?$allocator@D@2@@std@@UEAAPEAXI@Z 000000014004e168     WavFile.obj
 0002:00014168       $unwind$??_G?$basic_stringstream@DU?$char_traits@D@std@@V?$allocator@D@2@@std@@UEAAPEAXI@Z 000000014004e168     WavFile.obj
 0002:00014168       $unwind$??_G?$ctype@D@std@@MEAAPEAXI@Z 000000014004e168     WavFile.obj
 0002:00014168       $unwind$??_G?$numpunct@D@std@@MEAAPEAXI@Z 000000014004e168     WavFile.obj
 0002:00014168       $unwind$??_GWavFileBase@@MEAAPEAXI@Z 000000014004e168     WavFile.obj
 0002:00014168       $unwind$??_GWavInFile@@UEAAPEAXI@Z 000000014004e168     WavFile.obj
 0002:00014168       $unwind$??_G_System_error@std@@UEAAPEAXI@Z 000000014004e168     WavFile.obj
 0002:00014168       $unwind$??_Gbad_cast@std@@UEAAPEAXI@Z 000000014004e168     WavFile.obj
 0002:00014168       $unwind$??_Gfailure@ios_base@std@@UEAAPEAXI@Z 000000014004e168     WavFile.obj
 0002:00014168       $unwind$??_Gsystem_error@std@@UEAAPEAXI@Z 000000014004e168     WavFile.obj
 0002:00014168       $unwind$?readWavHeaders@WavInFile@@AEAAHXZ 000000014004e168     WavFile.obj
 0002:00014168       $unwind$_RTC_Initialize    000000014004e168     LIBCMT:initsect.obj
 0002:00014168       $unwind$_RTC_Terminate     000000014004e168     LIBCMT:initsect.obj
 0002:00014168       $unwind$__scrt_unhandled_exception_filter 000000014004e168     LIBCMT:utility_desktop.obj
 0002:00014168       $unwind$??_G_Locimp@locale@std@@MEAAPEAXI@Z 000000014004e168     libcpmt:locale0.obj
 0002:00014168       $unwind$?_Locinfo_ctor@_Locinfo@std@@SAXPEAV12@PEBD@Z 000000014004e168     libcpmt:locale0.obj
 0002:00014168       $unwind$?_New_Locimp@_Locimp@locale@std@@CAPEAV123@_N@Z 000000014004e168     libcpmt:locale0.obj
 0002:00014168       $unwind$??0_Init_locks@std@@QEAA@XZ 000000014004e168     libcpmt:xlock.obj
 0002:00014168       $unwind$??_Glength_error@std@@UEAAPEAXI@Z 000000014004e168     libcpmt:xthrow.obj
 0002:00014168       $unwind$??_Glogic_error@std@@UEAAPEAXI@Z 000000014004e168     libcpmt:xthrow.obj
 0002:00014168       $unwind$??_Gout_of_range@std@@UEAAPEAXI@Z 000000014004e168     libcpmt:xthrow.obj
 0002:00014168       $unwind$_Getcvt            000000014004e168     libcpmt:xwctomb.obj
 0002:00014168       $unwind$__FrameUnwindFilter 000000014004e168     libvcruntime:ehhelpers.obj
 0002:00014168       $unwind$?SetUnwindTryBlock@__FrameHandler3@@SAXPEA_KPEAU_xDISPATCHER_CONTEXT@@PEBU_s_FuncInfo@@H@Z 000000014004e168     libvcruntime:ehstate.obj
 0002:00014168       $unwind$??_Gbad_exception@std@@UEAAPEAXI@Z 000000014004e168     libvcruntime:frame.obj
 0002:00014168       $unwind$?ExFilterRethrowFH4@@YAHPEAU_EXCEPTION_POINTERS@@PEAUEHExceptionRecord@@HPEAH@Z 000000014004e168     libvcruntime:frame.obj
 0002:00014168       $unwind$__vcrt_getptd_noinit 000000014004e168     libvcruntime:per_thread_data.obj
 0002:00014168       $unwind$_FindAndUnlinkFrame 000000014004e168     libvcruntime:risctrnsctrl.obj
 0002:00014168       $unwind$__vcrt_FlsSetValue 000000014004e168     libvcruntime:winapi_downlevel.obj
 0002:00014168       $unwind$??$common_initialize_environment_nolock@D@@YAHXZ 000000014004e168     libucrt:environment_initialization.obj
 0002:00014168       $unwind$__acrt_fp_strflt_to_string 000000014004e168     libucrt:_fptostr.obj
 0002:00014168       $unwind$_realloc_base      000000014004e168     libucrt:realloc_base.obj
 0002:00014168       $unwind$?replace_current_thread_locale_nolock@@YAXQEAU__acrt_ptd@@QEAU__crt_locale_data@@@Z 000000014004e168     libucrt:per_thread_data.obj
 0002:00014168       $unwind$__acrt_execute_uninitializers 000000014004e168     libucrt:shared_initialization.obj
 0002:00014168       $unwind$__acrt_FlsSetValue 000000014004e168     libucrt:winapi_thunks.obj
 0002:00014168       $unwind$__acrt_GetUserDefaultLocaleName 000000014004e168     libucrt:winapi_thunks.obj
 0002:00014168       $unwind$__acrt_LocaleNameToLCID 000000014004e168     libucrt:winapi_thunks.obj
 0002:00014168       $unwind$GetLocaleNameFromLangCountry 000000014004e168     libucrt:get_qualified_locale.obj
 0002:00014168       $unwind$GetLocaleNameFromLanguage 000000014004e168     libucrt:get_qualified_locale.obj
 0002:00014168       $unwind$GetLcidFromLangCountry 000000014004e168     libucrt:getqloc_downlevel.obj
 0002:00014168       $unwind$GetLcidFromLanguage 000000014004e168     libucrt:getqloc_downlevel.obj
 0002:00014168       $unwind$_updatetlocinfoEx_nolock 000000014004e168     libucrt:locale_refcounting.obj
 0002:00014168       $unwind$_close_nolock      000000014004e168     libucrt:close.obj
 0002:00014168       $unwind$__acrt_uninitialize_lowio 000000014004e168     libucrt:ioinit.obj
 0002:00014168       $unwind$__acrt_errno_map_os_error 000000014004e168     libucrt:errno.obj
 0002:00014168       $unwind$_initterm_e        000000014004e168     libucrt:initterm.obj
 0002:00014168       $unwind$__acrt_stdio_allocate_buffer_nolock 000000014004e168     libucrt:_getbuf.obj
 0002:00014168       $unwind$__acrt_stdio_begin_temporary_buffering_nolock 000000014004e168     libucrt:_sftbuf.obj
 0002:00014168       $unwind$_fclose_nolock     000000014004e168     libucrt:fclose.obj
 0002:00014168       $unwind$?common_fseek_binary_mode_read_only_fast_track_nolock@@YA_NV__crt_stdio_stream@@_JH@Z 000000014004e168     libucrt:fseek.obj
 0002:00014168       $unwind$strncpy_s          000000014004e168     libucrt:strncpy_s.obj
 0002:00014168       $unwind$wcsncat_s          000000014004e168     libucrt:wcsncat_s.obj
 0002:00014168       $unwind$wcsncpy_s          000000014004e168     libucrt:wcsncpy_s.obj
 0002:00014168       $unwind$??0AAFilter@soundtouch@@QEAA@I@Z 000000014004e168     SoundTouch_x64:AAFilter.obj
 0002:00014168       $unwind$??_GBPMDetect@soundtouch@@UEAAPEAXI@Z 000000014004e168     SoundTouch_x64:BPMDetect.obj
 0002:00014168       $unwind$??_GFIFOSampleBuffer@soundtouch@@UEAAPEAXI@Z 000000014004e168     SoundTouch_x64:FIFOSampleBuffer.obj
 0002:00014168       $unwind$?putSamples@FIFOSampleBuffer@soundtouch@@UEAAXI@Z 000000014004e168     SoundTouch_x64:FIFOSampleBuffer.obj
 0002:00014168       $unwind$??_GFIRFilter@soundtouch@@UEAAPEAXI@Z 000000014004e168     SoundTouch_x64:FIRFilter.obj
 0002:00014168       $unwind$??_GInterpolateCubic@soundtouch@@UEAAPEAXI@Z 000000014004e168     SoundTouch_x64:InterpolateCubic.obj
 0002:00014168       $unwind$??_GInterpolateLinearFloat@soundtouch@@UEAAPEAXI@Z 000000014004e168     SoundTouch_x64:InterpolateLinear.obj
 0002:00014168       $unwind$??_GInterpolateShannon@soundtouch@@UEAAPEAXI@Z 000000014004e168     SoundTouch_x64:InterpolateShannon.obj
 0002:00014168       $unwind$??_GSoundTouch@soundtouch@@UEAAPEAXI@Z 000000014004e168     SoundTouch_x64:SoundTouch.obj
 0002:00014168       $unwind$??_GTDStretch@soundtouch@@UEAAPEAXI@Z 000000014004e168     SoundTouch_x64:TDStretch.obj
 0002:00014168       $unwind$??_GTDStretchSSE@soundtouch@@UEAAPEAXI@Z 000000014004e168     SoundTouch_x64:TDStretch.obj
 0002:00014168       $unwind$??_GFIRFilterSSE@soundtouch@@UEAAPEAXI@Z 000000014004e168     SoundTouch_x64:sse_optimized.obj
 0002:00014174       $unwind$?_Throw_bad_array_new_length@std@@YAXXZ 000000014004e174     RunParameters.obj
 0002:00014174       $unwind$?throwLicense@RunParameters@@AEBAXXZ 000000014004e174     RunParameters.obj
 0002:00014174       $unwind$?_Throw_bad_cast@std@@YAXXZ 000000014004e174     WavFile.obj
 0002:00014174       $unwind$?__scrt_throw_std_bad_alloc@@YAXXZ 000000014004e174     LIBCMT:throw_bad_alloc.obj
 0002:00014174       $unwind$?__scrt_throw_std_bad_array_new_length@@YAXXZ 000000014004e174     LIBCMT:throw_bad_alloc.obj
 0002:00014174       $unwind$?_Xbad_alloc@std@@YAXXZ 000000014004e174     libcpmt:xthrow.obj
 0002:00014174       $unwind$?_Xlength_error@std@@YAXPEBD@Z 000000014004e174     libcpmt:xthrow.obj
 0002:00014174       $unwind$?_Xout_of_range@std@@YAXPEBD@Z 000000014004e174     libcpmt:xthrow.obj
 0002:00014174       $unwind$?_Xruntime_error@std@@YAXPEBD@Z 000000014004e174     libcpmt:xthrow.obj
 0002:00014174       $unwind$_raise_exc         000000014004e174     libucrt:fpexcept.obj
 0002:00014174       $unwind$_raise_excf        000000014004e174     libucrt:fpexcept.obj
 0002:00014174       $unwind$?setChannels@FIFOSampleBuffer@soundtouch@@QEAAXH@Z 000000014004e174     SoundTouch_x64:FIFOSampleBuffer.obj
 0002:0001417c       $unwind$?_Xlen@?$basic_string@DU?$char_traits@D@std@@V?$allocator@D@2@@std@@CAXXZ 000000014004e17c     RunParameters.obj
 0002:0001417c       $unwind$?_Xran@?$_String_val@U?$_Simple_types@D@std@@@std@@SAXXZ 000000014004e17c     RunParameters.obj
 0002:0001417c       $unwind$??1locale@std@@QEAA@XZ 000000014004e17c     WavFile.obj
 0002:0001417c       $unwind$?allocate@?$allocator@D@std@@QEAAPEAD_K@Z 000000014004e17c     WavFile.obj
 0002:0001417c       $unwind$?deallocate@?$allocator@D@std@@QEAAXQEAD_K@Z 000000014004e17c     WavFile.obj
 0002:0001417c       $unwind$?eof@WavInFile@@QEBAHXZ 000000014004e17c     WavFile.obj
 0002:0001417c       $unwind$__scrt_initialize_default_local_stdio_options 000000014004e17c     LIBCMT:default_local_stdio_options.obj
 0002:0001417c       $unwind$?post_pgo_initialization@@YAHXZ 000000014004e17c     LIBCMT:exe_main.obj
 0002:0001417c       $unwind$?pre_cpp_initialization@@YAXXZ 000000014004e17c     LIBCMT:exe_main.obj
 0002:0001417c       $unwind$mainCRTStartup     000000014004e17c     LIBCMT:exe_main.obj
 0002:0001417c       $unwind$__report_rangecheckfailure 000000014004e17c     LIBCMT:gs_report.obj
 0002:0001417c       $unwind$__GSHandlerCheck   000000014004e17c     LIBCMT:gshandler.obj
 0002:0001417c       $unwind$__scrt_acquire_startup_lock 000000014004e17c     LIBCMT:utility.obj
 0002:0001417c       $unwind$atexit             000000014004e17c     LIBCMT:utility.obj
 0002:0001417c       $unwind$__scrt_is_managed_app 000000014004e17c     LIBCMT:utility_desktop.obj
 0002:0001417c       $unwind$??__Einitlocks@std@@YAXXZ 000000014004e17c     libcpmt:iosptrs.obj
 0002:0001417c       $unwind$?_Atexit@@YAXP6AXXZ@Z 000000014004e17c     libcpmt:iosptrs.obj
 0002:0001417c       $unwind$??__Fclassic_locale@std@@YAXXZ 000000014004e17c     libcpmt:locale0.obj
 0002:0001417c       $unwind$?_Locinfo_dtor@_Locinfo@std@@SAXPEAV12@@Z 000000014004e17c     libcpmt:locale0.obj
 0002:0001417c       $unwind$_Deletegloballocale 000000014004e17c     libcpmt:locale0.obj
 0002:0001417c       $unwind$tidy_global        000000014004e17c     libcpmt:locale0.obj
 0002:0001417c       $unwind$__crtDownlevelLocaleNameToLCID 000000014004e17c     libcpmt:winapinls.obj
 0002:0001417c       $unwind$__crtInitializeCriticalSectionEx 000000014004e17c     libcpmt:winapisupp.obj
 0002:0001417c       $unwind$??1_Lockit@std@@QEAA@XZ 000000014004e17c     libcpmt:xlock.obj
 0002:0001417c       $unwind$??__Einitlocks@std@@YAXXZ 000000014004e17c     libcpmt:xlock.obj
 0002:0001417c       $unwind$__current_exception 000000014004e17c     libvcruntime:ehhelpers.obj
 0002:0001417c       $unwind$__current_exception_context 000000014004e17c     libvcruntime:ehhelpers.obj
 0002:0001417c       $unwind$__std_terminate    000000014004e17c     libvcruntime:ehhelpers.obj
 0002:0001417c       $unwind$?GetCurrentState@__FrameHandler3@@SAHPEA_KPEAU_xDISPATCHER_CONTEXT@@PEBU_s_FuncInfo@@@Z 000000014004e17c     libvcruntime:ehstate.obj
 0002:0001417c       $unwind$__vcrt_initialize  000000014004e17c     libvcruntime:initialization.obj
 0002:0001417c       $unwind$__vcrt_uninitialize 000000014004e17c     libvcruntime:initialization.obj
 0002:0001417c       $unwind$__vcrt_initialize_locks 000000014004e17c     libvcruntime:locks.obj
 0002:0001417c       $unwind$__vcrt_freefls     000000014004e17c     libvcruntime:per_thread_data.obj
 0002:0001417c       $unwind$__vcrt_getptd      000000014004e17c     libvcruntime:per_thread_data.obj
 0002:0001417c       $unwind$__vcrt_initialize_ptd 000000014004e17c     libvcruntime:per_thread_data.obj
 0002:0001417c       $unwind$__vcrt_uninitialize_ptd 000000014004e17c     libvcruntime:per_thread_data.obj
 0002:0001417c       $unwind$_purecall          000000014004e17c     libvcruntime:purevirt.obj
 0002:0001417c       $unwind$?FrameUnwindToEmptyState@__FrameHandler4@@SAXPEA_KPEAU_xDISPATCHER_CONTEXT@@PEAUFuncInfo4@FH4@@@Z 000000014004e17c     libvcruntime:risctrnsctrl.obj
 0002:0001417c       $unwind$_GetImageBase      000000014004e17c     libvcruntime:risctrnsctrl.obj
 0002:0001417c       $unwind$_GetThrowImageBase 000000014004e17c     libvcruntime:risctrnsctrl.obj
 0002:0001417c       $unwind$__uncaught_exception 000000014004e17c     libvcruntime:uncaught_exception.obj
 0002:0001417c       $unwind$__dcrt_terminate_console_output 000000014004e17c     libucrt:initcon.obj
 0002:0001417c       $unwind$??$uninitialize_environment_internal@D@@YAXAEAPEAPEAD@Z 000000014004e17c     libucrt:environment_initialization.obj
 0002:0001417c       $unwind$??$uninitialize_environment_internal@_W@@YAXAEAPEAPEA_W@Z 000000014004e17c     libucrt:environment_initialization.obj
 0002:0001417c       $unwind$__dcrt_get_or_create_narrow_environment_nolock 000000014004e17c     libucrt:environment_initialization.obj
 0002:0001417c       $unwind$__dcrt_uninitialize_environments_nolock 000000014004e17c     libucrt:environment_initialization.obj
 0002:0001417c       $unwind$_get_initial_narrow_environment 000000014004e17c     libucrt:environment_initialization.obj
 0002:0001417c       $unwind$?__c32rtomb_utf8@__crt_mbstring@@YA_KPEAD_UPEAU_Mbstatet@@@Z 000000014004e17c     libucrt:c32rtomb.obj
 0002:0001417c       $unwind$__acrt_initialize_heap 000000014004e17c     libucrt:heap_handle.obj
 0002:0001417c       $unwind$_msize_base        000000014004e17c     libucrt:msize.obj
 0002:0001417c       $unwind$_set_new_mode      000000014004e17c     libucrt:new_mode.obj
 0002:0001417c       $unwind$?initialize_multibyte@@YAHXZ 000000014004e17c     libucrt:multibyte_initializer.obj
 0002:0001417c       $unwind$__acrt_uninitialize 000000014004e17c     libucrt:initialization.obj
 0002:0001417c       $unwind$initialize_c       000000014004e17c     libucrt:initialization.obj
 0002:0001417c       $unwind$uninitialize_allocated_io_buffers 000000014004e17c     libucrt:initialization.obj
 0002:0001417c       $unwind$uninitialize_environment 000000014004e17c     libucrt:initialization.obj
 0002:0001417c       $unwind$_lock_locales      000000014004e17c     libucrt:locks.obj
 0002:0001417c       $unwind$__acrt_initialize_ptd 000000014004e17c     libucrt:per_thread_data.obj
 0002:0001417c       $unwind$__acrt_uninitialize_ptd 000000014004e17c     libucrt:per_thread_data.obj
 0002:0001417c       $unwind$__acrt_AreFileApisANSI 000000014004e17c     libucrt:winapi_thunks.obj
 0002:0001417c       $unwind$__acrt_can_use_vista_locale_apis 000000014004e17c     libucrt:winapi_thunks.obj
 0002:0001417c       $unwind$__acrt_eagerly_load_locale_apis 000000014004e17c     libucrt:winapi_thunks.obj
 0002:0001417c       $unwind$__pctype_func      000000014004e17c     libucrt:ctype.obj
 0002:0001417c       $unwind$___lc_codepage_func 000000014004e17c     libucrt:initctype.obj
 0002:0001417c       $unwind$___lc_locale_name_func 000000014004e17c     libucrt:initctype.obj
 0002:0001417c       $unwind$___mb_cur_max_func 000000014004e17c     libucrt:initctype.obj
 0002:0001417c       $unwind$__acrt_release_locale_ref 000000014004e17c     libucrt:locale_refcounting.obj
 0002:0001417c       $unwind$localeconv         000000014004e17c     libucrt:localeconv.obj
 0002:0001417c       $unwind$_copytlocinfo_nolock 000000014004e17c     libucrt:wsetlocale.obj
 0002:0001417c       $unwind$_isatty            000000014004e17c     libucrt:isatty.obj
 0002:0001417c       $unwind$_get_osfhandle     000000014004e17c     libucrt:osfinfo.obj
 0002:0001417c       $unwind$_get_fmode         000000014004e17c     libucrt:setmode.obj
 0002:0001417c       $unwind$_set_fmode         000000014004e17c     libucrt:setmode.obj
 0002:0001417c       $unwind$__acrt_initialize_multibyte 000000014004e17c     libucrt:mbctype.obj
 0002:0001417c       $unwind$__acrt_update_thread_multibyte_data 000000014004e17c     libucrt:mbctype.obj
 0002:0001417c       $unwind$__doserrno         000000014004e17c     libucrt:errno.obj
 0002:0001417c       $unwind$_errno             000000014004e17c     libucrt:errno.obj
 0002:0001417c       $unwind$_invoke_watson     000000014004e17c     libucrt:invalid_parameter.obj
 0002:0001417c       $unwind$abort              000000014004e17c     libucrt:abort.obj
 0002:0001417c       $unwind$__acrt_initialize_command_line 000000014004e17c     libucrt:argv_data.obj
 0002:0001417c       $unwind$_register_thread_local_exe_atexit_callback 000000014004e17c     libucrt:exit.obj
 0002:0001417c       $unwind$feof               000000014004e17c     libucrt:feoferr.obj
 0002:0001417c       $unwind$_fileno            000000014004e17c     libucrt:fileno.obj
 0002:0001417c       $unwind$?state_case_normal_tchar@?$output_processor@DV?$string_output_adapter@D@__crt_stdio_output@@V?$format_validation_base@DV?$string_output_adapter@D@__crt_stdio_output@@@2@@__crt_stdio_output@@AEAA_ND@Z 000000014004e17c     libucrt:output.obj
 0002:0001417c       $unwind$?state_case_size@?$output_processor@DV?$stream_output_adapter@D@__crt_stdio_output@@V?$standard_base@DV?$stream_output_adapter@D@__crt_stdio_output@@@2@@__crt_stdio_output@@AEAA_NXZ 000000014004e17c     libucrt:output.obj
 0002:0001417c       $unwind$?state_case_size@?$output_processor@DV?$string_output_adapter@D@__crt_stdio_output@@V?$format_validation_base@DV?$string_output_adapter@D@__crt_stdio_output@@@2@@__crt_stdio_output@@AEAA_NXZ 000000014004e17c     libucrt:output.obj
 0002:0001417c       $unwind$?validate_stream_is_ansi_if_required@?$__acrt_stdio_char_traits@D@@SA_NQEAU_iobuf@@@Z 000000014004e17c     libucrt:output.obj
 0002:0001417c       $unwind$_strnicmp          000000014004e17c     libucrt:strnicmp.obj
 0002:0001417c       $unwind$_wcsicmp           000000014004e17c     libucrt:wcsicmp.obj
 0002:0001417c       $unwind$_wcsnicmp          000000014004e17c     libucrt:wcsnicmp.obj
 0002:0001417c       $unwind$_statfp            000000014004e17c     libucrt:fpctrl.obj
 0002:0001417c       $unwind$fegetround         000000014004e17c     libucrt:fegetround.obj
 0002:0001417c       $unwind$_set_errno_from_matherr 000000014004e17c     libucrt:fpexcept.obj
 0002:0001417c       $unwind$?_Xlength@?$vector@UBEAT@soundtouch@@V?$allocator@UBEAT@soundtouch@@@std@@@std@@CAXXZ 000000014004e17c     SoundTouch_x64:BPMDetect.obj
 0002:0001417c       $unwind$?allocate@?$allocator@UBEAT@soundtouch@@@std@@QEAAPEAUBEAT@soundtouch@@_K@Z 000000014004e17c     SoundTouch_x64:BPMDetect.obj
 0002:0001417c       $unwind$?deallocate@?$allocator@UBEAT@soundtouch@@@std@@QEAAXQEAUBEAT@soundtouch@@_K@Z 000000014004e17c     SoundTouch_x64:BPMDetect.obj
 0002:0001417c       $unwind$?calcMassCenter@PeakFinder@soundtouch@@IEBANPEBMHH@Z 000000014004e17c     SoundTouch_x64:PeakFinder.obj
 0002:00014184       $unwind$?append@?$basic_string@DU?$char_traits@D@std@@V?$allocator@D@2@@std@@QEAAAEAV12@QEBD_K@Z 000000014004e184     RunParameters.obj
 0002:00014190       $chain$0$?append@?$basic_string@DU?$char_traits@D@std@@V?$allocator@D@2@@std@@QEAAAEAV12@QEBD_K@Z 000000014004e190     RunParameters.obj
 0002:000141a4       $chain$1$?append@?$basic_string@DU?$char_traits@D@std@@V?$allocator@D@2@@std@@QEAAAEAV12@QEBD_K@Z 000000014004e1a4     RunParameters.obj
 0002:000141b4       $unwind$?assign@?$basic_string@DU?$char_traits@D@std@@V?$allocator@D@2@@std@@QEAAAEAV12@QEBD_K@Z 000000014004e1b4     RunParameters.obj
 0002:000141c8       $chain$0$?assign@?$basic_string@DU?$char_traits@D@std@@V?$allocator@D@2@@std@@QEAAAEAV12@QEBD_K@Z 000000014004e1c8     RunParameters.obj
 0002:000141dc       $chain$1$?assign@?$basic_string@DU?$char_traits@D@std@@V?$allocator@D@2@@std@@QEAAAEAV12@QEBD_K@Z 000000014004e1dc     RunParameters.obj
 0002:000141dc       $chain$3$?assign@?$basic_string@DU?$char_traits@D@std@@V?$allocator@D@2@@std@@QEAAAEAV12@QEBD_K@Z 000000014004e1dc     RunParameters.obj
 0002:000141ec       $chain$2$?assign@?$basic_string@DU?$char_traits@D@std@@V?$allocator@D@2@@std@@QEAAAEAV12@QEBD_K@Z 000000014004e1ec     RunParameters.obj
 0002:00014200       $unwind$??0runtime_error@std@@QEAA@PEBD@Z 000000014004e200     RunParameters.obj
 0002:00014200       $unwind$?equivalent@error_category@std@@UEBA_NHAEBVerror_condition@2@@Z 000000014004e200     WavFile.obj
 0002:00014200       $unwind$??0length_error@std@@QEAA@PEBD@Z 000000014004e200     libcpmt:xthrow.obj
 0002:00014200       $unwind$??0out_of_range@std@@QEAA@PEBD@Z 000000014004e200     libcpmt:xthrow.obj
 0002:00014200       $unwind$?__mbrtowc_utf8@__crt_mbstring@@YA_KPEA_WPEBD_KPEAU_Mbstatet@@@Z 000000014004e200     libucrt:mbrtowc.obj
 0002:00014200       $unwind$??$common_xtox_s@K_W@@YAHKQEA_W_KI_N@Z 000000014004e200     libucrt:xtoa.obj
 0002:00014200       $unwind$__stdio_common_vsprintf_s 000000014004e200     libucrt:output.obj
 0002:00014200       $unwind$?setSampleRate@SoundTouch@soundtouch@@QEAAXI@Z 000000014004e200     SoundTouch_x64:SoundTouch.obj
 0002:00014208       $unwind$??0RunParameters@@QEAA@HQEBQEBD@Z 000000014004e208     RunParameters.obj
 0002:00014228       $cppxdata$??0RunParameters@@QEAA@HQEBQEBD@Z 000000014004e228     RunParameters.obj
 0002:00014231       $stateUnwindMap$??0RunParameters@@QEAA@HQEBQEBD@Z 000000014004e231     RunParameters.obj
 0002:0001423e       $ip2state$??0RunParameters@@QEAA@HQEBQEBD@Z 000000014004e23e     RunParameters.obj
 0002:0001424c       $unwind$?throwIllegalParamExp@RunParameters@@AEBAXAEBV?$basic_string@DU?$char_traits@D@std@@V?$allocator@D@2@@std@@@Z 000000014004e24c     RunParameters.obj
 0002:00014260       $cppxdata$?throwIllegalParamExp@RunParameters@@AEBAXAEBV?$basic_string@DU?$char_traits@D@std@@V?$allocator@D@2@@std@@@Z 000000014004e260     RunParameters.obj
 0002:00014269       $stateUnwindMap$?throwIllegalParamExp@RunParameters@@AEBAXAEBV?$basic_string@DU?$char_traits@D@std@@V?$allocator@D@2@@std@@@Z 000000014004e269     RunParameters.obj
 0002:00014270       $ip2state$?throwIllegalParamExp@RunParameters@@AEBAXAEBV?$basic_string@DU?$char_traits@D@std@@V?$allocator@D@2@@std@@@Z 000000014004e270     RunParameters.obj
 0002:00014278       $unwind$?parseSwitchParam@RunParameters@@AEAAXAEBV?$basic_string@DU?$char_traits@D@std@@V?$allocator@D@2@@std@@@Z 000000014004e278     RunParameters.obj
 0002:00014288       $cppxdata$?parseSwitchParam@RunParameters@@AEAAXAEBV?$basic_string@DU?$char_traits@D@std@@V?$allocator@D@2@@std@@@Z 000000014004e288     RunParameters.obj
 0002:00014295       $stateUnwindMap$?parseSwitchParam@RunParameters@@AEAAXAEBV?$basic_string@DU?$char_traits@D@std@@V?$allocator@D@2@@std@@@Z 000000014004e295     RunParameters.obj
 0002:00014295       $stateUnwindMap$?_Osfx@?$basic_ostream@DU?$char_traits@D@std@@@std@@QEAAXXZ 000000014004e295     WavFile.obj
 0002:00014295       $stateUnwindMap$??$_Emplace_reallocate@AEBUBEAT@soundtouch@@@?$vector@UBEAT@soundtouch@@V?$allocator@UBEAT@soundtouch@@@std@@@std@@QEAAPEAUBEAT@soundtouch@@QEAU23@AEBU23@@Z 000000014004e295     SoundTouch_x64:BPMDetect.obj
 0002:00014295       $stateUnwindMap$?_Reallocate_exactly@?$vector@UBEAT@soundtouch@@V?$allocator@UBEAT@soundtouch@@@std@@@std@@AEAAX_K@Z 000000014004e295     SoundTouch_x64:BPMDetect.obj
 0002:00014298       $tryMap$?parseSwitchParam@RunParameters@@AEAAXAEBV?$basic_string@DU?$char_traits@D@std@@V?$allocator@D@2@@std@@@Z 000000014004e298     RunParameters.obj
 0002:000142a0       $handlerMap$?parseSwitchParam@RunParameters@@AEAAXAEBV?$basic_string@DU?$char_traits@D@std@@V?$allocator@D@2@@std@@@Z 000000014004e2a0     RunParameters.obj
 0002:000142ad       $ip2state$?parseSwitchParam@RunParameters@@AEAAXAEBV?$basic_string@DU?$char_traits@D@std@@V?$allocator@D@2@@std@@@Z 000000014004e2ad     RunParameters.obj
 0002:000142b8       $unwind$?catch$0@?0??parseSwitchParam@RunParameters@@AEAAXAEBV?$basic_string@DU?$char_traits@D@std@@V?$allocator@D@2@@std@@@Z@4HA 000000014004e2b8     RunParameters.obj
 0002:000142b8       $unwind$?catch$0@?0??_Osfx@?$basic_ostream@DU?$char_traits@D@std@@@std@@QEAAXXZ@4HA 000000014004e2b8     WavFile.obj
 0002:000142b8       $unwind$?catch$3@?0???$?6U?$char_traits@D@std@@@std@@YAAEAV?$basic_ostream@DU?$char_traits@D@std@@@0@AEAV10@PEBD@Z@4HA 000000014004e2b8     WavFile.obj
 0002:000142b8       $unwind$?catch$0@?0???$_Emplace_reallocate@AEBUBEAT@soundtouch@@@?$vector@UBEAT@soundtouch@@V?$allocator@UBEAT@soundtouch@@@std@@@std@@QEAAPEAUBEAT@soundtouch@@QEAU23@AEBU23@@Z@4HA 000000014004e2b8     SoundTouch_x64:BPMDetect.obj
 0002:000142b8       $unwind$?catch$0@?0??_Reallocate_exactly@?$vector@UBEAT@soundtouch@@V?$allocator@UBEAT@soundtouch@@@std@@@std@@AEAAX_K@Z@4HA 000000014004e2b8     SoundTouch_x64:BPMDetect.obj
 0002:000142c0       $unwind$?parseSwitchValue@RunParameters@@AEBAMAEBV?$basic_string@DU?$char_traits@D@std@@V?$allocator@D@2@@std@@@Z 000000014004e2c0     RunParameters.obj
 0002:000142dc       $chain$0$?parseSwitchValue@RunParameters@@AEBAMAEBV?$basic_string@DU?$char_traits@D@std@@V?$allocator@D@2@@std@@@Z 000000014004e2dc     RunParameters.obj
 0002:000142f0       $chain$2$?parseSwitchValue@RunParameters@@AEBAMAEBV?$basic_string@DU?$char_traits@D@std@@V?$allocator@D@2@@std@@@Z 000000014004e2f0     RunParameters.obj
 0002:000142f0       $chain$4$?parseSwitchValue@RunParameters@@AEBAMAEBV?$basic_string@DU?$char_traits@D@std@@V?$allocator@D@2@@std@@@Z 000000014004e2f0     RunParameters.obj
 0002:00014304       $chain$3$?parseSwitchValue@RunParameters@@AEBAMAEBV?$basic_string@DU?$char_traits@D@std@@V?$allocator@D@2@@std@@@Z 000000014004e304     RunParameters.obj
 0002:00014314       $unwind$??$_Reallocate_grow_by@V<lambda_65e615be2a453ca0576c979606f46740>@@PEBD_K@?$basic_string@DU?$char_traits@D@std@@V?$allocator@D@2@@std@@AEAAAEAV01@_KV<lambda_65e615be2a453ca0576c979606f46740>@@PEBD_K@Z 000000014004e314     RunParameters.obj
 0002:00014314       $unwind$??$_Reallocate_grow_by@V<lambda_e1befb086ad3257e3f042a63030725f7>@@_KD@?$basic_string@DU?$char_traits@D@std@@V?$allocator@D@2@@std@@AEAAAEAV01@_KV<lambda_e1befb086ad3257e3f042a63030725f7>@@_KD@Z 000000014004e314     WavFile.obj
 0002:00014324       $chain$3$??$_Reallocate_grow_by@V<lambda_65e615be2a453ca0576c979606f46740>@@PEBD_K@?$basic_string@DU?$char_traits@D@std@@V?$allocator@D@2@@std@@AEAAAEAV01@_KV<lambda_65e615be2a453ca0576c979606f46740>@@PEBD_K@Z 000000014004e324     RunParameters.obj
 0002:00014344       $chain$5$??$_Reallocate_grow_by@V<lambda_65e615be2a453ca0576c979606f46740>@@PEBD_K@?$basic_string@DU?$char_traits@D@std@@V?$allocator@D@2@@std@@AEAAAEAV01@_KV<lambda_65e615be2a453ca0576c979606f46740>@@PEBD_K@Z 000000014004e344     RunParameters.obj
 0002:00014344       $chain$7$??$_Reallocate_grow_by@V<lambda_65e615be2a453ca0576c979606f46740>@@PEBD_K@?$basic_string@DU?$char_traits@D@std@@V?$allocator@D@2@@std@@AEAAAEAV01@_KV<lambda_65e615be2a453ca0576c979606f46740>@@PEBD_K@Z 000000014004e344     RunParameters.obj
 0002:00014364       $chain$6$??$_Reallocate_grow_by@V<lambda_65e615be2a453ca0576c979606f46740>@@PEBD_K@?$basic_string@DU?$char_traits@D@std@@V?$allocator@D@2@@std@@AEAAAEAV01@_KV<lambda_65e615be2a453ca0576c979606f46740>@@PEBD_K@Z 000000014004e364     RunParameters.obj
 0002:00014374       $unwind$sprintf_s          000000014004e374     WavFile.obj
 0002:00014384       $unwind$??0?$basic_string@DU?$char_traits@D@std@@V?$allocator@D@2@@std@@QEAA@_KD@Z 000000014004e384     WavFile.obj
 0002:0001439c       $unwind$??$_Maklocstr@D@std@@YAPEADPEBDPEADAEBU_Cvtvec@@@Z 000000014004e39c     WavFile.obj
 0002:0001439c       $unwind$??_G?$basic_streambuf@DU?$char_traits@D@std@@@std@@UEAAPEAXI@Z 000000014004e39c     WavFile.obj
 0002:0001439c       $unwind$?make_error_code@std@@YA?AVerror_code@1@W4io_errc@1@@Z 000000014004e39c     WavFile.obj
 0002:0001439c       $unwind$??4?$_Yarn@D@std@@QEAAAEAV01@PEBD@Z 000000014004e39c     libcpmt:locale0.obj
 0002:0001439c       $unwind$__vcrt_getptd_noexit 000000014004e39c     libvcruntime:per_thread_data.obj
 0002:0001439c       $unwind$?CatchTryBlock@__FrameHandler3@@SAPEBU_s_TryBlockMapEntry@@PEBU_s_FuncInfo@@H@Z 000000014004e39c     libvcruntime:risctrnsctrl.obj
 0002:0001439c       $unwind$?FrameUnwindToEmptyState@__FrameHandler3@@SAXPEA_KPEAU_xDISPATCHER_CONTEXT@@PEBU_s_FuncInfo@@@Z 000000014004e39c     libvcruntime:risctrnsctrl.obj
 0002:0001439c       $unwind$__vcrt_InitializeCriticalSectionEx 000000014004e39c     libvcruntime:winapi_downlevel.obj
 0002:0001439c       $unwind$memcpy_s           000000014004e39c     libucrt:atof.obj
 0002:0001439c       $unwind$memcpy_s           000000014004e39c     libucrt:cfout.obj
 0002:0001439c       $unwind$__acrt_getptd      000000014004e39c     libucrt:per_thread_data.obj
 0002:0001439c       $unwind$__acrt_getptd_noexit 000000014004e39c     libucrt:per_thread_data.obj
 0002:0001439c       $unwind$__acrt_execute_initializers 000000014004e39c     libucrt:shared_initialization.obj
 0002:0001439c       $unwind$__acrt_InitializeCriticalSectionEx 000000014004e39c     libucrt:winapi_thunks.obj
 0002:0001439c       $unwind$?free_crt_array_internal@@YAXQEAPEBX_K@Z 000000014004e39c     libucrt:inittime.obj
 0002:0001439c       $unwind$__acrt_locale_initialize_time 000000014004e39c     libucrt:inittime.obj
 0002:0001439c       $unwind$??$common_lseek_nolock@_J@@YA_JH_JH@Z 000000014004e39c     libucrt:lseek.obj
 0002:0001439c       $unwind$__acrt_stdio_flush_and_write_narrow_nolock 000000014004e39c     libucrt:_flsbuf.obj
 0002:0001439c       $unwind$__acrt_stdio_flush_nolock 000000014004e39c     libucrt:fflush.obj
 0002:0001439c       $unwind$?common_fseek_nolock@@YAHV__crt_stdio_stream@@_JH@Z 000000014004e39c     libucrt:fseek.obj
 0002:0001439c       $unwind$??$common_ftell_nolock@_J@@YA_JV__crt_stdio_stream@@@Z 000000014004e39c     libucrt:ftell.obj
 0002:0001439c       $unwind$??R<lambda_5856287d7ecd2be6c9197bb4007c3f6e>@@QEBA_KXZ 000000014004e39c     libucrt:fwrite.obj
 0002:0001439c       $unwind$??$__acrt_stdio_parse_mode@D@@YA?AU__acrt_stdio_stream_mode@@QEBD@Z 000000014004e39c     libucrt:openfile.obj
 0002:0001439c       $unwind$??0_LocaleUpdate@@QEAA@QEAU__crt_locale_pointers@@@Z 000000014004e39c     libucrt:output.obj
 0002:0001439c       $unwind$?type_case_n@?$output_processor@DV?$stream_output_adapter@D@__crt_stdio_output@@V?$standard_base@DV?$stream_output_adapter@D@__crt_stdio_output@@@2@@__crt_stdio_output@@AEAA_NXZ 000000014004e39c     libucrt:output.obj
 0002:0001439c       $unwind$?type_case_n@?$output_processor@DV?$string_output_adapter@D@__crt_stdio_output@@V?$format_validation_base@DV?$string_output_adapter@D@__crt_stdio_output@@@2@@__crt_stdio_output@@AEAA_NXZ 000000014004e39c     libucrt:output.obj
 0002:0001439c       $unwind$_exception_enabled 000000014004e39c     libucrt:libm_error.obj
 0002:0001439c       $unwind$?putSamples@FIFOSampleBuffer@soundtouch@@UEAAXPEBMI@Z 000000014004e39c     SoundTouch_x64:FIFOSampleBuffer.obj
 0002:0001439c       $unwind$??_GRateTransposer@soundtouch@@UEAAPEAXI@Z 000000014004e39c     SoundTouch_x64:RateTransposer.obj
 0002:000143ac       $unwind$??0_System_error@std@@IEAA@Verror_code@1@AEBV?$basic_string@DU?$char_traits@D@std@@V?$allocator@D@2@@1@@Z 000000014004e3ac     WavFile.obj
 0002:000143d0       $cppxdata$??0_System_error@std@@IEAA@Verror_code@1@AEBV?$basic_string@DU?$char_traits@D@std@@V?$allocator@D@2@@1@@Z 000000014004e3d0     WavFile.obj
 0002:000143d9       $stateUnwindMap$??0_System_error@std@@IEAA@Verror_code@1@AEBV?$basic_string@DU?$char_traits@D@std@@V?$allocator@D@2@@1@@Z 000000014004e3d9     WavFile.obj
 0002:000143e6       $ip2state$??0_System_error@std@@IEAA@Verror_code@1@AEBV?$basic_string@DU?$char_traits@D@std@@V?$allocator@D@2@@1@@Z 000000014004e3e6     WavFile.obj
 0002:000143f8       $unwind$??1_Locinfo@std@@QEAA@XZ 000000014004e3f8     WavFile.obj
 0002:0001440c       $cppxdata$??1_Locinfo@std@@QEAA@XZ 000000014004e40c     WavFile.obj
 0002:00014411       $ip2state$??1_Locinfo@std@@QEAA@XZ 000000014004e411     WavFile.obj
 0002:00014414       $unwind$?_Getcat@?$ctype@D@std@@SA_KPEAPEBVfacet@locale@2@PEBV42@@Z 000000014004e414     WavFile.obj
 0002:00014438       $cppxdata$?_Getcat@?$ctype@D@std@@SA_KPEAPEBVfacet@locale@2@PEBV42@@Z 000000014004e438     WavFile.obj
 0002:00014441       $stateUnwindMap$?_Getcat@?$ctype@D@std@@SA_KPEAPEBVfacet@locale@2@PEBV42@@Z 000000014004e441     WavFile.obj
 0002:00014471       $ip2state$?_Getcat@?$ctype@D@std@@SA_KPEAPEBVfacet@locale@2@PEBV42@@Z 000000014004e471     WavFile.obj
 0002:0001447c       $unwind$?do_tolower@?$ctype@D@std@@MEBAPEBDPEADPEBD@Z 000000014004e47c     WavFile.obj
 0002:0001447c       $unwind$?do_toupper@?$ctype@D@std@@MEBAPEBDPEADPEBD@Z 000000014004e47c     WavFile.obj
 0002:0001447c       $unwind$?_Locimp_dtor@_Locimp@locale@std@@CAXPEAV123@@Z 000000014004e47c     libcpmt:locale0.obj
 0002:0001447c       $unwind$iswctype           000000014004e47c     libucrt:iswctype.obj
 0002:00014488       $chain$0$?do_tolower@?$ctype@D@std@@MEBAPEBDPEADPEBD@Z 000000014004e488     WavFile.obj
 0002:0001449c       $chain$1$?do_tolower@?$ctype@D@std@@MEBAPEBDPEADPEBD@Z 000000014004e49c     WavFile.obj
 0002:000144ac       $chain$0$?do_toupper@?$ctype@D@std@@MEBAPEBDPEADPEBD@Z 000000014004e4ac     WavFile.obj
 0002:000144c0       $chain$1$?do_toupper@?$ctype@D@std@@MEBAPEBDPEADPEBD@Z 000000014004e4c0     WavFile.obj
 0002:000144d0       $unwind$??$use_facet@V?$ctype@D@std@@@std@@YAAEBV?$ctype@D@0@AEBVlocale@0@@Z 000000014004e4d0     WavFile.obj
 0002:000144d0       $unwind$??$use_facet@V?$numpunct@D@std@@@std@@YAAEBV?$numpunct@D@0@AEBVlocale@0@@Z 000000014004e4d0     WavFile.obj
 0002:000144e8       $cppxdata$??$use_facet@V?$ctype@D@std@@@std@@YAAEBV?$ctype@D@0@AEBVlocale@0@@Z 000000014004e4e8     WavFile.obj
 0002:000144e8       $cppxdata$??$use_facet@V?$numpunct@D@std@@@std@@YAAEBV?$numpunct@D@0@AEBVlocale@0@@Z 000000014004e4e8     WavFile.obj
 0002:000144f1       $stateUnwindMap$??$use_facet@V?$ctype@D@std@@@std@@YAAEBV?$ctype@D@0@AEBVlocale@0@@Z 000000014004e4f1     WavFile.obj
 0002:000144f1       $stateUnwindMap$??$use_facet@V?$numpunct@D@std@@@std@@YAAEBV?$numpunct@D@0@AEBVlocale@0@@Z 000000014004e4f1     WavFile.obj
 0002:000144fe       $ip2state$??$use_facet@V?$ctype@D@std@@@std@@YAAEBV?$ctype@D@0@AEBVlocale@0@@Z 000000014004e4fe     WavFile.obj
 0002:000144fe       $ip2state$??$use_facet@V?$numpunct@D@std@@@std@@YAAEBV?$numpunct@D@0@AEBVlocale@0@@Z 000000014004e4fe     WavFile.obj
 0002:00014508       $unwind$??0failure@ios_base@std@@QEAA@PEBDAEBVerror_code@2@@Z 000000014004e508     WavFile.obj
 0002:00014520       $cppxdata$??0failure@ios_base@std@@QEAA@PEBDAEBVerror_code@2@@Z 000000014004e520     WavFile.obj
 0002:00014529       $stateUnwindMap$??0failure@ios_base@std@@QEAA@PEBDAEBVerror_code@2@@Z 000000014004e529     WavFile.obj
 0002:00014530       $ip2state$??0failure@ios_base@std@@QEAA@PEBDAEBVerror_code@2@@Z 000000014004e530     WavFile.obj
 0002:00014538       $unwind$?clear@ios_base@std@@QEAAXH@Z 000000014004e538     WavFile.obj
 0002:00014544       $unwind$??_G?$basic_ios@DU?$char_traits@D@std@@@std@@UEAAPEAXI@Z 000000014004e544     WavFile.obj
 0002:00014544       $unwind$??_Gios_base@std@@UEAAPEAXI@Z 000000014004e544     WavFile.obj
 0002:00014558       $cppxdata$??_G?$basic_ios@DU?$char_traits@D@std@@@std@@UEAAPEAXI@Z 000000014004e558     WavFile.obj
 0002:00014558       $cppxdata$??_Gios_base@std@@UEAAPEAXI@Z 000000014004e558     WavFile.obj
 0002:00014561       $stateUnwindMap$??1?$basic_ios@DU?$char_traits@D@std@@@std@@UEAA@XZ 000000014004e561     WavFile.obj
 0002:00014561       $stateUnwindMap$??1sentry@?$basic_ostream@DU?$char_traits@D@std@@@std@@QEAA@XZ 000000014004e561     WavFile.obj
 0002:00014561       $stateUnwindMap$??_D?$basic_stringstream@DU?$char_traits@D@std@@V?$allocator@D@2@@std@@QEAAXXZ 000000014004e561     WavFile.obj
 0002:00014561       $stateUnwindMap$??_G?$basic_ios@DU?$char_traits@D@std@@@std@@UEAAPEAXI@Z 000000014004e561     WavFile.obj
 0002:00014561       $stateUnwindMap$??_G?$basic_iostream@DU?$char_traits@D@std@@@std@@UEAAPEAXI@Z 000000014004e561     WavFile.obj
 0002:00014561       $stateUnwindMap$??_G?$basic_istream@DU?$char_traits@D@std@@@std@@UEAAPEAXI@Z 000000014004e561     WavFile.obj
 0002:00014561       $stateUnwindMap$??_G?$basic_ostream@DU?$char_traits@D@std@@@std@@UEAAPEAXI@Z 000000014004e561     WavFile.obj
 0002:00014561       $stateUnwindMap$??_GWavOutFile@@UEAAPEAXI@Z 000000014004e561     WavFile.obj
 0002:00014561       $stateUnwindMap$??_Gios_base@std@@UEAAPEAXI@Z 000000014004e561     WavFile.obj
 0002:00014567       $ip2state$??_G?$basic_ios@DU?$char_traits@D@std@@@std@@UEAAPEAXI@Z 000000014004e567     WavFile.obj
 0002:00014567       $ip2state$??_Gios_base@std@@UEAAPEAXI@Z 000000014004e567     WavFile.obj
 0002:0001456c       $unwind$??0WavInFile@@QEAA@PEBD@Z 000000014004e56c     WavFile.obj
 0002:00014584       $cppxdata$??0WavInFile@@QEAA@PEBD@Z 000000014004e584     WavFile.obj
 0002:0001458d       $stateUnwindMap$??0WavInFile@@QEAA@PEAU_iobuf@@@Z 000000014004e58d     WavFile.obj
 0002:0001458d       $stateUnwindMap$??0WavInFile@@QEAA@PEBD@Z 000000014004e58d     WavFile.obj
 0002:0001458d       $stateUnwindMap$??0WavOutFile@@QEAA@PEAU_iobuf@@HHH@Z 000000014004e58d     WavFile.obj
 0002:0001458d       $stateUnwindMap$??0WavOutFile@@QEAA@PEBDHHH@Z 000000014004e58d     WavFile.obj
 0002:0001459a       $ip2state$??0WavInFile@@QEAA@PEBD@Z 000000014004e59a     WavFile.obj
 0002:000145a4       $unwind$??0WavInFile@@QEAA@PEAU_iobuf@@@Z 000000014004e5a4     WavFile.obj
 0002:000145b8       $cppxdata$??0WavInFile@@QEAA@PEAU_iobuf@@@Z 000000014004e5b8     WavFile.obj
 0002:000145c1       $ip2state$??0WavInFile@@QEAA@PEAU_iobuf@@@Z 000000014004e5c1     WavFile.obj
 0002:000145cc       $unwind$?read@WavInFile@@QEAAHPEAMH@Z 000000014004e5cc     WavFile.obj
 0002:000145ec       $cppxdata$?read@WavInFile@@QEAAHPEAMH@Z 000000014004e5ec     WavFile.obj
 0002:000145f5       $stateUnwindMap$?read@WavInFile@@QEAAHPEAMH@Z 000000014004e5f5     WavFile.obj
 0002:00014603       $ip2state$?read@WavInFile@@QEAAHPEAMH@Z 000000014004e603     WavFile.obj
 0002:0001460c       $unwind$?init@WavInFile@@AEAAXXZ 000000014004e60c     WavFile.obj
 0002:0001460c       $unwind$__dcrt_lowio_ensure_console_output_initialized 000000014004e60c     libucrt:initcon.obj
 0002:0001460c       $unwind$_isleadbyte_l      000000014004e60c     libucrt:_wctype.obj
 0002:0001460c       $unwind$?getSystemCP@@YAHH@Z 000000014004e60c     libucrt:mbctype.obj
 0002:0001460c       $unwind$?putSamples@SoundTouch@soundtouch@@UEAAXPEBMI@Z 000000014004e60c     SoundTouch_x64:SoundTouch.obj
 0002:0001460c       $unwind$?setChannels@TDStretch@soundtouch@@QEAAXH@Z 000000014004e60c     SoundTouch_x64:TDStretch.obj
 0002:0001460c       $unwind$?setParameters@TDStretch@soundtouch@@QEAAXHHHH@Z 000000014004e60c     SoundTouch_x64:TDStretch.obj
 0002:00014614       $unwind$?readHeaderBlock@WavInFile@@AEAAHXZ 000000014004e614     WavFile.obj
 0002:0001462c       $unwind$??0WavOutFile@@QEAA@PEBDHHH@Z 000000014004e62c     WavFile.obj
 0002:0001464c       $cppxdata$??0WavOutFile@@QEAA@PEBDHHH@Z 000000014004e64c     WavFile.obj
 0002:00014655       $ip2state$??0WavOutFile@@QEAA@PEBDHHH@Z 000000014004e655     WavFile.obj
 0002:00014660       $unwind$??0WavOutFile@@QEAA@PEAU_iobuf@@HHH@Z 000000014004e660     WavFile.obj
 0002:00014674       $cppxdata$??0WavOutFile@@QEAA@PEAU_iobuf@@HHH@Z 000000014004e674     WavFile.obj
 0002:0001467d       $ip2state$??0WavOutFile@@QEAA@PEAU_iobuf@@HHH@Z 000000014004e67d     WavFile.obj
 0002:00014688       $unwind$?write@WavOutFile@@QEAAXPEBMH@Z 000000014004e688     WavFile.obj
 0002:00014694       $chain$1$?write@WavOutFile@@QEAAXPEBMH@Z 000000014004e694     WavFile.obj
 0002:000146ac       $chain$3$?write@WavOutFile@@QEAAXPEBMH@Z 000000014004e6ac     WavFile.obj
 0002:000146c4       $chain$4$?write@WavOutFile@@QEAAXPEBMH@Z 000000014004e6c4     WavFile.obj
 0002:000146d8       $chain$5$?write@WavOutFile@@QEAAXPEBMH@Z 000000014004e6d8     WavFile.obj
 0002:000146d8       $chain$7$?write@WavOutFile@@QEAAXPEBMH@Z 000000014004e6d8     WavFile.obj
 0002:000146ec       $chain$6$?write@WavOutFile@@QEAAXPEBMH@Z 000000014004e6ec     WavFile.obj
 0002:000146fc       $unwind$?writeHeader@WavOutFile@@AEAAXXZ 000000014004e6fc     WavFile.obj
 0002:0001470c       $unwind$??_GWavOutFile@@UEAAPEAXI@Z 000000014004e70c     WavFile.obj
 0002:00014720       $cppxdata$??_GWavOutFile@@UEAAPEAXI@Z 000000014004e720     WavFile.obj
 0002:00014729       $ip2state$??_GWavOutFile@@UEAAPEAXI@Z 000000014004e729     WavFile.obj
 0002:0001472c       $unwind$??1?$basic_ios@DU?$char_traits@D@std@@@std@@UEAA@XZ 000000014004e72c     WavFile.obj
 0002:0001473c       $cppxdata$??1?$basic_ios@DU?$char_traits@D@std@@@std@@UEAA@XZ 000000014004e73c     WavFile.obj
 0002:00014745       $ip2state$??1?$basic_ios@DU?$char_traits@D@std@@@std@@UEAA@XZ 000000014004e745     WavFile.obj
 0002:00014748       $unwind$??0?$basic_istream@DU?$char_traits@D@std@@@std@@QEAA@PEAV?$basic_streambuf@DU?$char_traits@D@std@@@1@_N@Z 000000014004e748     WavFile.obj
 0002:00014764       $cppxdata$??0?$basic_istream@DU?$char_traits@D@std@@@std@@QEAA@PEAV?$basic_streambuf@DU?$char_traits@D@std@@@1@_N@Z 000000014004e764     WavFile.obj
 0002:0001476d       $stateUnwindMap$??0?$basic_istream@DU?$char_traits@D@std@@@std@@QEAA@PEAV?$basic_streambuf@DU?$char_traits@D@std@@@1@_N@Z 000000014004e76d     WavFile.obj
 0002:0001477e       $ip2state$??0?$basic_istream@DU?$char_traits@D@std@@@std@@QEAA@PEAV?$basic_streambuf@DU?$char_traits@D@std@@@1@_N@Z 000000014004e77e     WavFile.obj
 0002:00014790       $unwind$??_G?$basic_istream@DU?$char_traits@D@std@@@std@@UEAAPEAXI@Z 000000014004e790     WavFile.obj
 0002:00014790       $unwind$??_G?$basic_ostream@DU?$char_traits@D@std@@@std@@UEAAPEAXI@Z 000000014004e790     WavFile.obj
 0002:000147a4       $cppxdata$??_G?$basic_istream@DU?$char_traits@D@std@@@std@@UEAAPEAXI@Z 000000014004e7a4     WavFile.obj
 0002:000147a4       $cppxdata$??_G?$basic_ostream@DU?$char_traits@D@std@@@std@@UEAAPEAXI@Z 000000014004e7a4     WavFile.obj
 0002:000147ad       $ip2state$??_G?$basic_istream@DU?$char_traits@D@std@@@std@@UEAAPEAXI@Z 000000014004e7ad     WavFile.obj
 0002:000147ad       $ip2state$??_G?$basic_ostream@DU?$char_traits@D@std@@@std@@UEAAPEAXI@Z 000000014004e7ad     WavFile.obj
 0002:000147b0       $unwind$?_Osfx@?$basic_ostream@DU?$char_traits@D@std@@@std@@QEAAXXZ 000000014004e7b0     WavFile.obj
 0002:000147c0       $cppxdata$?_Osfx@?$basic_ostream@DU?$char_traits@D@std@@@std@@QEAAXXZ 000000014004e7c0     WavFile.obj
 0002:000147cd       $tryMap$?_Osfx@?$basic_ostream@DU?$char_traits@D@std@@@std@@QEAAXXZ 000000014004e7cd     WavFile.obj
 0002:000147d5       $handlerMap$?_Osfx@?$basic_ostream@DU?$char_traits@D@std@@@std@@QEAAXXZ 000000014004e7d5     WavFile.obj
 0002:000147dd       $ip2state$?_Osfx@?$basic_ostream@DU?$char_traits@D@std@@@std@@QEAAXXZ 000000014004e7dd     WavFile.obj
 0002:000147e4       $unwind$??6?$basic_ostream@DU?$char_traits@D@std@@@std@@QEAAAEAV01@H@Z 000000014004e7e4     WavFile.obj
 0002:00014804       $cppxdata$??6?$basic_ostream@DU?$char_traits@D@std@@@std@@QEAAAEAV01@H@Z 000000014004e804     WavFile.obj
 0002:00014811       $stateUnwindMap$??6?$basic_ostream@DU?$char_traits@D@std@@@std@@QEAAAEAV01@H@Z 000000014004e811     WavFile.obj
 0002:00014837       $tryMap$??6?$basic_ostream@DU?$char_traits@D@std@@@std@@QEAAAEAV01@H@Z 000000014004e837     WavFile.obj
 0002:0001483f       $handlerMap$??6?$basic_ostream@DU?$char_traits@D@std@@@std@@QEAAAEAV01@H@Z 000000014004e83f     WavFile.obj
 0002:00014848       $ip2state$??6?$basic_ostream@DU?$char_traits@D@std@@@std@@QEAAAEAV01@H@Z 000000014004e848     WavFile.obj
 0002:0001485c       $unwind$?catch$6@?0???6?$basic_ostream@DU?$char_traits@D@std@@@std@@QEAAAEAV01@H@Z@4HA 000000014004e85c     WavFile.obj
 0002:00014864       $unwind$??_G?$basic_iostream@DU?$char_traits@D@std@@@std@@UEAAPEAXI@Z 000000014004e864     WavFile.obj
 0002:00014878       $cppxdata$??_G?$basic_iostream@DU?$char_traits@D@std@@@std@@UEAAPEAXI@Z 000000014004e878     WavFile.obj
 0002:00014881       $ip2state$??_G?$basic_iostream@DU?$char_traits@D@std@@@std@@UEAAPEAXI@Z 000000014004e881     WavFile.obj
 0002:00014888       $unwind$??0?$basic_stringstream@DU?$char_traits@D@std@@V?$allocator@D@2@@std@@QEAA@H@Z 000000014004e888     WavFile.obj
 0002:000148a0       $cppxdata$??0?$basic_stringstream@DU?$char_traits@D@std@@V?$allocator@D@2@@std@@QEAA@H@Z 000000014004e8a0     WavFile.obj
 0002:000148a9       $stateUnwindMap$??0?$basic_stringstream@DU?$char_traits@D@std@@V?$allocator@D@2@@std@@QEAA@H@Z 000000014004e8a9     WavFile.obj
 0002:000148c0       $ip2state$??0?$basic_stringstream@DU?$char_traits@D@std@@V?$allocator@D@2@@std@@QEAA@H@Z 000000014004e8c0     WavFile.obj
 0002:000148c8       $unwind$?str@?$basic_stringstream@DU?$char_traits@D@std@@V?$allocator@D@2@@std@@QEBA?AV?$basic_string@DU?$char_traits@D@std@@V?$allocator@D@2@@2@XZ 000000014004e8c8     WavFile.obj
 0002:000148d8       $cppxdata$?str@?$basic_stringstream@DU?$char_traits@D@std@@V?$allocator@D@2@@std@@QEBA?AV?$basic_string@DU?$char_traits@D@std@@V?$allocator@D@2@@2@XZ 000000014004e8d8     WavFile.obj
 0002:000148e1       $stateUnwindMap$?str@?$basic_stringstream@DU?$char_traits@D@std@@V?$allocator@D@2@@std@@QEBA?AV?$basic_string@DU?$char_traits@D@std@@V?$allocator@D@2@@2@XZ 000000014004e8e1     WavFile.obj
 0002:000148e7       $ip2state$?str@?$basic_stringstream@DU?$char_traits@D@std@@V?$allocator@D@2@@std@@QEBA?AV?$basic_string@DU?$char_traits@D@std@@V?$allocator@D@2@@2@XZ 000000014004e8e7     WavFile.obj
 0002:000148ec       $unwind$?xsgetn@?$basic_streambuf@DU?$char_traits@D@std@@@std@@MEAA_JPEAD_J@Z 000000014004e8ec     WavFile.obj
 0002:000148ec       $unwind$?xsputn@?$basic_streambuf@DU?$char_traits@D@std@@@std@@MEAA_JPEBD_J@Z 000000014004e8ec     WavFile.obj
 0002:00014900       $chain$0$?xsgetn@?$basic_streambuf@DU?$char_traits@D@std@@@std@@MEAA_JPEAD_J@Z 000000014004e900     WavFile.obj
 0002:00014914       $chain$1$?xsgetn@?$basic_streambuf@DU?$char_traits@D@std@@@std@@MEAA_JPEAD_J@Z 000000014004e914     WavFile.obj
 0002:00014924       $chain$0$?xsputn@?$basic_streambuf@DU?$char_traits@D@std@@@std@@MEAA_JPEBD_J@Z 000000014004e924     WavFile.obj
 0002:00014938       $chain$1$?xsputn@?$basic_streambuf@DU?$char_traits@D@std@@@std@@MEAA_JPEBD_J@Z 000000014004e938     WavFile.obj
 0002:00014948       $unwind$?overflow@?$basic_stringbuf@DU?$char_traits@D@std@@V?$allocator@D@2@@std@@MEAAHH@Z 000000014004e948     WavFile.obj
 0002:0001495c       $chain$0$?overflow@?$basic_stringbuf@DU?$char_traits@D@std@@V?$allocator@D@2@@std@@MEAAHH@Z 000000014004e95c     WavFile.obj
 0002:00014970       $chain$1$?overflow@?$basic_stringbuf@DU?$char_traits@D@std@@V?$allocator@D@2@@std@@MEAAHH@Z 000000014004e970     WavFile.obj
 0002:00014984       $chain$2$?overflow@?$basic_stringbuf@DU?$char_traits@D@std@@V?$allocator@D@2@@std@@MEAAHH@Z 000000014004e984     WavFile.obj
 0002:00014994       $chain$3$?overflow@?$basic_stringbuf@DU?$char_traits@D@std@@V?$allocator@D@2@@std@@MEAAHH@Z 000000014004e994     WavFile.obj
 0002:000149a4       $unwind$?seekoff@?$basic_stringbuf@DU?$char_traits@D@std@@V?$allocator@D@2@@std@@MEAA?AV?$fpos@U_Mbstatet@@@2@_JHH@Z 000000014004e9a4     WavFile.obj
 0002:000149bc       $unwind$?seekpos@?$basic_stringbuf@DU?$char_traits@D@std@@V?$allocator@D@2@@std@@MEAA?AV?$fpos@U_Mbstatet@@@2@V32@H@Z 000000014004e9bc     WavFile.obj
 0002:000149d0       $unwind$??_D?$basic_stringstream@DU?$char_traits@D@std@@V?$allocator@D@2@@std@@QEAAXXZ 000000014004e9d0     WavFile.obj
 0002:000149e4       $cppxdata$??_D?$basic_stringstream@DU?$char_traits@D@std@@V?$allocator@D@2@@std@@QEAAXXZ 000000014004e9e4     WavFile.obj
 0002:000149ed       $ip2state$??_D?$basic_stringstream@DU?$char_traits@D@std@@V?$allocator@D@2@@std@@QEAAXXZ 000000014004e9ed     WavFile.obj
 0002:000149f4       $unwind$??$?6U?$char_traits@D@std@@@std@@YAAEAV?$basic_ostream@DU?$char_traits@D@std@@@0@AEAV10@PEBD@Z 000000014004e9f4     WavFile.obj
 0002:00014a10       $cppxdata$??$?6U?$char_traits@D@std@@@std@@YAAEAV?$basic_ostream@DU?$char_traits@D@std@@@0@AEAV10@PEBD@Z 000000014004ea10     WavFile.obj
 0002:00014a1d       $stateUnwindMap$??$?6U?$char_traits@D@std@@@std@@YAAEAV?$basic_ostream@DU?$char_traits@D@std@@@0@AEAV10@PEBD@Z 000000014004ea1d     WavFile.obj
 0002:00014a30       $tryMap$??$?6U?$char_traits@D@std@@@std@@YAAEAV?$basic_ostream@DU?$char_traits@D@std@@@0@AEAV10@PEBD@Z 000000014004ea30     WavFile.obj
 0002:00014a38       $handlerMap$??$?6U?$char_traits@D@std@@@std@@YAAEAV?$basic_ostream@DU?$char_traits@D@std@@@0@AEAV10@PEBD@Z 000000014004ea38     WavFile.obj
 0002:00014a41       $ip2state$??$?6U?$char_traits@D@std@@@std@@YAAEAV?$basic_ostream@DU?$char_traits@D@std@@@0@AEAV10@PEBD@Z 000000014004ea41     WavFile.obj
 0002:00014a50       $unwind$??1_Sentry_base@?$basic_ostream@DU?$char_traits@D@std@@@std@@QEAA@XZ 000000014004ea50     WavFile.obj
 0002:00014a60       $cppxdata$??1_Sentry_base@?$basic_ostream@DU?$char_traits@D@std@@@std@@QEAA@XZ 000000014004ea60     WavFile.obj
 0002:00014a65       $ip2state$??1_Sentry_base@?$basic_ostream@DU?$char_traits@D@std@@@std@@QEAA@XZ 000000014004ea65     WavFile.obj
 0002:00014a68       $unwind$??0sentry@?$basic_ostream@DU?$char_traits@D@std@@@std@@QEAA@AEAV12@@Z 000000014004ea68     WavFile.obj
 0002:00014a84       $cppxdata$??0sentry@?$basic_ostream@DU?$char_traits@D@std@@@std@@QEAA@AEAV12@@Z 000000014004ea84     WavFile.obj
 0002:00014a8d       $stateUnwindMap$??0sentry@?$basic_ostream@DU?$char_traits@D@std@@@std@@QEAA@AEAV12@@Z 000000014004ea8d     WavFile.obj
 0002:00014aa5       $ip2state$??0sentry@?$basic_ostream@DU?$char_traits@D@std@@@std@@QEAA@AEAV12@@Z 000000014004eaa5     WavFile.obj
 0002:00014ab4       $unwind$??1sentry@?$basic_ostream@DU?$char_traits@D@std@@@std@@QEAA@XZ 000000014004eab4     WavFile.obj
 0002:00014ac4       $cppxdata$??1sentry@?$basic_ostream@DU?$char_traits@D@std@@@std@@QEAA@XZ 000000014004eac4     WavFile.obj
 0002:00014acd       $ip2state$??1sentry@?$basic_ostream@DU?$char_traits@D@std@@@std@@QEAA@XZ 000000014004eacd     WavFile.obj
 0002:00014ad4       $unwind$?_Getcat@?$num_put@DV?$ostreambuf_iterator@DU?$char_traits@D@std@@@std@@@std@@SA_KPEAPEBVfacet@locale@2@PEBV42@@Z 000000014004ead4     WavFile.obj
 0002:00014af8       $cppxdata$?_Getcat@?$num_put@DV?$ostreambuf_iterator@DU?$char_traits@D@std@@@std@@@std@@SA_KPEAPEBVfacet@locale@2@PEBV42@@Z 000000014004eaf8     WavFile.obj
 0002:00014b01       $stateUnwindMap$?_Getcat@?$num_put@DV?$ostreambuf_iterator@DU?$char_traits@D@std@@@std@@@std@@SA_KPEAPEBVfacet@locale@2@PEBV42@@Z 000000014004eb01     WavFile.obj
 0002:00014b31       $ip2state$?_Getcat@?$num_put@DV?$ostreambuf_iterator@DU?$char_traits@D@std@@@std@@@std@@SA_KPEAPEBVfacet@locale@2@PEBV42@@Z 000000014004eb31     WavFile.obj
 0002:00014b3c       $unwind$?do_put@?$num_put@DV?$ostreambuf_iterator@DU?$char_traits@D@std@@@std@@@std@@MEBA?AV?$ostreambuf_iterator@DU?$char_traits@D@std@@@2@V32@AEAVios_base@2@D_N@Z 000000014004eb3c     WavFile.obj
 0002:00014b60       $cppxdata$?do_put@?$num_put@DV?$ostreambuf_iterator@DU?$char_traits@D@std@@@std@@@std@@MEBA?AV?$ostreambuf_iterator@DU?$char_traits@D@std@@@2@V32@AEAVios_base@2@D_N@Z 000000014004eb60     WavFile.obj
 0002:00014b69       $stateUnwindMap$?do_put@?$num_put@DV?$ostreambuf_iterator@DU?$char_traits@D@std@@@std@@@std@@MEBA?AV?$ostreambuf_iterator@DU?$char_traits@D@std@@@2@V32@AEAVios_base@2@D_N@Z 000000014004eb69     WavFile.obj
 0002:00014b76       $ip2state$?do_put@?$num_put@DV?$ostreambuf_iterator@DU?$char_traits@D@std@@@std@@@std@@MEBA?AV?$ostreambuf_iterator@DU?$char_traits@D@std@@@2@V32@AEAVios_base@2@D_N@Z 000000014004eb76     WavFile.obj
 0002:00014b80       $unwind$?do_put@?$num_put@DV?$ostreambuf_iterator@DU?$char_traits@D@std@@@std@@@std@@MEBA?AV?$ostreambuf_iterator@DU?$char_traits@D@std@@@2@V32@AEAVios_base@2@DJ@Z 000000014004eb80     WavFile.obj
 0002:00014b80       $unwind$?do_put@?$num_put@DV?$ostreambuf_iterator@DU?$char_traits@D@std@@@std@@@std@@MEBA?AV?$ostreambuf_iterator@DU?$char_traits@D@std@@@2@V32@AEAVios_base@2@DK@Z 000000014004eb80     WavFile.obj
 0002:00014b80       $unwind$?do_put@?$num_put@DV?$ostreambuf_iterator@DU?$char_traits@D@std@@@std@@@std@@MEBA?AV?$ostreambuf_iterator@DU?$char_traits@D@std@@@2@V32@AEAVios_base@2@D_J@Z 000000014004eb80     WavFile.obj
 0002:00014b80       $unwind$?do_put@?$num_put@DV?$ostreambuf_iterator@DU?$char_traits@D@std@@@std@@@std@@MEBA?AV?$ostreambuf_iterator@DU?$char_traits@D@std@@@2@V32@AEAVios_base@2@D_K@Z 000000014004eb80     WavFile.obj
 0002:00014b98       $unwind$?do_put@?$num_put@DV?$ostreambuf_iterator@DU?$char_traits@D@std@@@std@@@std@@MEBA?AV?$ostreambuf_iterator@DU?$char_traits@D@std@@@2@V32@AEAVios_base@2@DN@Z 000000014004eb98     WavFile.obj
 0002:00014bc4       $cppxdata$?do_put@?$num_put@DV?$ostreambuf_iterator@DU?$char_traits@D@std@@@std@@@std@@MEBA?AV?$ostreambuf_iterator@DU?$char_traits@D@std@@@2@V32@AEAVios_base@2@DN@Z 000000014004ebc4     WavFile.obj
 0002:00014bcd       $stateUnwindMap$?do_put@?$num_put@DV?$ostreambuf_iterator@DU?$char_traits@D@std@@@std@@@std@@MEBA?AV?$ostreambuf_iterator@DU?$char_traits@D@std@@@2@V32@AEAVios_base@2@DN@Z 000000014004ebcd     WavFile.obj
 0002:00014bcd       $stateUnwindMap$?do_put@?$num_put@DV?$ostreambuf_iterator@DU?$char_traits@D@std@@@std@@@std@@MEBA?AV?$ostreambuf_iterator@DU?$char_traits@D@std@@@2@V32@AEAVios_base@2@DO@Z 000000014004ebcd     WavFile.obj
 0002:00014bd4       $ip2state$?do_put@?$num_put@DV?$ostreambuf_iterator@DU?$char_traits@D@std@@@std@@@std@@MEBA?AV?$ostreambuf_iterator@DU?$char_traits@D@std@@@2@V32@AEAVios_base@2@DN@Z 000000014004ebd4     WavFile.obj
 0002:00014bdc       $unwind$?do_put@?$num_put@DV?$ostreambuf_iterator@DU?$char_traits@D@std@@@std@@@std@@MEBA?AV?$ostreambuf_iterator@DU?$char_traits@D@std@@@2@V32@AEAVios_base@2@DO@Z 000000014004ebdc     WavFile.obj
 0002:00014c08       $cppxdata$?do_put@?$num_put@DV?$ostreambuf_iterator@DU?$char_traits@D@std@@@std@@@std@@MEBA?AV?$ostreambuf_iterator@DU?$char_traits@D@std@@@2@V32@AEAVios_base@2@DO@Z 000000014004ec08     WavFile.obj
 0002:00014c11       $ip2state$?do_put@?$num_put@DV?$ostreambuf_iterator@DU?$char_traits@D@std@@@std@@@std@@MEBA?AV?$ostreambuf_iterator@DU?$char_traits@D@std@@@2@V32@AEAVios_base@2@DO@Z 000000014004ec11     WavFile.obj
 0002:00014c18       $unwind$?do_put@?$num_put@DV?$ostreambuf_iterator@DU?$char_traits@D@std@@@std@@@std@@MEBA?AV?$ostreambuf_iterator@DU?$char_traits@D@std@@@2@V32@AEAVios_base@2@DPEBX@Z 000000014004ec18     WavFile.obj
 0002:00014c30       $unwind$?_Fput@?$num_put@DV?$ostreambuf_iterator@DU?$char_traits@D@std@@@std@@@std@@AEBA?AV?$ostreambuf_iterator@DU?$char_traits@D@std@@@2@V32@AEAVios_base@2@DPEBD_K@Z 000000014004ec30     WavFile.obj
 0002:00014c58       $cppxdata$?_Fput@?$num_put@DV?$ostreambuf_iterator@DU?$char_traits@D@std@@@std@@@std@@AEBA?AV?$ostreambuf_iterator@DU?$char_traits@D@std@@@2@V32@AEAVios_base@2@DPEBD_K@Z 000000014004ec58     WavFile.obj
 0002:00014c61       $stateUnwindMap$?_Fput@?$num_put@DV?$ostreambuf_iterator@DU?$char_traits@D@std@@@std@@@std@@AEBA?AV?$ostreambuf_iterator@DU?$char_traits@D@std@@@2@V32@AEAVios_base@2@DPEBD_K@Z 000000014004ec61     WavFile.obj
 0002:00014c7b       $ip2state$?_Fput@?$num_put@DV?$ostreambuf_iterator@DU?$char_traits@D@std@@@std@@@std@@AEBA?AV?$ostreambuf_iterator@DU?$char_traits@D@std@@@2@V32@AEAVios_base@2@DPEBD_K@Z 000000014004ec7b     WavFile.obj
 0002:00014c94       $unwind$?_Iput@?$num_put@DV?$ostreambuf_iterator@DU?$char_traits@D@std@@@std@@@std@@AEBA?AV?$ostreambuf_iterator@DU?$char_traits@D@std@@@2@V32@AEAVios_base@2@DPEAD_K@Z 000000014004ec94     WavFile.obj
 0002:00014cbc       $cppxdata$?_Iput@?$num_put@DV?$ostreambuf_iterator@DU?$char_traits@D@std@@@std@@@std@@AEBA?AV?$ostreambuf_iterator@DU?$char_traits@D@std@@@2@V32@AEAVios_base@2@DPEAD_K@Z 000000014004ecbc     WavFile.obj
 0002:00014cc5       $stateUnwindMap$?_Iput@?$num_put@DV?$ostreambuf_iterator@DU?$char_traits@D@std@@@std@@@std@@AEBA?AV?$ostreambuf_iterator@DU?$char_traits@D@std@@@2@V32@AEAVios_base@2@DPEAD_K@Z 000000014004ecc5     WavFile.obj
 0002:00014cde       $ip2state$?_Iput@?$num_put@DV?$ostreambuf_iterator@DU?$char_traits@D@std@@@std@@@std@@AEBA?AV?$ostreambuf_iterator@DU?$char_traits@D@std@@@2@V32@AEAVios_base@2@DPEAD_K@Z 000000014004ecde     WavFile.obj
 0002:00014cf4       $unwind$?_Rep@?$num_put@DV?$ostreambuf_iterator@DU?$char_traits@D@std@@@std@@@std@@AEBA?AV?$ostreambuf_iterator@DU?$char_traits@D@std@@@2@V32@D_K@Z 000000014004ecf4     WavFile.obj
 0002:00014d08       $chain$0$?_Rep@?$num_put@DV?$ostreambuf_iterator@DU?$char_traits@D@std@@@std@@@std@@AEBA?AV?$ostreambuf_iterator@DU?$char_traits@D@std@@@2@V32@D_K@Z 000000014004ed08     WavFile.obj
 0002:00014d1c       $chain$1$?_Rep@?$num_put@DV?$ostreambuf_iterator@DU?$char_traits@D@std@@@std@@@std@@AEBA?AV?$ostreambuf_iterator@DU?$char_traits@D@std@@@2@V32@D_K@Z 000000014004ed1c     WavFile.obj
 0002:00014d2c       $unwind$?_Getcat@?$numpunct@D@std@@SA_KPEAPEBVfacet@locale@2@PEBV42@@Z 000000014004ed2c     WavFile.obj
 0002:00014d4c       $cppxdata$?_Getcat@?$numpunct@D@std@@SA_KPEAPEBVfacet@locale@2@PEBV42@@Z 000000014004ed4c     WavFile.obj
 0002:00014d55       $stateUnwindMap$?_Getcat@?$numpunct@D@std@@SA_KPEAPEBVfacet@locale@2@PEBV42@@Z 000000014004ed55     WavFile.obj
 0002:00014d9f       $ip2state$?_Getcat@?$numpunct@D@std@@SA_KPEAPEBVfacet@locale@2@PEBV42@@Z 000000014004ed9f     WavFile.obj
 0002:00014db0       $chain$3$??$_Reallocate_grow_by@V<lambda_e1befb086ad3257e3f042a63030725f7>@@_KD@?$basic_string@DU?$char_traits@D@std@@V?$allocator@D@2@@std@@AEAAAEAV01@_KV<lambda_e1befb086ad3257e3f042a63030725f7>@@_KD@Z 000000014004edb0     WavFile.obj
 0002:00014dd0       $chain$5$??$_Reallocate_grow_by@V<lambda_e1befb086ad3257e3f042a63030725f7>@@_KD@?$basic_string@DU?$char_traits@D@std@@V?$allocator@D@2@@std@@AEAAAEAV01@_KV<lambda_e1befb086ad3257e3f042a63030725f7>@@_KD@Z 000000014004edd0     WavFile.obj
 0002:00014dd0       $chain$7$??$_Reallocate_grow_by@V<lambda_e1befb086ad3257e3f042a63030725f7>@@_KD@?$basic_string@DU?$char_traits@D@std@@V?$allocator@D@2@@std@@AEAAAEAV01@_KV<lambda_e1befb086ad3257e3f042a63030725f7>@@_KD@Z 000000014004edd0     WavFile.obj
 0002:00014df0       $chain$6$??$_Reallocate_grow_by@V<lambda_e1befb086ad3257e3f042a63030725f7>@@_KD@?$basic_string@DU?$char_traits@D@std@@V?$allocator@D@2@@std@@AEAAAEAV01@_KV<lambda_e1befb086ad3257e3f042a63030725f7>@@_KD@Z 000000014004edf0     WavFile.obj
 0002:00014e00       $unwind$??$_Reallocate_grow_by@V<lambda_b986da8d428e4af07c64af60eec09b61>@@_K_KD@?$basic_string@DU?$char_traits@D@std@@V?$allocator@D@2@@std@@AEAAAEAV01@_KV<lambda_b986da8d428e4af07c64af60eec09b61>@@_K2D@Z 000000014004ee00     WavFile.obj
 0002:00014e10       $chain$3$??$_Reallocate_grow_by@V<lambda_b986da8d428e4af07c64af60eec09b61>@@_K_KD@?$basic_string@DU?$char_traits@D@std@@V?$allocator@D@2@@std@@AEAAAEAV01@_KV<lambda_b986da8d428e4af07c64af60eec09b61>@@_K2D@Z 000000014004ee10     WavFile.obj
 0002:00014e30       $chain$5$??$_Reallocate_grow_by@V<lambda_b986da8d428e4af07c64af60eec09b61>@@_K_KD@?$basic_string@DU?$char_traits@D@std@@V?$allocator@D@2@@std@@AEAAAEAV01@_KV<lambda_b986da8d428e4af07c64af60eec09b61>@@_K2D@Z 000000014004ee30     WavFile.obj
 0002:00014e30       $chain$7$??$_Reallocate_grow_by@V<lambda_b986da8d428e4af07c64af60eec09b61>@@_K_KD@?$basic_string@DU?$char_traits@D@std@@V?$allocator@D@2@@std@@AEAAAEAV01@_KV<lambda_b986da8d428e4af07c64af60eec09b61>@@_K2D@Z 000000014004ee30     WavFile.obj
 0002:00014e50       $chain$6$??$_Reallocate_grow_by@V<lambda_b986da8d428e4af07c64af60eec09b61>@@_K_KD@?$basic_string@DU?$char_traits@D@std@@V?$allocator@D@2@@std@@AEAAAEAV01@_KV<lambda_b986da8d428e4af07c64af60eec09b61>@@_K2D@Z 000000014004ee50     WavFile.obj
 0002:00014e60       $unwind$__std_exception_copy 000000014004ee60     libvcruntime:std_exception.obj
 0002:00014e60       $unwind$_wcstombs_s_l      000000014004ee60     libucrt:wcstombs.obj
 0002:00014e60       $unwind$string_is_alpha    000000014004ee60     libucrt:wsetlocale.obj
 0002:00014e60       $unwind$_free_osfhnd       000000014004ee60     libucrt:osfinfo.obj
 0002:00014e60       $unwind$__acrt_stdio_refill_and_read_narrow_nolock 000000014004ee60     libucrt:_filbuf.obj
 0002:00014e60       $unwind$?getPeakCenter@PeakFinder@soundtouch@@IEBANPEBMH@Z 000000014004ee60     SoundTouch_x64:PeakFinder.obj
 0002:00014e60       $unwind$?moveSamples@FIFOSamplePipe@soundtouch@@QEAAXAEAV12@@Z 000000014004ee60     SoundTouch_x64:SoundTouch.obj
 0002:00014e74       $unwind$?calcEffectiveRateAndTempo@SoundTouch@soundtouch@@AEAAXXZ 000000014004ee74     SoundTouch_x64:SoundTouch.obj
 0002:00014e80       $unwind$??0SoundTouch@soundtouch@@QEAA@XZ 000000014004ee80     SoundTouch_x64:SoundTouch.obj
 0002:00014e94       $cppxdata$??0SoundTouch@soundtouch@@QEAA@XZ 000000014004ee94     SoundTouch_x64:SoundTouch.obj
 0002:00014e9d       $stateUnwindMap$??0SoundTouch@soundtouch@@QEAA@XZ 000000014004ee9d     SoundTouch_x64:SoundTouch.obj
 0002:00014ea9       $ip2state$??0SoundTouch@soundtouch@@QEAA@XZ 000000014004eea9     SoundTouch_x64:SoundTouch.obj
 0002:00014eb4       $unwind$_mbsdec_l          000000014004eeb4     libucrt:mbsdec.obj
 0002:00014eb4       $unwind$islower            000000014004eeb4     libucrt:_ctype.obj
 0002:00014eb4       $unwind$isupper            000000014004eeb4     libucrt:_ctype.obj
 0002:00014eb4       $unwind$?setCoefficients@FIRFilter@soundtouch@@UEAAXPEBMII@Z 000000014004eeb4     SoundTouch_x64:FIRFilter.obj
 0002:00014eb4       $unwind$?setChannels@RateTransposer@soundtouch@@QEAAXH@Z 000000014004eeb4     SoundTouch_x64:RateTransposer.obj
 0002:00014eb4       $unwind$?setChannels@SoundTouch@soundtouch@@QEAAXI@Z 000000014004eeb4     SoundTouch_x64:SoundTouch.obj
 0002:00014ec0       $unwind$?GetHandlerSearchState@__FrameHandler3@@SAHPEA_KPEAU_xDISPATCHER_CONTEXT@@PEBU_s_FuncInfo@@@Z 000000014004eec0     libvcruntime:frame.obj
 0002:00014ec0       $unwind$?Is_bad_exception_allowed@@YAEPEBU_s_ESTypeList@@@Z 000000014004eec0     libvcruntime:frame.obj
 0002:00014ec0       $unwind$_ischartype_l      000000014004eec0     libucrt:atof.obj
 0002:00014ec0       $unwind$_recalloc_base     000000014004eec0     libucrt:recalloc.obj
 0002:00014ec0       $unwind$__acrt_free_locale 000000014004eec0     libucrt:locale_refcounting.obj
 0002:00014ec0       $unwind$__acrt_lowio_create_handle_array 000000014004eec0     libucrt:osfinfo.obj
 0002:00014ec0       $unwind$?setSBCS@@YAXPEAU__crt_multibyte_data@@@Z 000000014004eec0     libucrt:mbctype.obj
 0002:00014ec0       $unwind$_seh_filter_exe    000000014004eec0     libucrt:exception_filter.obj
 0002:00014ec0       $unwind$_initterm          000000014004eec0     libucrt:initterm.obj
 0002:00014ec0       $unwind$??$ensure_buffer_is_big_enough@D@formatting_buffer@__crt_stdio_output@@QEAA_N_K@Z 000000014004eec0     libucrt:output.obj
 0002:00014ec0       $unwind$?find_or_allocate_unused_stream_nolock@@YA?AV__crt_stdio_stream@@XZ 000000014004eec0     libucrt:stream.obj
 0002:00014ec0       $unwind$?_Change_array@?$vector@UBEAT@soundtouch@@V?$allocator@UBEAT@soundtouch@@@std@@@std@@AEAAXQEAUBEAT@soundtouch@@_K1@Z 000000014004eec0     SoundTouch_x64:BPMDetect.obj
 0002:00014ec0       $unwind$?receiveSamples@FIFOSampleBuffer@soundtouch@@UEAAIPEAMI@Z 000000014004eec0     SoundTouch_x64:FIFOSampleBuffer.obj
 0002:00014ec0       $unwind$?flush@SoundTouch@soundtouch@@QEAAXXZ 000000014004eec0     SoundTouch_x64:SoundTouch.obj
 0002:00014ed4       $unwind$capture_previous_context 000000014004eed4     LIBCMT:gs_report.obj
 0002:00014ed4       $unwind$?setSetting@SoundTouch@soundtouch@@QEAA_NHH@Z 000000014004eed4     SoundTouch_x64:SoundTouch.obj
 0002:00014ee0       $unwind$?_Reallocate_exactly@?$vector@UBEAT@soundtouch@@V?$allocator@UBEAT@soundtouch@@@std@@@std@@AEAAX_K@Z 000000014004eee0     SoundTouch_x64:BPMDetect.obj
 0002:00014ef8       $cppxdata$?_Reallocate_exactly@?$vector@UBEAT@soundtouch@@V?$allocator@UBEAT@soundtouch@@@std@@@std@@AEAAX_K@Z 000000014004eef8     SoundTouch_x64:BPMDetect.obj
 0002:00014f05       $tryMap$?_Reallocate_exactly@?$vector@UBEAT@soundtouch@@V?$allocator@UBEAT@soundtouch@@@std@@@std@@AEAAX_K@Z 000000014004ef05     SoundTouch_x64:BPMDetect.obj
 0002:00014f0d       $handlerMap$?_Reallocate_exactly@?$vector@UBEAT@soundtouch@@V?$allocator@UBEAT@soundtouch@@@std@@@std@@AEAAX_K@Z 000000014004ef0d     SoundTouch_x64:BPMDetect.obj
 0002:00014f14       $ip2state$?_Reallocate_exactly@?$vector@UBEAT@soundtouch@@V?$allocator@UBEAT@soundtouch@@@std@@@std@@AEAAX_K@Z 000000014004ef14     SoundTouch_x64:BPMDetect.obj
 0002:00014f18       $unwind$?updateXCorr@BPMDetect@soundtouch@@IEAAXH@Z 000000014004ef18     SoundTouch_x64:BPMDetect.obj
 0002:00014f30       $chain$0$?updateXCorr@BPMDetect@soundtouch@@IEAAXH@Z 000000014004ef30     SoundTouch_x64:BPMDetect.obj
 0002:00014f44       $chain$2$?updateXCorr@BPMDetect@soundtouch@@IEAAXH@Z 000000014004ef44     SoundTouch_x64:BPMDetect.obj
 0002:00014f5c       $chain$3$?updateXCorr@BPMDetect@soundtouch@@IEAAXH@Z 000000014004ef5c     SoundTouch_x64:BPMDetect.obj
 0002:00014f6c       $chain$4$?updateXCorr@BPMDetect@soundtouch@@IEAAXH@Z 000000014004ef6c     SoundTouch_x64:BPMDetect.obj
 0002:00014f7c       $unwind$?removeBias@BPMDetect@soundtouch@@IEAAXXZ 000000014004ef7c     SoundTouch_x64:BPMDetect.obj
 0002:00014f84       $chain$3$?removeBias@BPMDetect@soundtouch@@IEAAXXZ 000000014004ef84     SoundTouch_x64:BPMDetect.obj
 0002:00014fa4       $chain$4$?removeBias@BPMDetect@soundtouch@@IEAAXXZ 000000014004efa4     SoundTouch_x64:BPMDetect.obj
 0002:00014fb8       $chain$5$?removeBias@BPMDetect@soundtouch@@IEAAXXZ 000000014004efb8     SoundTouch_x64:BPMDetect.obj
 0002:00014fc8       $chain$6$?removeBias@BPMDetect@soundtouch@@IEAAXXZ 000000014004efc8     SoundTouch_x64:BPMDetect.obj
 0002:00014fdc       $chain$7$?removeBias@BPMDetect@soundtouch@@IEAAXXZ 000000014004efdc     SoundTouch_x64:BPMDetect.obj
 0002:00014fec       $unwind$?updateBeatPos@BPMDetect@soundtouch@@IEAAXH@Z 000000014004efec     SoundTouch_x64:BPMDetect.obj
 0002:00015020       $chain$1$?updateBeatPos@BPMDetect@soundtouch@@IEAAXH@Z 000000014004f020     SoundTouch_x64:BPMDetect.obj
 0002:00015038       $chain$2$?updateBeatPos@BPMDetect@soundtouch@@IEAAXH@Z 000000014004f038     SoundTouch_x64:BPMDetect.obj
 0002:0001504c       $chain$3$?updateBeatPos@BPMDetect@soundtouch@@IEAAXH@Z 000000014004f04c     SoundTouch_x64:BPMDetect.obj
 0002:00015060       $chain$4$?updateBeatPos@BPMDetect@soundtouch@@IEAAXH@Z 000000014004f060     SoundTouch_x64:BPMDetect.obj
 0002:00015070       $chain$5$?updateBeatPos@BPMDetect@soundtouch@@IEAAXH@Z 000000014004f070     SoundTouch_x64:BPMDetect.obj
 0002:00015080       $chain$6$?updateBeatPos@BPMDetect@soundtouch@@IEAAXH@Z 000000014004f080     SoundTouch_x64:BPMDetect.obj
 0002:00015090       $unwind$??0BPMDetect@soundtouch@@QEAA@HH@Z 000000014004f090     SoundTouch_x64:BPMDetect.obj
 0002:000150a8       $cppxdata$??0BPMDetect@soundtouch@@QEAA@HH@Z 000000014004f0a8     SoundTouch_x64:BPMDetect.obj
 0002:000150b1       $stateUnwindMap$??0BPMDetect@soundtouch@@QEAA@HH@Z 000000014004f0b1     SoundTouch_x64:BPMDetect.obj
 0002:000150bc       $ip2state$??0BPMDetect@soundtouch@@QEAA@HH@Z 000000014004f0bc     SoundTouch_x64:BPMDetect.obj
 0002:000150cc       $unwind$?inputSamples@BPMDetect@soundtouch@@QEAAXPEBMH@Z 000000014004f0cc     SoundTouch_x64:BPMDetect.obj
 0002:000150e0       $chain$1$?inputSamples@BPMDetect@soundtouch@@QEAAXPEBMH@Z 000000014004f0e0     SoundTouch_x64:BPMDetect.obj
 0002:000150f8       $chain$5$?inputSamples@BPMDetect@soundtouch@@QEAAXPEBMH@Z 000000014004f0f8     SoundTouch_x64:BPMDetect.obj
 0002:00015118       $chain$6$?inputSamples@BPMDetect@soundtouch@@QEAAXPEBMH@Z 000000014004f118     SoundTouch_x64:BPMDetect.obj
 0002:00015128       $chain$7$?inputSamples@BPMDetect@soundtouch@@QEAAXPEBMH@Z 000000014004f128     SoundTouch_x64:BPMDetect.obj
 0002:00015138       $unwind$?getBpm@BPMDetect@soundtouch@@QEAAMXZ 000000014004f138     SoundTouch_x64:BPMDetect.obj
 0002:0001514c       $unwind$?hamming@@YAXPEAMH@Z 000000014004f14c     SoundTouch_x64:BPMDetect.obj
 0002:00015168       $chain$4$?hamming@@YAXPEAMH@Z 000000014004f168     SoundTouch_x64:BPMDetect.obj
 0002:00015180       $chain$6$?hamming@@YAXPEAMH@Z 000000014004f180     SoundTouch_x64:BPMDetect.obj
 0002:00015198       $chain$7$?hamming@@YAXPEAMH@Z 000000014004f198     SoundTouch_x64:BPMDetect.obj
 0002:000151a8       $chain$8$?hamming@@YAXPEAMH@Z 000000014004f1a8     SoundTouch_x64:BPMDetect.obj
 0002:000151bc       $unwind$?MAFilter@@YAXPEAMPEBMHHH@Z 000000014004f1bc     SoundTouch_x64:BPMDetect.obj
 0002:000151d0       $chain$1$?MAFilter@@YAXPEAMPEBMHHH@Z 000000014004f1d0     SoundTouch_x64:BPMDetect.obj
 0002:000151e8       $chain$2$?MAFilter@@YAXPEAMPEBMHHH@Z 000000014004f1e8     SoundTouch_x64:BPMDetect.obj
 0002:000151f8       $unwind$??$_Emplace_reallocate@AEBUBEAT@soundtouch@@@?$vector@UBEAT@soundtouch@@V?$allocator@UBEAT@soundtouch@@@std@@@std@@QEAAPEAUBEAT@soundtouch@@QEAU23@AEBU23@@Z 000000014004f1f8     SoundTouch_x64:BPMDetect.obj
 0002:00015214       $cppxdata$??$_Emplace_reallocate@AEBUBEAT@soundtouch@@@?$vector@UBEAT@soundtouch@@V?$allocator@UBEAT@soundtouch@@@std@@@std@@QEAAPEAUBEAT@soundtouch@@QEAU23@AEBU23@@Z 000000014004f214     SoundTouch_x64:BPMDetect.obj
 0002:00015221       $tryMap$??$_Emplace_reallocate@AEBUBEAT@soundtouch@@@?$vector@UBEAT@soundtouch@@V?$allocator@UBEAT@soundtouch@@@std@@@std@@QEAAPEAUBEAT@soundtouch@@QEAU23@AEBU23@@Z 000000014004f221     SoundTouch_x64:BPMDetect.obj
 0002:00015229       $handlerMap$??$_Emplace_reallocate@AEBUBEAT@soundtouch@@@?$vector@UBEAT@soundtouch@@V?$allocator@UBEAT@soundtouch@@@std@@@std@@QEAAPEAUBEAT@soundtouch@@QEAU23@AEBU23@@Z 000000014004f229     SoundTouch_x64:BPMDetect.obj
 0002:00015230       $ip2state$??$_Emplace_reallocate@AEBUBEAT@soundtouch@@@?$vector@UBEAT@soundtouch@@V?$allocator@UBEAT@soundtouch@@@std@@@std@@QEAAPEAUBEAT@soundtouch@@QEAU23@AEBU23@@Z 000000014004f230     SoundTouch_x64:BPMDetect.obj
 0002:00015234       $unwind$?calculateCoeffs@AAFilter@soundtouch@@IEAAXXZ 000000014004f234     SoundTouch_x64:AAFilter.obj
 0002:00015250       $chain$3$?calculateCoeffs@AAFilter@soundtouch@@IEAAXXZ 000000014004f250     SoundTouch_x64:AAFilter.obj
 0002:00015270       $chain$9$?calculateCoeffs@AAFilter@soundtouch@@IEAAXXZ 000000014004f270     SoundTouch_x64:AAFilter.obj
 0002:00015298       $chain$10$?calculateCoeffs@AAFilter@soundtouch@@IEAAXXZ 000000014004f298     SoundTouch_x64:AAFilter.obj
 0002:000152a8       $chain$11$?calculateCoeffs@AAFilter@soundtouch@@IEAAXXZ 000000014004f2a8     SoundTouch_x64:AAFilter.obj
 0002:000152b8       $unwind$??$create_environment@D@@YAQEAPEADQEAD@Z 000000014004f2b8     libucrt:environment_initialization.obj
 0002:000152b8       $unwind$__lc_wcstolc       000000014004f2b8     libucrt:wsetlocale.obj
 0002:000152b8       $unwind$?evaluate@AAFilter@soundtouch@@QEBAIAEAVFIFOSampleBuffer@2@0@Z 000000014004f2b8     SoundTouch_x64:AAFilter.obj
 0002:000152d0       $unwind$?parse_int_from_format_string@?$output_processor@DV?$stream_output_adapter@D@__crt_stdio_output@@V?$standard_base@DV?$stream_output_adapter@D@__crt_stdio_output@@@2@@__crt_stdio_output@@AEAA_NQEAH@Z 000000014004f2d0     libucrt:output.obj
 0002:000152d0       $unwind$?parse_int_from_format_string@?$output_processor@DV?$string_output_adapter@D@__crt_stdio_output@@V?$format_validation_base@DV?$string_output_adapter@D@__crt_stdio_output@@@2@@__crt_stdio_output@@AEAA_NQEAH@Z 000000014004f2d0     libucrt:output.obj
 0002:000152d0       $unwind$?transpose@TransposerBase@soundtouch@@UEAAHAEAVFIFOSampleBuffer@2@0@Z 000000014004f2d0     SoundTouch_x64:RateTransposer.obj
 0002:000152e4       $unwind$??0RateTransposer@soundtouch@@QEAA@XZ 000000014004f2e4     SoundTouch_x64:RateTransposer.obj
 0002:000152f8       $cppxdata$??0RateTransposer@soundtouch@@QEAA@XZ 000000014004f2f8     SoundTouch_x64:RateTransposer.obj
 0002:00015301       $stateUnwindMap$??0RateTransposer@soundtouch@@QEAA@XZ 000000014004f301     SoundTouch_x64:RateTransposer.obj
 0002:0001532b       $ip2state$??0RateTransposer@soundtouch@@QEAA@XZ 000000014004f32b     SoundTouch_x64:RateTransposer.obj
 0002:00015344       $unwind$?setRate@RateTransposer@soundtouch@@UEAAXN@Z 000000014004f344     SoundTouch_x64:RateTransposer.obj
 0002:00015350       $unwind$__acrt_locale_free_monetary 000000014004f350     libucrt:initmon.obj
 0002:00015350       $unwind$?putSamples@RateTransposer@soundtouch@@UEAAXPEBMI@Z 000000014004f350     SoundTouch_x64:RateTransposer.obj
 0002:00015358       $chain$1$?putSamples@RateTransposer@soundtouch@@UEAAXPEBMI@Z 000000014004f358     SoundTouch_x64:RateTransposer.obj
 0002:00015370       $chain$4$?putSamples@RateTransposer@soundtouch@@UEAAXPEBMI@Z 000000014004f370     SoundTouch_x64:RateTransposer.obj
 0002:0001538c       $chain$5$?putSamples@RateTransposer@soundtouch@@UEAAXPEBMI@Z 000000014004f38c     SoundTouch_x64:RateTransposer.obj
 0002:0001539c       $unwind$?calcCrossCorr@TDStretch@soundtouch@@MEAANPEBM0AEAN@Z 000000014004f39c     SoundTouch_x64:TDStretch.obj
 0002:000153a8       $chain$1$?calcCrossCorr@TDStretch@soundtouch@@MEAANPEBM0AEAN@Z 000000014004f3a8     SoundTouch_x64:TDStretch.obj
 0002:000153c0       $chain$2$?calcCrossCorr@TDStretch@soundtouch@@MEAANPEBM0AEAN@Z 000000014004f3c0     SoundTouch_x64:TDStretch.obj
 0002:000153d0       $unwind$?transposeStereo@InterpolateLinearFloat@soundtouch@@MEAAHPEAMPEBMAEAH@Z 000000014004f3d0     SoundTouch_x64:InterpolateLinear.obj
 0002:000153d0       $unwind$?calcCrossCorrAccumulate@TDStretch@soundtouch@@MEAANPEBM0AEAN@Z 000000014004f3d0     SoundTouch_x64:TDStretch.obj
 0002:000153e0       $unwind$?seekBestOverlapPositionFull@TDStretch@soundtouch@@MEAAHPEBM@Z 000000014004f3e0     SoundTouch_x64:TDStretch.obj
 0002:000153f0       $chain$4$?seekBestOverlapPositionFull@TDStretch@soundtouch@@MEAAHPEBM@Z 000000014004f3f0     SoundTouch_x64:TDStretch.obj
 0002:00015414       $chain$5$?seekBestOverlapPositionFull@TDStretch@soundtouch@@MEAAHPEBM@Z 000000014004f414     SoundTouch_x64:TDStretch.obj
 0002:00015424       $unwind$?seekBestOverlapPositionQuick@TDStretch@soundtouch@@MEAAHPEBM@Z 000000014004f424     SoundTouch_x64:TDStretch.obj
 0002:0001544c       $chain$0$?seekBestOverlapPositionQuick@TDStretch@soundtouch@@MEAAHPEBM@Z 000000014004f44c     SoundTouch_x64:TDStretch.obj
 0002:00015460       $chain$1$?seekBestOverlapPositionQuick@TDStretch@soundtouch@@MEAAHPEBM@Z 000000014004f460     SoundTouch_x64:TDStretch.obj
 0002:00015470       $unwind$??$type_case_integer_parse_into_buffer@I@?$output_processor@DV?$stream_output_adapter@D@__crt_stdio_output@@V?$standard_base@DV?$stream_output_adapter@D@__crt_stdio_output@@@2@@__crt_stdio_output@@AEAAXII_N@Z 000000014004f470     libucrt:output.obj
 0002:00015470       $unwind$??$type_case_integer_parse_into_buffer@I@?$output_processor@DV?$string_output_adapter@D@__crt_stdio_output@@V?$format_validation_base@DV?$string_output_adapter@D@__crt_stdio_output@@@2@@__crt_stdio_output@@AEAAXII_N@Z 000000014004f470     libucrt:output.obj
 0002:00015470       $unwind$??$type_case_integer_parse_into_buffer@_K@?$output_processor@DV?$stream_output_adapter@D@__crt_stdio_output@@V?$standard_base@DV?$stream_output_adapter@D@__crt_stdio_output@@@2@@__crt_stdio_output@@AEAAX_KI_N@Z 000000014004f470     libucrt:output.obj
 0002:00015470       $unwind$??$type_case_integer_parse_into_buffer@_K@?$output_processor@DV?$string_output_adapter@D@__crt_stdio_output@@V?$format_validation_base@DV?$string_output_adapter@D@__crt_stdio_output@@@2@@__crt_stdio_output@@AEAAX_KI_N@Z 000000014004f470     libucrt:output.obj
 0002:00015470       $unwind$?overlapStereo@TDStretch@soundtouch@@MEBAXPEAMPEBM@Z 000000014004f470     SoundTouch_x64:TDStretch.obj
 0002:00015478       $unwind$?transposeMono@InterpolateLinearFloat@soundtouch@@MEAAHPEAMPEBMAEAH@Z 000000014004f478     SoundTouch_x64:InterpolateLinear.obj
 0002:00015478       $unwind$?overlapMulti@TDStretch@soundtouch@@MEBAXPEAMPEBM@Z 000000014004f478     SoundTouch_x64:TDStretch.obj
 0002:00015484       $unwind$?processSamples@TDStretch@soundtouch@@IEAAXXZ 000000014004f484     SoundTouch_x64:TDStretch.obj
 0002:00015490       $chain$3$?processSamples@TDStretch@soundtouch@@IEAAXXZ 000000014004f490     SoundTouch_x64:TDStretch.obj
 0002:000154b0       $chain$4$?processSamples@TDStretch@soundtouch@@IEAAXXZ 000000014004f4b0     SoundTouch_x64:TDStretch.obj
 0002:000154c0       $unwind$??0TDStretch@soundtouch@@QEAA@XZ 000000014004f4c0     SoundTouch_x64:TDStretch.obj
 0002:000154dc       $cppxdata$??0TDStretch@soundtouch@@QEAA@XZ 000000014004f4dc     SoundTouch_x64:TDStretch.obj
 0002:000154e5       $stateUnwindMap$??0TDStretch@soundtouch@@QEAA@XZ 000000014004f4e5     SoundTouch_x64:TDStretch.obj
 0002:000154f6       $ip2state$??0TDStretch@soundtouch@@QEAA@XZ 000000014004f4f6     SoundTouch_x64:TDStretch.obj
 0002:00015504       $unwind$?newInstance@TDStretch@soundtouch@@SAPEAV12@XZ 000000014004f504     SoundTouch_x64:TDStretch.obj
 0002:00015514       $cppxdata$?newInstance@TDStretch@soundtouch@@SAPEAV12@XZ 000000014004f514     SoundTouch_x64:TDStretch.obj
 0002:0001551d       $stateUnwindMap$?newInstance@TDStretch@soundtouch@@SAPEAV12@XZ 000000014004f51d     SoundTouch_x64:TDStretch.obj
 0002:00015528       $ip2state$?newInstance@TDStretch@soundtouch@@SAPEAV12@XZ 000000014004f528     SoundTouch_x64:TDStretch.obj
 0002:00015534       $unwind$?ensureCapacity@FIFOSampleBuffer@soundtouch@@AEAAXI@Z 000000014004f534     SoundTouch_x64:FIFOSampleBuffer.obj
 0002:00015540       $chain$1$?ensureCapacity@FIFOSampleBuffer@soundtouch@@AEAAXI@Z 000000014004f540     SoundTouch_x64:FIFOSampleBuffer.obj
 0002:00015558       $chain$2$?ensureCapacity@FIFOSampleBuffer@soundtouch@@AEAAXI@Z 000000014004f558     SoundTouch_x64:FIFOSampleBuffer.obj
 0002:00015568       $chain$3$?ensureCapacity@FIFOSampleBuffer@soundtouch@@AEAAXI@Z 000000014004f568     SoundTouch_x64:FIFOSampleBuffer.obj
 0002:0001557c       $unwind$??0FIFOSampleBuffer@soundtouch@@QEAA@H@Z 000000014004f57c     SoundTouch_x64:FIFOSampleBuffer.obj
 0002:00015598       $cppxdata$??0FIFOSampleBuffer@soundtouch@@QEAA@H@Z 000000014004f598     SoundTouch_x64:FIFOSampleBuffer.obj
 0002:000155a1       $stateUnwindMap$??0FIFOSampleBuffer@soundtouch@@QEAA@H@Z 000000014004f5a1     SoundTouch_x64:FIFOSampleBuffer.obj
 0002:000155a8       $ip2state$??0FIFOSampleBuffer@soundtouch@@QEAA@H@Z 000000014004f5a8     SoundTouch_x64:FIFOSampleBuffer.obj
 0002:000155b0       $chain$0$?calcMassCenter@PeakFinder@soundtouch@@IEBANPEBMHH@Z 000000014004f5b0     SoundTouch_x64:PeakFinder.obj
 0002:000155c4       $chain$2$?calcMassCenter@PeakFinder@soundtouch@@IEBANPEBMHH@Z 000000014004f5c4     SoundTouch_x64:PeakFinder.obj
 0002:000155dc       $chain$3$?calcMassCenter@PeakFinder@soundtouch@@IEBANPEBMHH@Z 000000014004f5dc     SoundTouch_x64:PeakFinder.obj
 0002:000155ec       $chain$4$?calcMassCenter@PeakFinder@soundtouch@@IEBANPEBMHH@Z 000000014004f5ec     SoundTouch_x64:PeakFinder.obj
 0002:000155fc       $unwind$?findGround@PeakFinder@soundtouch@@IEBAHPEBMHH@Z 000000014004f5fc     SoundTouch_x64:PeakFinder.obj
 0002:00015608       $chain$0$?findGround@PeakFinder@soundtouch@@IEBAHPEBMHH@Z 000000014004f608     SoundTouch_x64:PeakFinder.obj
 0002:0001561c       $chain$1$?findGround@PeakFinder@soundtouch@@IEBAHPEBMHH@Z 000000014004f61c     SoundTouch_x64:PeakFinder.obj
 0002:0001562c       $unwind$?detectPeak@PeakFinder@soundtouch@@QEAANPEBMHH@Z 000000014004f62c     SoundTouch_x64:PeakFinder.obj
 0002:00015674       $unwind$?evaluateFilterStereo@FIRFilter@soundtouch@@MEBAIPEAMPEBMI@Z 000000014004f674     SoundTouch_x64:FIRFilter.obj
 0002:00015688       $chain$4$?evaluateFilterStereo@FIRFilter@soundtouch@@MEBAIPEAMPEBMI@Z 000000014004f688     SoundTouch_x64:FIRFilter.obj
 0002:000156ac       $chain$5$?evaluateFilterStereo@FIRFilter@soundtouch@@MEBAIPEAMPEBMI@Z 000000014004f6ac     SoundTouch_x64:FIRFilter.obj
 0002:000156bc       $unwind$?evaluateFilterMono@FIRFilter@soundtouch@@MEBAIPEAMPEBMI@Z 000000014004f6bc     SoundTouch_x64:FIRFilter.obj
 0002:000156cc       $chain$2$?evaluateFilterMono@FIRFilter@soundtouch@@MEBAIPEAMPEBMI@Z 000000014004f6cc     SoundTouch_x64:FIRFilter.obj
 0002:000156e8       $chain$3$?evaluateFilterMono@FIRFilter@soundtouch@@MEBAIPEAMPEBMI@Z 000000014004f6e8     SoundTouch_x64:FIRFilter.obj
 0002:000156f8       $unwind$?evaluateFilterMulti@FIRFilter@soundtouch@@MEAAIPEAMPEBMII@Z 000000014004f6f8     SoundTouch_x64:FIRFilter.obj
 0002:00015724       $unwind$?newInstance@FIRFilter@soundtouch@@SAPEAV12@XZ 000000014004f724     SoundTouch_x64:FIRFilter.obj
 0002:00015734       $cppxdata$?newInstance@FIRFilter@soundtouch@@SAPEAV12@XZ 000000014004f734     SoundTouch_x64:FIRFilter.obj
 0002:0001573d       $stateUnwindMap$?newInstance@FIRFilter@soundtouch@@SAPEAV12@XZ 000000014004f73d     SoundTouch_x64:FIRFilter.obj
 0002:00015743       $ip2state$?newInstance@FIRFilter@soundtouch@@SAPEAV12@XZ 000000014004f743     SoundTouch_x64:FIRFilter.obj
 0002:0001574c       $unwind$?transposeMulti@InterpolateLinearFloat@soundtouch@@MEAAHPEAMPEBMAEAH@Z 000000014004f74c     SoundTouch_x64:InterpolateLinear.obj
 0002:00015760       $unwind$??0InterpolateLinearFloat@soundtouch@@QEAA@XZ 000000014004f760     SoundTouch_x64:InterpolateLinear.obj
 0002:00015770       $cppxdata$??0InterpolateLinearFloat@soundtouch@@QEAA@XZ 000000014004f770     SoundTouch_x64:InterpolateLinear.obj
 0002:00015779       $stateUnwindMap$??0InterpolateLinearFloat@soundtouch@@QEAA@XZ 000000014004f779     SoundTouch_x64:InterpolateLinear.obj
 0002:00015780       $ip2state$??0InterpolateLinearFloat@soundtouch@@QEAA@XZ 000000014004f780     SoundTouch_x64:InterpolateLinear.obj
 0002:00015788       $unwind$?transposeMono@InterpolateCubic@soundtouch@@MEAAHPEAMPEBMAEAH@Z 000000014004f788     SoundTouch_x64:InterpolateCubic.obj
